   1              		.syntax unified
   2              		.cpu cortex-m3
   3              		.fpu softvfp
   4              		.eabi_attribute 20, 1
   5              		.eabi_attribute 21, 1
   6              		.eabi_attribute 23, 3
   7              		.eabi_attribute 24, 1
   8              		.eabi_attribute 25, 1
   9              		.eabi_attribute 26, 1
  10              		.eabi_attribute 30, 6
  11              		.eabi_attribute 34, 1
  12              		.eabi_attribute 18, 4
  13              		.thumb
  14              		.file	"techo.c"
  15              		.text
  16              	.Ltext0:
  17              		.cfi_sections	.debug_frame
  18              		.section	.rodata
  19              		.align	2
  22              	rreg_uriquery:
  23 0000 683D7563 		.ascii	"h=ucb\000"
  23      6200
  24 0006 0000     		.align	2
  27              	infoBoardname:
  28 0008 43433235 		.ascii	"CC2538\000"
  28      333800
  29 000f 00       		.align	2
  32              	infouCName:
  33 0010 43433235 		.ascii	"CC2538\000"
  33      333800
  34 0017 00       		.align	2
  37              	infoRadioName:
  38 0018 43433235 		.ascii	"CC2538 SoC\000"
  38      33382053 
  38      6F4300
  39 0023 00       		.align	2
  42              	infoStackName:
  43 0024 4F70656E 		.ascii	"OpenWSN \000"
  43      57534E20 
  43      00
  44              		.text
  45              		.align	2
  46              		.global	techo_init
  47              		.thumb
  48              		.thumb_func
  50              	techo_init:
  51              	.LFB0:
  52              		.file 1 "build/OpenMote-CC2538_armgcc/openapps/techo/techo.c"
   1:build/OpenMote-CC2538_armgcc/openapps/techo/techo.c **** #include "opendefs.h"
   2:build/OpenMote-CC2538_armgcc/openapps/techo/techo.c **** #include "techo.h"
   3:build/OpenMote-CC2538_armgcc/openapps/techo/techo.c **** #include "openqueue.h"
   4:build/OpenMote-CC2538_armgcc/openapps/techo/techo.c **** #include "openserial.h"
   5:build/OpenMote-CC2538_armgcc/openapps/techo/techo.c **** #include "opentcp.h"
   6:build/OpenMote-CC2538_armgcc/openapps/techo/techo.c **** 
   7:build/OpenMote-CC2538_armgcc/openapps/techo/techo.c **** //=========================== variables =======================================
   8:build/OpenMote-CC2538_armgcc/openapps/techo/techo.c **** 
   9:build/OpenMote-CC2538_armgcc/openapps/techo/techo.c **** //=========================== prototypes ======================================
  10:build/OpenMote-CC2538_armgcc/openapps/techo/techo.c **** 
  11:build/OpenMote-CC2538_armgcc/openapps/techo/techo.c **** //=========================== public ==========================================
  12:build/OpenMote-CC2538_armgcc/openapps/techo/techo.c **** 
  13:build/OpenMote-CC2538_armgcc/openapps/techo/techo.c **** void techo_init() {
  53              		.loc 1 13 0
  54              		.cfi_startproc
  55              		@ args = 0, pretend = 0, frame = 0
  56              		@ frame_needed = 1, uses_anonymous_args = 0
  57              		@ link register save eliminated.
  58 0000 80B4     		push	{r7}
  59              		.cfi_def_cfa_offset 4
  60              		.cfi_offset 7, -4
  61 0002 00AF     		add	r7, sp, #0
  62              		.cfi_def_cfa_register 7
  14:build/OpenMote-CC2538_armgcc/openapps/techo/techo.c **** }
  63              		.loc 1 14 0
  64 0004 BD46     		mov	sp, r7
  65              		.cfi_def_cfa_register 13
  66              		@ sp needed
  67 0006 5DF8047B 		ldr	r7, [sp], #4
  68              		.cfi_restore 7
  69              		.cfi_def_cfa_offset 0
  70 000a 7047     		bx	lr
  71              		.cfi_endproc
  72              	.LFE0:
  74              		.align	2
  75              		.global	techo_shouldIlisten
  76              		.thumb
  77              		.thumb_func
  79              	techo_shouldIlisten:
  80              	.LFB1:
  15:build/OpenMote-CC2538_armgcc/openapps/techo/techo.c **** 
  16:build/OpenMote-CC2538_armgcc/openapps/techo/techo.c **** bool techo_shouldIlisten() {
  81              		.loc 1 16 0
  82              		.cfi_startproc
  83              		@ args = 0, pretend = 0, frame = 0
  84              		@ frame_needed = 1, uses_anonymous_args = 0
  85              		@ link register save eliminated.
  86 000c 80B4     		push	{r7}
  87              		.cfi_def_cfa_offset 4
  88              		.cfi_offset 7, -4
  89 000e 00AF     		add	r7, sp, #0
  90              		.cfi_def_cfa_register 7
  17:build/OpenMote-CC2538_armgcc/openapps/techo/techo.c ****    return TRUE;
  91              		.loc 1 17 0
  92 0010 0123     		movs	r3, #1
  18:build/OpenMote-CC2538_armgcc/openapps/techo/techo.c **** }
  93              		.loc 1 18 0
  94 0012 1846     		mov	r0, r3
  95 0014 BD46     		mov	sp, r7
  96              		.cfi_def_cfa_register 13
  97              		@ sp needed
  98 0016 5DF8047B 		ldr	r7, [sp], #4
  99              		.cfi_restore 7
 100              		.cfi_def_cfa_offset 0
 101 001a 7047     		bx	lr
 102              		.cfi_endproc
 103              	.LFE1:
 105              		.align	2
 106              		.global	techo_receive
 107              		.thumb
 108              		.thumb_func
 110              	techo_receive:
 111              	.LFB2:
  19:build/OpenMote-CC2538_armgcc/openapps/techo/techo.c **** 
  20:build/OpenMote-CC2538_armgcc/openapps/techo/techo.c **** void techo_receive(OpenQueueEntry_t* msg) {
 112              		.loc 1 20 0
 113              		.cfi_startproc
 114              		@ args = 0, pretend = 0, frame = 16
 115              		@ frame_needed = 1, uses_anonymous_args = 0
 116 001c 80B5     		push	{r7, lr}
 117              		.cfi_def_cfa_offset 8
 118              		.cfi_offset 7, -8
 119              		.cfi_offset 14, -4
 120 001e 84B0     		sub	sp, sp, #16
 121              		.cfi_def_cfa_offset 24
 122 0020 00AF     		add	r7, sp, #0
 123              		.cfi_def_cfa_register 7
 124 0022 7860     		str	r0, [r7, #4]
  21:build/OpenMote-CC2538_armgcc/openapps/techo/techo.c ****    uint16_t temp_l4_destination_port;
  22:build/OpenMote-CC2538_armgcc/openapps/techo/techo.c ****    msg->owner                     = COMPONENT_TECHO;
 125              		.loc 1 22 0
 126 0024 7B68     		ldr	r3, [r7, #4]
 127 0026 2122     		movs	r2, #33
 128 0028 5A70     		strb	r2, [r3, #1]
  23:build/OpenMote-CC2538_armgcc/openapps/techo/techo.c ****    //reply with the same OpenQueueEntry_t
  24:build/OpenMote-CC2538_armgcc/openapps/techo/techo.c ****    msg->creator                   = COMPONENT_TECHO;
 129              		.loc 1 24 0
 130 002a 7B68     		ldr	r3, [r7, #4]
 131 002c 2122     		movs	r2, #33
 132 002e 1A70     		strb	r2, [r3]
  25:build/OpenMote-CC2538_armgcc/openapps/techo/techo.c ****    msg->l4_protocol               = IANA_TCP;
 133              		.loc 1 25 0
 134 0030 7B68     		ldr	r3, [r7, #4]
 135 0032 0622     		movs	r2, #6
 136 0034 5A72     		strb	r2, [r3, #9]
  26:build/OpenMote-CC2538_armgcc/openapps/techo/techo.c ****    temp_l4_destination_port       = msg->l4_destination_port;
 137              		.loc 1 26 0
 138 0036 7B68     		ldr	r3, [r7, #4]
 139 0038 DB89     		ldrh	r3, [r3, #14]	@ movhi
 140 003a FB81     		strh	r3, [r7, #14]	@ movhi
  27:build/OpenMote-CC2538_armgcc/openapps/techo/techo.c ****    msg->l4_destination_port       = msg->l4_sourcePortORicmpv6Type;
 141              		.loc 1 27 0
 142 003c 7B68     		ldr	r3, [r7, #4]
 143 003e 9A89     		ldrh	r2, [r3, #12]
 144 0040 7B68     		ldr	r3, [r7, #4]
 145 0042 DA81     		strh	r2, [r3, #14]	@ movhi
  28:build/OpenMote-CC2538_armgcc/openapps/techo/techo.c ****    msg->l4_sourcePortORicmpv6Type = temp_l4_destination_port;
 146              		.loc 1 28 0
 147 0044 7B68     		ldr	r3, [r7, #4]
 148 0046 FA89     		ldrh	r2, [r7, #14]	@ movhi
 149 0048 9A81     		strh	r2, [r3, #12]	@ movhi
  29:build/OpenMote-CC2538_armgcc/openapps/techo/techo.c ****    if (opentcp_send(msg)==E_FAIL) {
 150              		.loc 1 29 0
 151 004a 7868     		ldr	r0, [r7, #4]
 152 004c FFF7FEFF 		bl	opentcp_send
 153 0050 0346     		mov	r3, r0
 154 0052 012B     		cmp	r3, #1
 155 0054 02D1     		bne	.L4
  30:build/OpenMote-CC2538_armgcc/openapps/techo/techo.c ****       openqueue_freePacketBuffer(msg);
 156              		.loc 1 30 0
 157 0056 7868     		ldr	r0, [r7, #4]
 158 0058 FFF7FEFF 		bl	openqueue_freePacketBuffer
 159              	.L4:
  31:build/OpenMote-CC2538_armgcc/openapps/techo/techo.c ****    }
  32:build/OpenMote-CC2538_armgcc/openapps/techo/techo.c **** }
 160              		.loc 1 32 0
 161 005c 1037     		adds	r7, r7, #16
 162              		.cfi_def_cfa_offset 8
 163 005e BD46     		mov	sp, r7
 164              		.cfi_def_cfa_register 13
 165              		@ sp needed
 166 0060 80BD     		pop	{r7, pc}
 167              		.cfi_endproc
 168              	.LFE2:
 170 0062 00BF     		.align	2
 171              		.global	techo_sendDone
 172              		.thumb
 173              		.thumb_func
 175              	techo_sendDone:
 176              	.LFB3:
  33:build/OpenMote-CC2538_armgcc/openapps/techo/techo.c **** 
  34:build/OpenMote-CC2538_armgcc/openapps/techo/techo.c **** void techo_sendDone(OpenQueueEntry_t* msg, owerror_t error) {
 177              		.loc 1 34 0
 178              		.cfi_startproc
 179              		@ args = 0, pretend = 0, frame = 8
 180              		@ frame_needed = 1, uses_anonymous_args = 0
 181 0064 80B5     		push	{r7, lr}
 182              		.cfi_def_cfa_offset 8
 183              		.cfi_offset 7, -8
 184              		.cfi_offset 14, -4
 185 0066 82B0     		sub	sp, sp, #8
 186              		.cfi_def_cfa_offset 16
 187 0068 00AF     		add	r7, sp, #0
 188              		.cfi_def_cfa_register 7
 189 006a 7860     		str	r0, [r7, #4]
 190 006c 0B46     		mov	r3, r1
 191 006e FB70     		strb	r3, [r7, #3]
  35:build/OpenMote-CC2538_armgcc/openapps/techo/techo.c ****    msg->owner = COMPONENT_TECHO;
 192              		.loc 1 35 0
 193 0070 7B68     		ldr	r3, [r7, #4]
 194 0072 2122     		movs	r2, #33
 195 0074 5A70     		strb	r2, [r3, #1]
  36:build/OpenMote-CC2538_armgcc/openapps/techo/techo.c ****    if (msg->creator!=COMPONENT_TECHO) {
 196              		.loc 1 36 0
 197 0076 7B68     		ldr	r3, [r7, #4]
 198 0078 1B78     		ldrb	r3, [r3]	@ zero_extendqisi2
 199 007a 212B     		cmp	r3, #33
 200 007c 05D0     		beq	.L7
  37:build/OpenMote-CC2538_armgcc/openapps/techo/techo.c ****       openserial_printError(COMPONENT_TECHO,ERR_UNEXPECTED_SENDDONE,
 201              		.loc 1 37 0
 202 007e 2120     		movs	r0, #33
 203 0080 2B21     		movs	r1, #43
 204 0082 0022     		movs	r2, #0
 205 0084 0023     		movs	r3, #0
 206 0086 FFF7FEFF 		bl	openserial_printError
 207              	.L7:
  38:build/OpenMote-CC2538_armgcc/openapps/techo/techo.c ****                             (errorparameter_t)0,
  39:build/OpenMote-CC2538_armgcc/openapps/techo/techo.c ****                             (errorparameter_t)0);
  40:build/OpenMote-CC2538_armgcc/openapps/techo/techo.c ****    }
  41:build/OpenMote-CC2538_armgcc/openapps/techo/techo.c ****    //close TCP session, but keep listening
  42:build/OpenMote-CC2538_armgcc/openapps/techo/techo.c ****    opentcp_close();
 208              		.loc 1 42 0
 209 008a FFF7FEFF 		bl	opentcp_close
  43:build/OpenMote-CC2538_armgcc/openapps/techo/techo.c ****    openqueue_freePacketBuffer(msg);
 210              		.loc 1 43 0
 211 008e 7868     		ldr	r0, [r7, #4]
 212 0090 FFF7FEFF 		bl	openqueue_freePacketBuffer
  44:build/OpenMote-CC2538_armgcc/openapps/techo/techo.c **** }
 213              		.loc 1 44 0
 214 0094 0837     		adds	r7, r7, #8
 215              		.cfi_def_cfa_offset 8
 216 0096 BD46     		mov	sp, r7
 217              		.cfi_def_cfa_register 13
 218              		@ sp needed
 219 0098 80BD     		pop	{r7, pc}
 220              		.cfi_endproc
 221              	.LFE3:
 223 009a 00BF     		.align	2
 224              		.global	techo_connectDone
 225              		.thumb
 226              		.thumb_func
 228              	techo_connectDone:
 229              	.LFB4:
  45:build/OpenMote-CC2538_armgcc/openapps/techo/techo.c **** 
  46:build/OpenMote-CC2538_armgcc/openapps/techo/techo.c **** void techo_connectDone(owerror_t error) {
 230              		.loc 1 46 0
 231              		.cfi_startproc
 232              		@ args = 0, pretend = 0, frame = 8
 233              		@ frame_needed = 1, uses_anonymous_args = 0
 234              		@ link register save eliminated.
 235 009c 80B4     		push	{r7}
 236              		.cfi_def_cfa_offset 4
 237              		.cfi_offset 7, -4
 238 009e 83B0     		sub	sp, sp, #12
 239              		.cfi_def_cfa_offset 16
 240 00a0 00AF     		add	r7, sp, #0
 241              		.cfi_def_cfa_register 7
 242 00a2 0346     		mov	r3, r0
 243 00a4 FB71     		strb	r3, [r7, #7]
  47:build/OpenMote-CC2538_armgcc/openapps/techo/techo.c **** }
 244              		.loc 1 47 0
 245 00a6 0C37     		adds	r7, r7, #12
 246              		.cfi_def_cfa_offset 4
 247 00a8 BD46     		mov	sp, r7
 248              		.cfi_def_cfa_register 13
 249              		@ sp needed
 250 00aa 5DF8047B 		ldr	r7, [sp], #4
 251              		.cfi_restore 7
 252              		.cfi_def_cfa_offset 0
 253 00ae 7047     		bx	lr
 254              		.cfi_endproc
 255              	.LFE4:
 257              		.align	2
 258              		.global	techo_debugPrint
 259              		.thumb
 260              		.thumb_func
 262              	techo_debugPrint:
 263              	.LFB5:
  48:build/OpenMote-CC2538_armgcc/openapps/techo/techo.c **** 
  49:build/OpenMote-CC2538_armgcc/openapps/techo/techo.c **** bool techo_debugPrint() {
 264              		.loc 1 49 0
 265              		.cfi_startproc
 266              		@ args = 0, pretend = 0, frame = 0
 267              		@ frame_needed = 1, uses_anonymous_args = 0
 268              		@ link register save eliminated.
 269 00b0 80B4     		push	{r7}
 270              		.cfi_def_cfa_offset 4
 271              		.cfi_offset 7, -4
 272 00b2 00AF     		add	r7, sp, #0
 273              		.cfi_def_cfa_register 7
  50:build/OpenMote-CC2538_armgcc/openapps/techo/techo.c ****    return FALSE;
 274              		.loc 1 50 0
 275 00b4 0023     		movs	r3, #0
  51:build/OpenMote-CC2538_armgcc/openapps/techo/techo.c **** }
 276              		.loc 1 51 0
 277 00b6 1846     		mov	r0, r3
 278 00b8 BD46     		mov	sp, r7
 279              		.cfi_def_cfa_register 13
 280              		@ sp needed
 281 00ba 5DF8047B 		ldr	r7, [sp], #4
 282              		.cfi_restore 7
 283              		.cfi_def_cfa_offset 0
 284 00be 7047     		bx	lr
 285              		.cfi_endproc
 286              	.LFE5:
 288              	.Letext0:
 289              		.file 2 "/usr/arm-none-eabi/include/machine/_default_types.h"
 290              		.file 3 "/usr/arm-none-eabi/include/sys/_stdint.h"
 291              		.file 4 "inc/opendefs.h"
 292              		.file 5 "bsp/boards/OpenMote-CC2538/board_info.h"