   1              		.syntax unified
   2              		.cpu cortex-m3
   3              		.fpu softvfp
   4              		.eabi_attribute 20, 1
   5              		.eabi_attribute 21, 1
   6              		.eabi_attribute 23, 3
   7              		.eabi_attribute 24, 1
   8              		.eabi_attribute 25, 1
   9              		.eabi_attribute 26, 1
  10              		.eabi_attribute 30, 6
  11              		.eabi_attribute 34, 1
  12              		.eabi_attribute 18, 4
  13              		.thumb
  14              		.file	"otf.c"
  15              		.text
  16              	.Ltext0:
  17              		.cfi_sections	.debug_frame
  18              		.section	.rodata
  19              		.align	2
  22              	rreg_uriquery:
  23 0000 683D7563 		.ascii	"h=ucb\000"
  23      6200
  24 0006 0000     		.align	2
  27              	infoBoardname:
  28 0008 43433235 		.ascii	"CC2538\000"
  28      333800
  29 000f 00       		.align	2
  32              	infouCName:
  33 0010 43433235 		.ascii	"CC2538\000"
  33      333800
  34 0017 00       		.align	2
  37              	infoRadioName:
  38 0018 43433235 		.ascii	"CC2538 SoC\000"
  38      33382053 
  38      6F4300
  39 0023 00       		.align	2
  42              	infoStackName:
  43 0024 4F70656E 		.ascii	"OpenWSN \000"
  43      57534E20 
  43      00
  44 002d 000000   		.align	2
  47              	all_routers_multicast:
  48 0030 FF       		.byte	-1
  49 0031 02       		.byte	2
  50 0032 00       		.byte	0
  51 0033 00       		.byte	0
  52 0034 00       		.byte	0
  53 0035 00       		.byte	0
  54 0036 00       		.byte	0
  55 0037 00       		.byte	0
  56 0038 00       		.byte	0
  57 0039 00       		.byte	0
  58 003a 00       		.byte	0
  59 003b 00       		.byte	0
  60 003c 00       		.byte	0
  61 003d 00       		.byte	0
  62 003e 00       		.byte	0
  63 003f 1A       		.byte	26
  64              		.text
  65              		.align	2
  66              		.global	otf_init
  67              		.thumb
  68              		.thumb_func
  70              	otf_init:
  71              	.LFB0:
  72              		.file 1 "build/OpenMote-CC2538_armgcc/openstack/02b-MAChigh/otf.c"
   1:build/OpenMote-CC2538_armgcc/openstack/02b-MAChigh/otf.c **** #include "opendefs.h"
   2:build/OpenMote-CC2538_armgcc/openstack/02b-MAChigh/otf.c **** #include "otf.h"
   3:build/OpenMote-CC2538_armgcc/openstack/02b-MAChigh/otf.c **** #include "neighbors.h"
   4:build/OpenMote-CC2538_armgcc/openstack/02b-MAChigh/otf.c **** #include "sixtop.h"
   5:build/OpenMote-CC2538_armgcc/openstack/02b-MAChigh/otf.c **** #include "scheduler.h"
   6:build/OpenMote-CC2538_armgcc/openstack/02b-MAChigh/otf.c **** 
   7:build/OpenMote-CC2538_armgcc/openstack/02b-MAChigh/otf.c **** //=========================== variables =======================================
   8:build/OpenMote-CC2538_armgcc/openstack/02b-MAChigh/otf.c **** 
   9:build/OpenMote-CC2538_armgcc/openstack/02b-MAChigh/otf.c **** //=========================== prototypes ======================================
  10:build/OpenMote-CC2538_armgcc/openstack/02b-MAChigh/otf.c **** 
  11:build/OpenMote-CC2538_armgcc/openstack/02b-MAChigh/otf.c **** void otf_addCell_task(void);
  12:build/OpenMote-CC2538_armgcc/openstack/02b-MAChigh/otf.c **** void otf_removeCell_task(void);
  13:build/OpenMote-CC2538_armgcc/openstack/02b-MAChigh/otf.c **** 
  14:build/OpenMote-CC2538_armgcc/openstack/02b-MAChigh/otf.c **** //=========================== public ==========================================
  15:build/OpenMote-CC2538_armgcc/openstack/02b-MAChigh/otf.c **** 
  16:build/OpenMote-CC2538_armgcc/openstack/02b-MAChigh/otf.c **** void otf_init(void) {
  73              		.loc 1 16 0
  74              		.cfi_startproc
  75              		@ args = 0, pretend = 0, frame = 0
  76              		@ frame_needed = 1, uses_anonymous_args = 0
  77              		@ link register save eliminated.
  78 0000 80B4     		push	{r7}
  79              		.cfi_def_cfa_offset 4
  80              		.cfi_offset 7, -4
  81 0002 00AF     		add	r7, sp, #0
  82              		.cfi_def_cfa_register 7
  17:build/OpenMote-CC2538_armgcc/openstack/02b-MAChigh/otf.c **** }
  83              		.loc 1 17 0
  84 0004 BD46     		mov	sp, r7
  85              		.cfi_def_cfa_register 13
  86              		@ sp needed
  87 0006 5DF8047B 		ldr	r7, [sp], #4
  88              		.cfi_restore 7
  89              		.cfi_def_cfa_offset 0
  90 000a 7047     		bx	lr
  91              		.cfi_endproc
  92              	.LFE0:
  94              		.align	2
  95              		.global	otf_notif_addedCell
  96              		.thumb
  97              		.thumb_func
  99              	otf_notif_addedCell:
 100              	.LFB1:
  18:build/OpenMote-CC2538_armgcc/openstack/02b-MAChigh/otf.c **** 
  19:build/OpenMote-CC2538_armgcc/openstack/02b-MAChigh/otf.c **** void otf_notif_addedCell(void) {
 101              		.loc 1 19 0
 102              		.cfi_startproc
 103              		@ args = 0, pretend = 0, frame = 0
 104              		@ frame_needed = 1, uses_anonymous_args = 0
 105 000c 80B5     		push	{r7, lr}
 106              		.cfi_def_cfa_offset 8
 107              		.cfi_offset 7, -8
 108              		.cfi_offset 14, -4
 109 000e 00AF     		add	r7, sp, #0
 110              		.cfi_def_cfa_register 7
  20:build/OpenMote-CC2538_armgcc/openstack/02b-MAChigh/otf.c ****    scheduler_push_task(otf_addCell_task,TASKPRIO_OTF);
 111              		.loc 1 20 0
 112 0010 0248     		ldr	r0, .L3
 113 0012 0821     		movs	r1, #8
 114 0014 FFF7FEFF 		bl	scheduler_push_task
  21:build/OpenMote-CC2538_armgcc/openstack/02b-MAChigh/otf.c **** }
 115              		.loc 1 21 0
 116 0018 80BD     		pop	{r7, pc}
 117              	.L4:
 118 001a 00BF     		.align	2
 119              	.L3:
 120 001c 00000000 		.word	otf_addCell_task
 121              		.cfi_endproc
 122              	.LFE1:
 124              		.align	2
 125              		.global	otf_notif_removedCell
 126              		.thumb
 127              		.thumb_func
 129              	otf_notif_removedCell:
 130              	.LFB2:
  22:build/OpenMote-CC2538_armgcc/openstack/02b-MAChigh/otf.c **** 
  23:build/OpenMote-CC2538_armgcc/openstack/02b-MAChigh/otf.c **** void otf_notif_removedCell(void) {
 131              		.loc 1 23 0
 132              		.cfi_startproc
 133              		@ args = 0, pretend = 0, frame = 0
 134              		@ frame_needed = 1, uses_anonymous_args = 0
 135 0020 80B5     		push	{r7, lr}
 136              		.cfi_def_cfa_offset 8
 137              		.cfi_offset 7, -8
 138              		.cfi_offset 14, -4
 139 0022 00AF     		add	r7, sp, #0
 140              		.cfi_def_cfa_register 7
  24:build/OpenMote-CC2538_armgcc/openstack/02b-MAChigh/otf.c ****    scheduler_push_task(otf_removeCell_task,TASKPRIO_OTF);
 141              		.loc 1 24 0
 142 0024 0248     		ldr	r0, .L6
 143 0026 0821     		movs	r1, #8
 144 0028 FFF7FEFF 		bl	scheduler_push_task
  25:build/OpenMote-CC2538_armgcc/openstack/02b-MAChigh/otf.c **** }
 145              		.loc 1 25 0
 146 002c 80BD     		pop	{r7, pc}
 147              	.L7:
 148 002e 00BF     		.align	2
 149              	.L6:
 150 0030 00000000 		.word	otf_removeCell_task
 151              		.cfi_endproc
 152              	.LFE2:
 154              		.align	2
 155              		.global	otf_addCell_task
 156              		.thumb
 157              		.thumb_func
 159              	otf_addCell_task:
 160              	.LFB3:
  26:build/OpenMote-CC2538_armgcc/openstack/02b-MAChigh/otf.c **** 
  27:build/OpenMote-CC2538_armgcc/openstack/02b-MAChigh/otf.c **** //=========================== private =========================================
  28:build/OpenMote-CC2538_armgcc/openstack/02b-MAChigh/otf.c **** 
  29:build/OpenMote-CC2538_armgcc/openstack/02b-MAChigh/otf.c **** void otf_addCell_task(void) {
 161              		.loc 1 29 0
 162              		.cfi_startproc
 163              		@ args = 0, pretend = 0, frame = 24
 164              		@ frame_needed = 1, uses_anonymous_args = 0
 165 0034 80B5     		push	{r7, lr}
 166              		.cfi_def_cfa_offset 8
 167              		.cfi_offset 7, -8
 168              		.cfi_offset 14, -4
 169 0036 86B0     		sub	sp, sp, #24
 170              		.cfi_def_cfa_offset 32
 171 0038 00AF     		add	r7, sp, #0
 172              		.cfi_def_cfa_register 7
  30:build/OpenMote-CC2538_armgcc/openstack/02b-MAChigh/otf.c ****    open_addr_t          neighbor;
  31:build/OpenMote-CC2538_armgcc/openstack/02b-MAChigh/otf.c ****    bool                 foundNeighbor;
  32:build/OpenMote-CC2538_armgcc/openstack/02b-MAChigh/otf.c ****    
  33:build/OpenMote-CC2538_armgcc/openstack/02b-MAChigh/otf.c ****    // get preferred parent
  34:build/OpenMote-CC2538_armgcc/openstack/02b-MAChigh/otf.c ****    foundNeighbor = neighbors_getPreferredParentEui64(&neighbor);
 173              		.loc 1 34 0
 174 003a 3B1D     		adds	r3, r7, #4
 175 003c 1846     		mov	r0, r3
 176 003e FFF7FEFF 		bl	neighbors_getPreferredParentEui64
 177 0042 0346     		mov	r3, r0
 178 0044 FB75     		strb	r3, [r7, #23]
  35:build/OpenMote-CC2538_armgcc/openstack/02b-MAChigh/otf.c ****    if (foundNeighbor==FALSE) {
 179              		.loc 1 35 0
 180 0046 FB7D     		ldrb	r3, [r7, #23]
 181 0048 83F00103 		eor	r3, r3, #1
 182 004c DBB2     		uxtb	r3, r3
 183 004e 002B     		cmp	r3, #0
 184 0050 08D1     		bne	.L8
  36:build/OpenMote-CC2538_armgcc/openstack/02b-MAChigh/otf.c ****       return;
  37:build/OpenMote-CC2538_armgcc/openstack/02b-MAChigh/otf.c ****    }
  38:build/OpenMote-CC2538_armgcc/openstack/02b-MAChigh/otf.c ****    
  39:build/OpenMote-CC2538_armgcc/openstack/02b-MAChigh/otf.c ****    sixtop_setHandler(SIX_HANDLER_OTF);
 185              		.loc 1 39 0
 186 0052 0220     		movs	r0, #2
 187 0054 FFF7FEFF 		bl	sixtop_setHandler
  40:build/OpenMote-CC2538_armgcc/openstack/02b-MAChigh/otf.c ****    // call sixtop
  41:build/OpenMote-CC2538_armgcc/openstack/02b-MAChigh/otf.c ****    sixtop_request(
 188              		.loc 1 41 0
 189 0058 3B1D     		adds	r3, r7, #4
 190 005a 0120     		movs	r0, #1
 191 005c 1946     		mov	r1, r3
 192 005e 0122     		movs	r2, #1
 193 0060 FFF7FEFF 		bl	sixtop_request
 194              	.L8:
  42:build/OpenMote-CC2538_armgcc/openstack/02b-MAChigh/otf.c ****       IANA_6TOP_CMD_ADD,
  43:build/OpenMote-CC2538_armgcc/openstack/02b-MAChigh/otf.c ****       &neighbor,
  44:build/OpenMote-CC2538_armgcc/openstack/02b-MAChigh/otf.c ****       1
  45:build/OpenMote-CC2538_armgcc/openstack/02b-MAChigh/otf.c ****    );
  46:build/OpenMote-CC2538_armgcc/openstack/02b-MAChigh/otf.c **** }
 195              		.loc 1 46 0
 196 0064 1837     		adds	r7, r7, #24
 197              		.cfi_def_cfa_offset 8
 198 0066 BD46     		mov	sp, r7
 199              		.cfi_def_cfa_register 13
 200              		@ sp needed
 201 0068 80BD     		pop	{r7, pc}
 202              		.cfi_endproc
 203              	.LFE3:
 205 006a 00BF     		.align	2
 206              		.global	otf_removeCell_task
 207              		.thumb
 208              		.thumb_func
 210              	otf_removeCell_task:
 211              	.LFB4:
  47:build/OpenMote-CC2538_armgcc/openstack/02b-MAChigh/otf.c **** 
  48:build/OpenMote-CC2538_armgcc/openstack/02b-MAChigh/otf.c **** void otf_removeCell_task(void) {
 212              		.loc 1 48 0
 213              		.cfi_startproc
 214              		@ args = 0, pretend = 0, frame = 24
 215              		@ frame_needed = 1, uses_anonymous_args = 0
 216 006c 80B5     		push	{r7, lr}
 217              		.cfi_def_cfa_offset 8
 218              		.cfi_offset 7, -8
 219              		.cfi_offset 14, -4
 220 006e 86B0     		sub	sp, sp, #24
 221              		.cfi_def_cfa_offset 32
 222 0070 00AF     		add	r7, sp, #0
 223              		.cfi_def_cfa_register 7
  49:build/OpenMote-CC2538_armgcc/openstack/02b-MAChigh/otf.c ****    open_addr_t          neighbor;
  50:build/OpenMote-CC2538_armgcc/openstack/02b-MAChigh/otf.c ****    bool                 foundNeighbor;
  51:build/OpenMote-CC2538_armgcc/openstack/02b-MAChigh/otf.c ****    
  52:build/OpenMote-CC2538_armgcc/openstack/02b-MAChigh/otf.c ****    // get preferred parent
  53:build/OpenMote-CC2538_armgcc/openstack/02b-MAChigh/otf.c ****    foundNeighbor = neighbors_getPreferredParentEui64(&neighbor);
 224              		.loc 1 53 0
 225 0072 3B1D     		adds	r3, r7, #4
 226 0074 1846     		mov	r0, r3
 227 0076 FFF7FEFF 		bl	neighbors_getPreferredParentEui64
 228 007a 0346     		mov	r3, r0
 229 007c FB75     		strb	r3, [r7, #23]
  54:build/OpenMote-CC2538_armgcc/openstack/02b-MAChigh/otf.c ****    if (foundNeighbor==FALSE) {
 230              		.loc 1 54 0
 231 007e FB7D     		ldrb	r3, [r7, #23]
 232 0080 83F00103 		eor	r3, r3, #1
 233 0084 DBB2     		uxtb	r3, r3
 234 0086 002B     		cmp	r3, #0
 235 0088 08D1     		bne	.L11
  55:build/OpenMote-CC2538_armgcc/openstack/02b-MAChigh/otf.c ****       return;
  56:build/OpenMote-CC2538_armgcc/openstack/02b-MAChigh/otf.c ****    }
  57:build/OpenMote-CC2538_armgcc/openstack/02b-MAChigh/otf.c ****    
  58:build/OpenMote-CC2538_armgcc/openstack/02b-MAChigh/otf.c ****    sixtop_setHandler(SIX_HANDLER_OTF);
 236              		.loc 1 58 0
 237 008a 0220     		movs	r0, #2
 238 008c FFF7FEFF 		bl	sixtop_setHandler
  59:build/OpenMote-CC2538_armgcc/openstack/02b-MAChigh/otf.c ****    // call sixtop
  60:build/OpenMote-CC2538_armgcc/openstack/02b-MAChigh/otf.c ****    sixtop_request(
 239              		.loc 1 60 0
 240 0090 3B1D     		adds	r3, r7, #4
 241 0092 0220     		movs	r0, #2
 242 0094 1946     		mov	r1, r3
 243 0096 0122     		movs	r2, #1
 244 0098 FFF7FEFF 		bl	sixtop_request
 245              	.L11:
  61:build/OpenMote-CC2538_armgcc/openstack/02b-MAChigh/otf.c ****       IANA_6TOP_CMD_DELETE,
  62:build/OpenMote-CC2538_armgcc/openstack/02b-MAChigh/otf.c ****       &neighbor,
  63:build/OpenMote-CC2538_armgcc/openstack/02b-MAChigh/otf.c ****       1
  64:build/OpenMote-CC2538_armgcc/openstack/02b-MAChigh/otf.c ****    );
  65:build/OpenMote-CC2538_armgcc/openstack/02b-MAChigh/otf.c **** }...
 246              		.loc 1 65 0
 247 009c 1837     		adds	r7, r7, #24
 248              		.cfi_def_cfa_offset 8
 249 009e BD46     		mov	sp, r7
 250              		.cfi_def_cfa_register 13
 251              		@ sp needed
 252 00a0 80BD     		pop	{r7, pc}
 253              		.cfi_endproc
 254              	.LFE4:
 256              	.Letext0:
 257              		.file 2 "/usr/arm-none-eabi/include/machine/_default_types.h"
 258              		.file 3 "/usr/arm-none-eabi/include/sys/_stdint.h"
 259              		.file 4 "inc/opendefs.h"
 260              		.file 5 "build/OpenMote-CC2538_armgcc/openstack/02b-MAChigh/sixtop.h"
 261              		.file 6 "kernel/scheduler.h"
 262              		.file 7 "bsp/boards/OpenMote-CC2538/board_info.h"
 263              		.file 8 "openstack/03b-IPv6/icmpv6rpl.h"
DEFINED SYMBOLS
                            *ABS*:0000000000000000 otf.c
     /tmp/ccl3IixD.s:19     .rodata:0000000000000000 $d
     /tmp/ccl3IixD.s:22     .rodata:0000000000000000 rreg_uriquery
     /tmp/ccl3IixD.s:27     .rodata:0000000000000008 infoBoardname
     /tmp/ccl3IixD.s:32     .rodata:0000000000000010 infouCName
     /tmp/ccl3IixD.s:37     .rodata:0000000000000018 infoRadioName
     /tmp/ccl3IixD.s:42     .rodata:0000000000000024 infoStackName
     /tmp/ccl3IixD.s:47     .rodata:0000000000000030 all_routers_multicast
     /tmp/ccl3IixD.s:65     .text:0000000000000000 $t
     /tmp/ccl3IixD.s:70     .text:0000000000000000 otf_init
     /tmp/ccl3IixD.s:99     .text:000000000000000c otf_notif_addedCell
     /tmp/ccl3IixD.s:120    .text:000000000000001c $d
     /tmp/ccl3IixD.s:159    .text:0000000000000034 otf_addCell_task
     /tmp/ccl3IixD.s:124    .text:0000000000000020 $t
     /tmp/ccl3IixD.s:129    .text:0000000000000020 otf_notif_removedCell
     /tmp/ccl3IixD.s:150    .text:0000000000000030 $d
     /tmp/ccl3IixD.s:210    .text:000000000000006c otf_removeCell_task
     /tmp/ccl3IixD.s:154    .text:0000000000000034 $t
                     .debug_frame:0000000000000010 $d
                           .group:0000000000000000 wm4.0.59116071098782a37a9183a8102fe91b
                           .group:0000000000000000 wm4.features.h.22.2e382148a0560adabf236cddd4e880f4
                           .group:0000000000000000 wm4._default_types.h.15.933e8edd27a65e0b69af4a865eb623d2
                           .group:0000000000000000 wm4._intsup.h.10.35a45952db64d30146faa63a55c20c1c
                           .group:0000000000000000 wm4._stdint.h.10.f76354baea1c7088202064e6f3d4f5e3
                           .group:0000000000000000 wm4.stdint.h.23.373a9d32a9e4c2e88fd347156532d281
                           .group:0000000000000000 wm4.toolchain_defs.h.2.e4ebbe6e0a48032a9b79077dc42e1ffd
                           .group:0000000000000000 wm4.newlib.h.8.2702bca278809460f0af6fba1d84eb68
                           .group:0000000000000000 wm4.config.h.220.a09b0b0de3c25be3f39d71990e617bff
                           .group:0000000000000000 wm4._ansi.h.23.84af8eb8cd468d25cc5f45f5eb13ec51
                           .group:0000000000000000 wm4.stddef.h.39.daafd3d79fe2f3a84d2d73d7d4e706f8
                           .group:0000000000000000 wm4.lock.h.2.9bc98482741e5e2a9450b12934a684ea
                           .group:0000000000000000 wm4._types.h.54.d3d34a3b7f3cc230cd159baf022b4b08
                           .group:0000000000000000 wm4.stddef.h.158.61317cdbfb4026324507d123a50b0fd6
                           .group:0000000000000000 wm4.reent.h.17.8bd9e4098e0428508c282cad794fae43
                           .group:0000000000000000 wm4.cdefs.h.47.e6563c1c3863188ba4ac4eaa2c85b6f1
                           .group:0000000000000000 wm4.string.h.15.dab3980bf35408a4c507182805e2de3a
                           .group:0000000000000000 wm4.stddef.h.158.a7efb00f6cbc6f43213b50e183c9830c
                           .group:0000000000000000 wm4.stdbool.h.29.1c9ee6859ce8145f7838a4f2549ccec2
                           .group:0000000000000000 wm4.hw_types.h.67.b10589a0806dcc2d274d6fab6b736519
                           .group:0000000000000000 wm4.interrupt.h.41.272fc4ec0e276feb439e7974d0f77eaf
                           .group:0000000000000000 wm4.board_info.h.22.aeb00002354a4949fff54190040e37af
                           .group:0000000000000000 wm4.opendefs.h.23.bdaf9c024be66ead04de21e3ce3dfaf2
                           .group:0000000000000000 wm4.opentimers.h.8.044f2d040a134cdb0ddb58adfc2508be
                           .group:0000000000000000 wm4.icmpv6rpl.h.15.0573bca2230f8b0d62a096dd795549d0
                           .group:0000000000000000 wm4.neighbors.h.15.9f35f180a0332d1bc442efb0ec51905c
                           .group:0000000000000000 wm4.processIE.h.2.08a2f2ba75e9146930605c9ce967d701
                           .group:0000000000000000 wm4.sixtop.h.16.86500a0bb0402cd2ae7c7334d9c87a2b
                           .group:0000000000000000 wm4.scheduler.h.2.d8d85f436d0d4b3991926a15b8490cf4

UNDEFINED SYMBOLS
scheduler_push_task
neighbors_getPreferredParentEui64
sixtop_setHandler
sixtop_request
