   1              		.syntax unified
   2              		.cpu cortex-m3
   3              		.fpu softvfp
   4              		.eabi_attribute 20, 1
   5              		.eabi_attribute 21, 1
   6              		.eabi_attribute 23, 3
   7              		.eabi_attribute 24, 1
   8              		.eabi_attribute 25, 1
   9              		.eabi_attribute 26, 1
  10              		.eabi_attribute 30, 6
  11              		.eabi_attribute 34, 1
  12              		.eabi_attribute 18, 4
  13              		.thumb
  14              		.file	"firmware_crypto_engine.c"
  15              		.text
  16              	.Ltext0:
  17              		.cfi_sections	.debug_frame
  18              		.section	.rodata
  19              		.align	2
  22              	rreg_uriquery:
  23 0000 683D7563 		.ascii	"h=ucb\000"
  23      6200
  24 0006 0000     		.align	2
  27              	infoBoardname:
  28 0008 43433235 		.ascii	"CC2538\000"
  28      333800
  29 000f 00       		.align	2
  32              	infouCName:
  33 0010 43433235 		.ascii	"CC2538\000"
  33      333800
  34 0017 00       		.align	2
  37              	infoRadioName:
  38 0018 43433235 		.ascii	"CC2538 SoC\000"
  38      33382053 
  38      6F4300
  39 0023 00       		.align	2
  42              	infoStackName:
  43 0024 4F70656E 		.ascii	"OpenWSN \000"
  43      57534E20 
  43      00
  44              		.text
  45              		.align	2
  46              		.thumb
  47              		.thumb_func
  49              	init:
  50              	.LFB0:
  51              		.file 1 "build/OpenMote-CC2538_armgcc/bsp/boards/common/firmware_crypto_engine.c"
   1:build/OpenMote-CC2538_armgcc/bsp/boards/common/firmware_crypto_engine.c **** /**
   2:build/OpenMote-CC2538_armgcc/bsp/boards/common/firmware_crypto_engine.c **** \brief Crypto engine initialization
   3:build/OpenMote-CC2538_armgcc/bsp/boards/common/firmware_crypto_engine.c ****   
   4:build/OpenMote-CC2538_armgcc/bsp/boards/common/firmware_crypto_engine.c **** \author Marcelo Barros de Almeida <marcelobarrosalmeida@gmail.com>, March 2015.
   5:build/OpenMote-CC2538_armgcc/bsp/boards/common/firmware_crypto_engine.c **** \author Malisa Vucinic <malishav@gmail.com>, March 2015.
   6:build/OpenMote-CC2538_armgcc/bsp/boards/common/firmware_crypto_engine.c **** */
   7:build/OpenMote-CC2538_armgcc/bsp/boards/common/firmware_crypto_engine.c **** #include <stdint.h>
   8:build/OpenMote-CC2538_armgcc/bsp/boards/common/firmware_crypto_engine.c **** #include <string.h>
   9:build/OpenMote-CC2538_armgcc/bsp/boards/common/firmware_crypto_engine.c **** #include "opendefs.h"
  10:build/OpenMote-CC2538_armgcc/bsp/boards/common/firmware_crypto_engine.c **** #include "firmware_crypto_engine.h"
  11:build/OpenMote-CC2538_armgcc/bsp/boards/common/firmware_crypto_engine.c **** #include "aes_ccms.h"
  12:build/OpenMote-CC2538_armgcc/bsp/boards/common/firmware_crypto_engine.c **** #include "aes_ctr.h"
  13:build/OpenMote-CC2538_armgcc/bsp/boards/common/firmware_crypto_engine.c **** #include "aes_cbc.h"
  14:build/OpenMote-CC2538_armgcc/bsp/boards/common/firmware_crypto_engine.c **** #include "aes_ecb.h"
  15:build/OpenMote-CC2538_armgcc/bsp/boards/common/firmware_crypto_engine.c **** 
  16:build/OpenMote-CC2538_armgcc/bsp/boards/common/firmware_crypto_engine.c **** static owerror_t init(void) {
  52              		.loc 1 16 0
  53              		.cfi_startproc
  54              		@ args = 0, pretend = 0, frame = 0
  55              		@ frame_needed = 1, uses_anonymous_args = 0
  56              		@ link register save eliminated.
  57 0000 80B4     		push	{r7}
  58              		.cfi_def_cfa_offset 4
  59              		.cfi_offset 7, -4
  60 0002 00AF     		add	r7, sp, #0
  61              		.cfi_def_cfa_register 7
  17:build/OpenMote-CC2538_armgcc/bsp/boards/common/firmware_crypto_engine.c ****    return E_SUCCESS;
  62              		.loc 1 17 0
  63 0004 0023     		movs	r3, #0
  18:build/OpenMote-CC2538_armgcc/bsp/boards/common/firmware_crypto_engine.c **** }
  64              		.loc 1 18 0
  65 0006 1846     		mov	r0, r3
  66 0008 BD46     		mov	sp, r7
  67              		.cfi_def_cfa_register 13
  68              		@ sp needed
  69 000a 5DF8047B 		ldr	r7, [sp], #4
  70              		.cfi_restore 7
  71              		.cfi_def_cfa_offset 0
  72 000e 7047     		bx	lr
  73              		.cfi_endproc
  74              	.LFE0:
  76              		.global	firmware_crypto_engine
  77              		.section	.rodata
  78 002d 000000   		.align	2
  81              	firmware_crypto_engine:
  82 0030 00000000 		.word	aes_ccms_enc
  83 0034 00000000 		.word	aes_ccms_dec
  84 0038 00000000 		.word	aes_cbc_enc_raw
  85 003c 00000000 		.word	aes_ctr_enc_raw
  86 0040 00000000 		.word	aes_ecb_enc
  87 0044 00000000 		.word	init
  88              		.text
  89              	.Letext0:
  90              		.file 2 "/usr/arm-none-eabi/include/machine/_default_types.h"
  91              		.file 3 "/usr/arm-none-eabi/include/sys/_stdint.h"
  92              		.file 4 "inc/opendefs.h"
  93              		.file 5 "bsp/boards/crypto_engine.h"
  94              		.file 6 "bsp/boards/OpenMote-CC2538/board_info.h"