   1              		.syntax unified
   2              		.cpu cortex-m3
   3              		.fpu softvfp
   4              		.eabi_attribute 20, 1
   5              		.eabi_attribute 21, 1
   6              		.eabi_attribute 23, 3
   7              		.eabi_attribute 24, 1
   8              		.eabi_attribute 25, 1
   9              		.eabi_attribute 26, 1
  10              		.eabi_attribute 30, 6
  11              		.eabi_attribute 34, 1
  12              		.eabi_attribute 18, 4
  13              		.thumb
  14              		.file	"cinfo.c"
  15              		.text
  16              	.Ltext0:
  17              		.cfi_sections	.debug_frame
  18              		.section	.rodata
  19              		.align	2
  22              	rreg_uriquery:
  23 0000 683D7563 		.ascii	"h=ucb\000"
  23      6200
  24 0006 0000     		.align	2
  27              	infoBoardname:
  28 0008 43433235 		.ascii	"CC2538\000"
  28      333800
  29 000f 00       		.align	2
  32              	infouCName:
  33 0010 43433235 		.ascii	"CC2538\000"
  33      333800
  34 0017 00       		.align	2
  37              	infoRadioName:
  38 0018 43433235 		.ascii	"CC2538 SoC\000"
  38      33382053 
  38      6F4300
  39 0023 00       		.align	2
  42              	infoStackName:
  43 0024 4F70656E 		.ascii	"OpenWSN \000"
  43      57534E20 
  43      00
  44 002d 000000   		.align	2
  47              	ipAddr_ipsoRD:
  48 0030 26       		.byte	38
  49 0031 07       		.byte	7
  50 0032 F7       		.byte	-9
  51 0033 40       		.byte	64
  52 0034 00       		.byte	0
  53 0035 00       		.byte	0
  54 0036 00       		.byte	0
  55 0037 3F       		.byte	63
  56 0038 00       		.byte	0
  57 0039 00       		.byte	0
  58 003a 00       		.byte	0
  59 003b 00       		.byte	0
  60 003c 00       		.byte	0
  61 003d 00       		.byte	0
  62 003e 0E       		.byte	14
  63 003f 29       		.byte	41
  64              		.align	2
  67              	ipAddr_motesEecs:
  68 0040 20       		.byte	32
  69 0041 01       		.byte	1
  70 0042 04       		.byte	4
  71 0043 70       		.byte	112
  72 0044 00       		.byte	0
  73 0045 66       		.byte	102
  74 0046 00       		.byte	0
  75 0047 19       		.byte	25
  76 0048 00       		.byte	0
  77 0049 00       		.byte	0
  78 004a 00       		.byte	0
  79 004b 00       		.byte	0
  80 004c 00       		.byte	0
  81 004d 00       		.byte	0
  82 004e 00       		.byte	0
  83 004f 02       		.byte	2
  84              		.align	2
  87              	ipAddr_local:
  88 0050 26       		.byte	38
  89 0051 07       		.byte	7
  90 0052 F1       		.byte	-15
  91 0053 40       		.byte	64
  92 0054 04       		.byte	4
  93 0055 00       		.byte	0
  94 0056 10       		.byte	16
  95 0057 36       		.byte	54
  96 0058 4D       		.byte	77
  97 0059 CD       		.byte	-51
  98 005a AB       		.byte	-85
  99 005b 54       		.byte	84
 100 005c 81       		.byte	-127
 101 005d 99       		.byte	-103
 102 005e C1       		.byte	-63
 103 005f F7       		.byte	-9
 104              		.align	2
 107              	ipAddr_motedata:
 108 0060 20       		.byte	32
 109 0061 01       		.byte	1
 110 0062 04       		.byte	4
 111 0063 70       		.byte	112
 112 0064 00       		.byte	0
 113 0065 66       		.byte	102
 114 0066 00       		.byte	0
 115 0067 17       		.byte	23
 116 0068 00       		.byte	0
 117 0069 00       		.byte	0
 118 006a 00       		.byte	0
 119 006b 00       		.byte	0
 120 006c 00       		.byte	0
 121 006d 00       		.byte	0
 122 006e 00       		.byte	0
 123 006f 02       		.byte	2
 124              		.align	2
 127              	ipAddr_ringmaster:
 128 0070 BB       		.byte	-69
 129 0071 BB       		.byte	-69
 130 0072 00       		.byte	0
 131 0073 00       		.byte	0
 132 0074 00       		.byte	0
 133 0075 00       		.byte	0
 134 0076 00       		.byte	0
 135 0077 00       		.byte	0
 136 0078 00       		.byte	0
 137 0079 00       		.byte	0
 138 007a 00       		.byte	0
 139 007b 00       		.byte	0
 140 007c 00       		.byte	0
 141 007d 00       		.byte	0
 142 007e 00       		.byte	0
 143 007f 01       		.byte	1
 144              		.global	cinfo_path0
 145              		.align	2
 148              	cinfo_path0:
 149 0080 6900     		.ascii	"i\000"
 150              		.comm	cinfo_vars,48,4
 151              		.text
 152              		.align	2
 153              		.global	cinfo_init
 154              		.thumb
 155              		.thumb_func
 157              	cinfo_init:
 158              	.LFB0:
 159              		.file 1 "build/OpenMote-CC2538_armgcc/openapps/cinfo/cinfo.c"
   1:build/OpenMote-CC2538_armgcc/openapps/cinfo/cinfo.c **** /**
   2:build/OpenMote-CC2538_armgcc/openapps/cinfo/cinfo.c **** \brief A CoAP resource which indicates the board its running on.
   3:build/OpenMote-CC2538_armgcc/openapps/cinfo/cinfo.c **** */
   4:build/OpenMote-CC2538_armgcc/openapps/cinfo/cinfo.c **** 
   5:build/OpenMote-CC2538_armgcc/openapps/cinfo/cinfo.c **** #include "opendefs.h"
   6:build/OpenMote-CC2538_armgcc/openapps/cinfo/cinfo.c **** #include "cinfo.h"
   7:build/OpenMote-CC2538_armgcc/openapps/cinfo/cinfo.c **** #include "opencoap.h"
   8:build/OpenMote-CC2538_armgcc/openapps/cinfo/cinfo.c **** #include "openqueue.h"
   9:build/OpenMote-CC2538_armgcc/openapps/cinfo/cinfo.c **** #include "packetfunctions.h"
  10:build/OpenMote-CC2538_armgcc/openapps/cinfo/cinfo.c **** #include "openserial.h"
  11:build/OpenMote-CC2538_armgcc/openapps/cinfo/cinfo.c **** #include "openrandom.h"
  12:build/OpenMote-CC2538_armgcc/openapps/cinfo/cinfo.c **** #include "board.h"
  13:build/OpenMote-CC2538_armgcc/openapps/cinfo/cinfo.c **** #include "idmanager.h"
  14:build/OpenMote-CC2538_armgcc/openapps/cinfo/cinfo.c **** 
  15:build/OpenMote-CC2538_armgcc/openapps/cinfo/cinfo.c **** //=========================== defines =========================================
  16:build/OpenMote-CC2538_armgcc/openapps/cinfo/cinfo.c **** 
  17:build/OpenMote-CC2538_armgcc/openapps/cinfo/cinfo.c **** const uint8_t cinfo_path0[] = "i";
  18:build/OpenMote-CC2538_armgcc/openapps/cinfo/cinfo.c **** 
  19:build/OpenMote-CC2538_armgcc/openapps/cinfo/cinfo.c **** //=========================== variables =======================================
  20:build/OpenMote-CC2538_armgcc/openapps/cinfo/cinfo.c **** 
  21:build/OpenMote-CC2538_armgcc/openapps/cinfo/cinfo.c **** cinfo_vars_t cinfo_vars;
  22:build/OpenMote-CC2538_armgcc/openapps/cinfo/cinfo.c **** 
  23:build/OpenMote-CC2538_armgcc/openapps/cinfo/cinfo.c **** //=========================== prototypes ======================================
  24:build/OpenMote-CC2538_armgcc/openapps/cinfo/cinfo.c **** 
  25:build/OpenMote-CC2538_armgcc/openapps/cinfo/cinfo.c **** owerror_t     cinfo_receive(
  26:build/OpenMote-CC2538_armgcc/openapps/cinfo/cinfo.c ****    OpenQueueEntry_t* msg,
  27:build/OpenMote-CC2538_armgcc/openapps/cinfo/cinfo.c ****    coap_header_iht*  coap_header,
  28:build/OpenMote-CC2538_armgcc/openapps/cinfo/cinfo.c ****    coap_option_iht*  coap_options
  29:build/OpenMote-CC2538_armgcc/openapps/cinfo/cinfo.c **** );
  30:build/OpenMote-CC2538_armgcc/openapps/cinfo/cinfo.c **** void          cinfo_sendDone(
  31:build/OpenMote-CC2538_armgcc/openapps/cinfo/cinfo.c ****    OpenQueueEntry_t* msg,
  32:build/OpenMote-CC2538_armgcc/openapps/cinfo/cinfo.c ****    owerror_t error
  33:build/OpenMote-CC2538_armgcc/openapps/cinfo/cinfo.c **** );
  34:build/OpenMote-CC2538_armgcc/openapps/cinfo/cinfo.c **** 
  35:build/OpenMote-CC2538_armgcc/openapps/cinfo/cinfo.c **** //=========================== public ==========================================
  36:build/OpenMote-CC2538_armgcc/openapps/cinfo/cinfo.c **** 
  37:build/OpenMote-CC2538_armgcc/openapps/cinfo/cinfo.c **** /**
  38:build/OpenMote-CC2538_armgcc/openapps/cinfo/cinfo.c **** \brief Initialize this module.
  39:build/OpenMote-CC2538_armgcc/openapps/cinfo/cinfo.c **** */
  40:build/OpenMote-CC2538_armgcc/openapps/cinfo/cinfo.c **** void cinfo_init() {
 160              		.loc 1 40 0
 161              		.cfi_startproc
 162              		@ args = 0, pretend = 0, frame = 0
 163              		@ frame_needed = 1, uses_anonymous_args = 0
 164 0000 80B5     		push	{r7, lr}
 165              		.cfi_def_cfa_offset 8
 166              		.cfi_offset 7, -8
 167              		.cfi_offset 14, -4
 168 0002 00AF     		add	r7, sp, #0
 169              		.cfi_def_cfa_register 7
  41:build/OpenMote-CC2538_armgcc/openapps/cinfo/cinfo.c ****    // do not run if DAGroot
  42:build/OpenMote-CC2538_armgcc/openapps/cinfo/cinfo.c ****    if(idmanager_getIsDAGroot()==TRUE) return; 
 170              		.loc 1 42 0
 171 0004 FFF7FEFF 		bl	idmanager_getIsDAGroot
 172 0008 0346     		mov	r3, r0
 173 000a 002B     		cmp	r3, #0
 174 000c 00D0     		beq	.L2
 175 000e 1AE0     		b	.L1
 176              	.L2:
  43:build/OpenMote-CC2538_armgcc/openapps/cinfo/cinfo.c ****    
  44:build/OpenMote-CC2538_armgcc/openapps/cinfo/cinfo.c ****    // prepare the resource descriptor for the /i path
  45:build/OpenMote-CC2538_armgcc/openapps/cinfo/cinfo.c ****    cinfo_vars.desc.path0len             = sizeof(cinfo_path0)-1;
 177              		.loc 1 45 0
 178 0010 0D4B     		ldr	r3, .L4
 179 0012 0122     		movs	r2, #1
 180 0014 1A70     		strb	r2, [r3]
  46:build/OpenMote-CC2538_armgcc/openapps/cinfo/cinfo.c ****    cinfo_vars.desc.path0val             = (uint8_t*)(&cinfo_path0);
 181              		.loc 1 46 0
 182 0016 0C4B     		ldr	r3, .L4
 183 0018 0C4A     		ldr	r2, .L4+4
 184 001a 5A60     		str	r2, [r3, #4]
  47:build/OpenMote-CC2538_armgcc/openapps/cinfo/cinfo.c ****    cinfo_vars.desc.path1len             = 0;
 185              		.loc 1 47 0
 186 001c 0A4B     		ldr	r3, .L4
 187 001e 0022     		movs	r2, #0
 188 0020 1A72     		strb	r2, [r3, #8]
  48:build/OpenMote-CC2538_armgcc/openapps/cinfo/cinfo.c ****    cinfo_vars.desc.path1val             = NULL;
 189              		.loc 1 48 0
 190 0022 094B     		ldr	r3, .L4
 191 0024 0022     		movs	r2, #0
 192 0026 DA60     		str	r2, [r3, #12]
  49:build/OpenMote-CC2538_armgcc/openapps/cinfo/cinfo.c ****    cinfo_vars.desc.componentID          = COMPONENT_CINFO;
 193              		.loc 1 49 0
 194 0028 074B     		ldr	r3, .L4
 195 002a 1C22     		movs	r2, #28
 196 002c 1A74     		strb	r2, [r3, #16]
  50:build/OpenMote-CC2538_armgcc/openapps/cinfo/cinfo.c ****    cinfo_vars.desc.discoverable         = TRUE;
 197              		.loc 1 50 0
 198 002e 064B     		ldr	r3, .L4
 199 0030 0122     		movs	r2, #1
 200 0032 5A74     		strb	r2, [r3, #17]
  51:build/OpenMote-CC2538_armgcc/openapps/cinfo/cinfo.c ****    cinfo_vars.desc.callbackRx           = &cinfo_receive;
 201              		.loc 1 51 0
 202 0034 044B     		ldr	r3, .L4
 203 0036 064A     		ldr	r2, .L4+8
 204 0038 5A61     		str	r2, [r3, #20]
  52:build/OpenMote-CC2538_armgcc/openapps/cinfo/cinfo.c ****    cinfo_vars.desc.callbackSendDone     = &cinfo_sendDone;
 205              		.loc 1 52 0
 206 003a 034B     		ldr	r3, .L4
 207 003c 054A     		ldr	r2, .L4+12
 208 003e 9A61     		str	r2, [r3, #24]
  53:build/OpenMote-CC2538_armgcc/openapps/cinfo/cinfo.c ****    
  54:build/OpenMote-CC2538_armgcc/openapps/cinfo/cinfo.c ****    // register with the CoAP module
  55:build/OpenMote-CC2538_armgcc/openapps/cinfo/cinfo.c ****    opencoap_register(&cinfo_vars.desc);
 209              		.loc 1 55 0
 210 0040 0148     		ldr	r0, .L4
 211 0042 FFF7FEFF 		bl	opencoap_register
 212              	.L1:
  56:build/OpenMote-CC2538_armgcc/openapps/cinfo/cinfo.c **** }
 213              		.loc 1 56 0
 214 0046 80BD     		pop	{r7, pc}
 215              	.L5:
 216              		.align	2
 217              	.L4:
 218 0048 00000000 		.word	cinfo_vars
 219 004c 00000000 		.word	cinfo_path0
 220 0050 00000000 		.word	cinfo_receive
 221 0054 00000000 		.word	cinfo_sendDone
 222              		.cfi_endproc
 223              	.LFE0:
 225              		.align	2
 226              		.global	cinfo_receive
 227              		.thumb
 228              		.thumb_func
 230              	cinfo_receive:
 231              	.LFB1:
  57:build/OpenMote-CC2538_armgcc/openapps/cinfo/cinfo.c **** 
  58:build/OpenMote-CC2538_armgcc/openapps/cinfo/cinfo.c **** //=========================== private =========================================
  59:build/OpenMote-CC2538_armgcc/openapps/cinfo/cinfo.c **** 
  60:build/OpenMote-CC2538_armgcc/openapps/cinfo/cinfo.c **** /**
  61:build/OpenMote-CC2538_armgcc/openapps/cinfo/cinfo.c **** \brief Called when a CoAP message is received for this resource.
  62:build/OpenMote-CC2538_armgcc/openapps/cinfo/cinfo.c **** 
  63:build/OpenMote-CC2538_armgcc/openapps/cinfo/cinfo.c **** \param[in] msg          The received message. CoAP header and options already
  64:build/OpenMote-CC2538_armgcc/openapps/cinfo/cinfo.c ****    parsed.
  65:build/OpenMote-CC2538_armgcc/openapps/cinfo/cinfo.c **** \param[in] coap_header  The CoAP header contained in the message.
  66:build/OpenMote-CC2538_armgcc/openapps/cinfo/cinfo.c **** \param[in] coap_options The CoAP options contained in the message.
  67:build/OpenMote-CC2538_armgcc/openapps/cinfo/cinfo.c **** 
  68:build/OpenMote-CC2538_armgcc/openapps/cinfo/cinfo.c **** \return Whether the response is prepared successfully.
  69:build/OpenMote-CC2538_armgcc/openapps/cinfo/cinfo.c **** */
  70:build/OpenMote-CC2538_armgcc/openapps/cinfo/cinfo.c **** owerror_t cinfo_receive(
  71:build/OpenMote-CC2538_armgcc/openapps/cinfo/cinfo.c ****       OpenQueueEntry_t* msg,
  72:build/OpenMote-CC2538_armgcc/openapps/cinfo/cinfo.c ****       coap_header_iht* coap_header,
  73:build/OpenMote-CC2538_armgcc/openapps/cinfo/cinfo.c ****       coap_option_iht* coap_options
  74:build/OpenMote-CC2538_armgcc/openapps/cinfo/cinfo.c ****    ) {
 232              		.loc 1 74 0
 233              		.cfi_startproc
 234              		@ args = 0, pretend = 0, frame = 24
 235              		@ frame_needed = 1, uses_anonymous_args = 0
 236 0058 80B5     		push	{r7, lr}
 237              		.cfi_def_cfa_offset 8
 238              		.cfi_offset 7, -8
 239              		.cfi_offset 14, -4
 240 005a 86B0     		sub	sp, sp, #24
 241              		.cfi_def_cfa_offset 32
 242 005c 00AF     		add	r7, sp, #0
 243              		.cfi_def_cfa_register 7
 244 005e F860     		str	r0, [r7, #12]
 245 0060 B960     		str	r1, [r7, #8]
 246 0062 7A60     		str	r2, [r7, #4]
  75:build/OpenMote-CC2538_armgcc/openapps/cinfo/cinfo.c ****    
  76:build/OpenMote-CC2538_armgcc/openapps/cinfo/cinfo.c ****    owerror_t outcome;
  77:build/OpenMote-CC2538_armgcc/openapps/cinfo/cinfo.c ****    
  78:build/OpenMote-CC2538_armgcc/openapps/cinfo/cinfo.c ****    switch (coap_header->Code) {
 247              		.loc 1 78 0
 248 0064 BB68     		ldr	r3, [r7, #8]
 249 0066 DB78     		ldrb	r3, [r3, #3]	@ zero_extendqisi2
 250 0068 012B     		cmp	r3, #1
 251 006a 72D1     		bne	.L11
  79:build/OpenMote-CC2538_armgcc/openapps/cinfo/cinfo.c ****       case COAP_CODE_REQ_GET:
  80:build/OpenMote-CC2538_armgcc/openapps/cinfo/cinfo.c ****          
  81:build/OpenMote-CC2538_armgcc/openapps/cinfo/cinfo.c ****          //=== reset packet payload (we will reuse this packetBuffer)
  82:build/OpenMote-CC2538_armgcc/openapps/cinfo/cinfo.c ****          msg->payload                     = &(msg->packet[127]);
 252              		.loc 1 82 0
 253 006c FB68     		ldr	r3, [r7, #12]
 254 006e 03F20712 		addw	r2, r3, #263
 255 0072 FB68     		ldr	r3, [r7, #12]
 256 0074 5A60     		str	r2, [r3, #4]
  83:build/OpenMote-CC2538_armgcc/openapps/cinfo/cinfo.c ****          msg->length                      = 0;
 257              		.loc 1 83 0
 258 0076 FB68     		ldr	r3, [r7, #12]
 259 0078 0022     		movs	r2, #0
 260 007a 1A72     		strb	r2, [r3, #8]
  84:build/OpenMote-CC2538_armgcc/openapps/cinfo/cinfo.c ****          
  85:build/OpenMote-CC2538_armgcc/openapps/cinfo/cinfo.c ****          //=== prepare  CoAP response
  86:build/OpenMote-CC2538_armgcc/openapps/cinfo/cinfo.c ****          
  87:build/OpenMote-CC2538_armgcc/openapps/cinfo/cinfo.c ****          // radio name
  88:build/OpenMote-CC2538_armgcc/openapps/cinfo/cinfo.c ****          packetfunctions_reserveHeaderSize(msg,sizeof(infoRadioName)-1);
 261              		.loc 1 88 0
 262 007c F868     		ldr	r0, [r7, #12]
 263 007e 0A21     		movs	r1, #10
 264 0080 FFF7FEFF 		bl	packetfunctions_reserveHeaderSize
  89:build/OpenMote-CC2538_armgcc/openapps/cinfo/cinfo.c ****          memcpy(&msg->payload[0],&infoRadioName,sizeof(infoRadioName)-1);
 265              		.loc 1 89 0
 266 0084 FB68     		ldr	r3, [r7, #12]
 267 0086 5B68     		ldr	r3, [r3, #4]
 268 0088 1846     		mov	r0, r3
 269 008a 3549     		ldr	r1, .L12
 270 008c 0A22     		movs	r2, #10
 271 008e FFF7FEFF 		bl	memcpy
  90:build/OpenMote-CC2538_armgcc/openapps/cinfo/cinfo.c ****          
  91:build/OpenMote-CC2538_armgcc/openapps/cinfo/cinfo.c ****          // uC name
  92:build/OpenMote-CC2538_armgcc/openapps/cinfo/cinfo.c ****          packetfunctions_reserveHeaderSize(msg,1);
 272              		.loc 1 92 0
 273 0092 F868     		ldr	r0, [r7, #12]
 274 0094 0121     		movs	r1, #1
 275 0096 FFF7FEFF 		bl	packetfunctions_reserveHeaderSize
  93:build/OpenMote-CC2538_armgcc/openapps/cinfo/cinfo.c ****          msg->payload[0] = '\n';
 276              		.loc 1 93 0
 277 009a FB68     		ldr	r3, [r7, #12]
 278 009c 5B68     		ldr	r3, [r3, #4]
 279 009e 0A22     		movs	r2, #10
 280 00a0 1A70     		strb	r2, [r3]
  94:build/OpenMote-CC2538_armgcc/openapps/cinfo/cinfo.c ****          packetfunctions_reserveHeaderSize(msg,sizeof(infouCName)-1);
 281              		.loc 1 94 0
 282 00a2 F868     		ldr	r0, [r7, #12]
 283 00a4 0621     		movs	r1, #6
 284 00a6 FFF7FEFF 		bl	packetfunctions_reserveHeaderSize
  95:build/OpenMote-CC2538_armgcc/openapps/cinfo/cinfo.c ****          memcpy(&msg->payload[0],&infouCName,sizeof(infouCName)-1);
 285              		.loc 1 95 0
 286 00aa FB68     		ldr	r3, [r7, #12]
 287 00ac 5B68     		ldr	r3, [r3, #4]
 288 00ae 1846     		mov	r0, r3
 289 00b0 2C49     		ldr	r1, .L12+4
 290 00b2 0622     		movs	r2, #6
 291 00b4 FFF7FEFF 		bl	memcpy
  96:build/OpenMote-CC2538_armgcc/openapps/cinfo/cinfo.c ****          
  97:build/OpenMote-CC2538_armgcc/openapps/cinfo/cinfo.c ****          // board name
  98:build/OpenMote-CC2538_armgcc/openapps/cinfo/cinfo.c ****          packetfunctions_reserveHeaderSize(msg,1);
 292              		.loc 1 98 0
 293 00b8 F868     		ldr	r0, [r7, #12]
 294 00ba 0121     		movs	r1, #1
 295 00bc FFF7FEFF 		bl	packetfunctions_reserveHeaderSize
  99:build/OpenMote-CC2538_armgcc/openapps/cinfo/cinfo.c ****          msg->payload[0] = '\n';
 296              		.loc 1 99 0
 297 00c0 FB68     		ldr	r3, [r7, #12]
 298 00c2 5B68     		ldr	r3, [r3, #4]
 299 00c4 0A22     		movs	r2, #10
 300 00c6 1A70     		strb	r2, [r3]
 100:build/OpenMote-CC2538_armgcc/openapps/cinfo/cinfo.c ****          packetfunctions_reserveHeaderSize(msg,sizeof(infoBoardname)-1);
 301              		.loc 1 100 0
 302 00c8 F868     		ldr	r0, [r7, #12]
 303 00ca 0621     		movs	r1, #6
 304 00cc FFF7FEFF 		bl	packetfunctions_reserveHeaderSize
 101:build/OpenMote-CC2538_armgcc/openapps/cinfo/cinfo.c ****          memcpy(&msg->payload[0],&infoBoardname,sizeof(infoBoardname)-1);
 305              		.loc 1 101 0
 306 00d0 FB68     		ldr	r3, [r7, #12]
 307 00d2 5B68     		ldr	r3, [r3, #4]
 308 00d4 1846     		mov	r0, r3
 309 00d6 2449     		ldr	r1, .L12+8
 310 00d8 0622     		movs	r2, #6
 311 00da FFF7FEFF 		bl	memcpy
 102:build/OpenMote-CC2538_armgcc/openapps/cinfo/cinfo.c ****          
 103:build/OpenMote-CC2538_armgcc/openapps/cinfo/cinfo.c ****          // stack name and version
 104:build/OpenMote-CC2538_armgcc/openapps/cinfo/cinfo.c ****          packetfunctions_reserveHeaderSize(msg,1);
 312              		.loc 1 104 0
 313 00de F868     		ldr	r0, [r7, #12]
 314 00e0 0121     		movs	r1, #1
 315 00e2 FFF7FEFF 		bl	packetfunctions_reserveHeaderSize
 105:build/OpenMote-CC2538_armgcc/openapps/cinfo/cinfo.c ****          msg->payload[0] = '\n';
 316              		.loc 1 105 0
 317 00e6 FB68     		ldr	r3, [r7, #12]
 318 00e8 5B68     		ldr	r3, [r3, #4]
 319 00ea 0A22     		movs	r2, #10
 320 00ec 1A70     		strb	r2, [r3]
 106:build/OpenMote-CC2538_armgcc/openapps/cinfo/cinfo.c ****          packetfunctions_reserveHeaderSize(msg,sizeof(infoStackName)-1+5);
 321              		.loc 1 106 0
 322 00ee F868     		ldr	r0, [r7, #12]
 323 00f0 0D21     		movs	r1, #13
 324 00f2 FFF7FEFF 		bl	packetfunctions_reserveHeaderSize
 107:build/OpenMote-CC2538_armgcc/openapps/cinfo/cinfo.c ****          memcpy(&msg->payload[0],&infoStackName,sizeof(infoStackName)-1);
 325              		.loc 1 107 0
 326 00f6 FB68     		ldr	r3, [r7, #12]
 327 00f8 5B68     		ldr	r3, [r3, #4]
 328 00fa 1846     		mov	r0, r3
 329 00fc 1B49     		ldr	r1, .L12+12
 330 00fe 0822     		movs	r2, #8
 331 0100 FFF7FEFF 		bl	memcpy
 108:build/OpenMote-CC2538_armgcc/openapps/cinfo/cinfo.c ****          msg->payload[sizeof(infoStackName)-1+5-5] = '0'+OPENWSN_VERSION_MAJOR;
 332              		.loc 1 108 0
 333 0104 FB68     		ldr	r3, [r7, #12]
 334 0106 5B68     		ldr	r3, [r3, #4]
 335 0108 0833     		adds	r3, r3, #8
 336 010a 3122     		movs	r2, #49
 337 010c 1A70     		strb	r2, [r3]
 109:build/OpenMote-CC2538_armgcc/openapps/cinfo/cinfo.c ****          msg->payload[sizeof(infoStackName)-1+5-4] = '.';
 338              		.loc 1 109 0
 339 010e FB68     		ldr	r3, [r7, #12]
 340 0110 5B68     		ldr	r3, [r3, #4]
 341 0112 0933     		adds	r3, r3, #9
 342 0114 2E22     		movs	r2, #46
 343 0116 1A70     		strb	r2, [r3]
 110:build/OpenMote-CC2538_armgcc/openapps/cinfo/cinfo.c ****          msg->payload[sizeof(infoStackName)-1+5-3] = '0'+OPENWSN_VERSION_MINOR;
 344              		.loc 1 110 0
 345 0118 FB68     		ldr	r3, [r7, #12]
 346 011a 5B68     		ldr	r3, [r3, #4]
 347 011c 0A33     		adds	r3, r3, #10
 348 011e 3922     		movs	r2, #57
 349 0120 1A70     		strb	r2, [r3]
 111:build/OpenMote-CC2538_armgcc/openapps/cinfo/cinfo.c ****          msg->payload[sizeof(infoStackName)-1+5-2] = '.';
 350              		.loc 1 111 0
 351 0122 FB68     		ldr	r3, [r7, #12]
 352 0124 5B68     		ldr	r3, [r3, #4]
 353 0126 0B33     		adds	r3, r3, #11
 354 0128 2E22     		movs	r2, #46
 355 012a 1A70     		strb	r2, [r3]
 112:build/OpenMote-CC2538_armgcc/openapps/cinfo/cinfo.c ****          msg->payload[sizeof(infoStackName)-1+5-1] = '0'+OPENWSN_VERSION_PATCH;
 356              		.loc 1 112 0
 357 012c FB68     		ldr	r3, [r7, #12]
 358 012e 5B68     		ldr	r3, [r3, #4]
 359 0130 0C33     		adds	r3, r3, #12
 360 0132 3022     		movs	r2, #48
 361 0134 1A70     		strb	r2, [r3]
 113:build/OpenMote-CC2538_armgcc/openapps/cinfo/cinfo.c ****          
 114:build/OpenMote-CC2538_armgcc/openapps/cinfo/cinfo.c ****          // payload marker
 115:build/OpenMote-CC2538_armgcc/openapps/cinfo/cinfo.c ****          packetfunctions_reserveHeaderSize(msg,1);
 362              		.loc 1 115 0
 363 0136 F868     		ldr	r0, [r7, #12]
 364 0138 0121     		movs	r1, #1
 365 013a FFF7FEFF 		bl	packetfunctions_reserveHeaderSize
 116:build/OpenMote-CC2538_armgcc/openapps/cinfo/cinfo.c ****          msg->payload[0] = COAP_PAYLOAD_MARKER;
 366              		.loc 1 116 0
 367 013e FB68     		ldr	r3, [r7, #12]
 368 0140 5B68     		ldr	r3, [r3, #4]
 369 0142 FF22     		movs	r2, #255
 370 0144 1A70     		strb	r2, [r3]
 117:build/OpenMote-CC2538_armgcc/openapps/cinfo/cinfo.c ****          
 118:build/OpenMote-CC2538_armgcc/openapps/cinfo/cinfo.c ****          // set the CoAP header
 119:build/OpenMote-CC2538_armgcc/openapps/cinfo/cinfo.c ****          coap_header->Code                = COAP_CODE_RESP_CONTENT;
 371              		.loc 1 119 0
 372 0146 BB68     		ldr	r3, [r7, #8]
 373 0148 4522     		movs	r2, #69
 374 014a DA70     		strb	r2, [r3, #3]
 120:build/OpenMote-CC2538_armgcc/openapps/cinfo/cinfo.c ****          
 121:build/OpenMote-CC2538_armgcc/openapps/cinfo/cinfo.c ****          outcome                          = E_SUCCESS;
 375              		.loc 1 121 0
 376 014c 0023     		movs	r3, #0
 377 014e FB75     		strb	r3, [r7, #23]
 122:build/OpenMote-CC2538_armgcc/openapps/cinfo/cinfo.c ****          break;
 378              		.loc 1 122 0
 379 0150 01E0     		b	.L9
 380              	.L11:
 123:build/OpenMote-CC2538_armgcc/openapps/cinfo/cinfo.c ****       default:
 124:build/OpenMote-CC2538_armgcc/openapps/cinfo/cinfo.c ****          // return an error message
 125:build/OpenMote-CC2538_armgcc/openapps/cinfo/cinfo.c ****          outcome = E_FAIL;
 381              		.loc 1 125 0
 382 0152 0123     		movs	r3, #1
 383 0154 FB75     		strb	r3, [r7, #23]
 384              	.L9:
 126:build/OpenMote-CC2538_armgcc/openapps/cinfo/cinfo.c ****    }
 127:build/OpenMote-CC2538_armgcc/openapps/cinfo/cinfo.c ****    
 128:build/OpenMote-CC2538_armgcc/openapps/cinfo/cinfo.c ****    return outcome;
 385              		.loc 1 128 0
 386 0156 FB7D     		ldrb	r3, [r7, #23]	@ zero_extendqisi2
 129:build/OpenMote-CC2538_armgcc/openapps/cinfo/cinfo.c **** }
 387              		.loc 1 129 0
 388 0158 1846     		mov	r0, r3
 389 015a 1837     		adds	r7, r7, #24
 390              		.cfi_def_cfa_offset 8
 391 015c BD46     		mov	sp, r7
 392              		.cfi_def_cfa_register 13
 393              		@ sp needed
 394 015e 80BD     		pop	{r7, pc}
 395              	.L13:
 396              		.align	2
 397              	.L12:
 398 0160 18000000 		.word	infoRadioName
 399 0164 10000000 		.word	infouCName
 400 0168 08000000 		.word	infoBoardname
 401 016c 24000000 		.word	infoStackName
 402              		.cfi_endproc
 403              	.LFE1:
 405              		.align	2
 406              		.global	cinfo_sendDone
 407              		.thumb
 408              		.thumb_func
 410              	cinfo_sendDone:
 411              	.LFB2:
 130:build/OpenMote-CC2538_armgcc/openapps/cinfo/cinfo.c **** 
 131:build/OpenMote-CC2538_armgcc/openapps/cinfo/cinfo.c **** /**
 132:build/OpenMote-CC2538_armgcc/openapps/cinfo/cinfo.c **** \brief The stack indicates that the packet was sent.
 133:build/OpenMote-CC2538_armgcc/openapps/cinfo/cinfo.c **** 
 134:build/OpenMote-CC2538_armgcc/openapps/cinfo/cinfo.c **** \param[in] msg The CoAP message just sent.
 135:build/OpenMote-CC2538_armgcc/openapps/cinfo/cinfo.c **** \param[in] error The outcome of sending it.
 136:build/OpenMote-CC2538_armgcc/openapps/cinfo/cinfo.c **** */
 137:build/OpenMote-CC2538_armgcc/openapps/cinfo/cinfo.c **** void cinfo_sendDone(OpenQueueEntry_t* msg, owerror_t error) {
 412              		.loc 1 137 0
 413              		.cfi_startproc
 414              		@ args = 0, pretend = 0, frame = 8
 415              		@ frame_needed = 1, uses_anonymous_args = 0
 416 0170 80B5     		push	{r7, lr}
 417              		.cfi_def_cfa_offset 8
 418              		.cfi_offset 7, -8
 419              		.cfi_offset 14, -4
 420 0172 82B0     		sub	sp, sp, #8
 421              		.cfi_def_cfa_offset 16
 422 0174 00AF     		add	r7, sp, #0
 423              		.cfi_def_cfa_register 7
 424 0176 7860     		str	r0, [r7, #4]
 425 0178 0B46     		mov	r3, r1
 426 017a FB70     		strb	r3, [r7, #3]
 138:build/OpenMote-CC2538_armgcc/openapps/cinfo/cinfo.c ****    openqueue_freePacketBuffer(msg);
 427              		.loc 1 138 0
 428 017c 7868     		ldr	r0, [r7, #4]
 429 017e FFF7FEFF 		bl	openqueue_freePacketBuffer
 139:build/OpenMote-CC2538_armgcc/openapps/cinfo/cinfo.c **** }
 430              		.loc 1 139 0
 431 0182 0837     		adds	r7, r7, #8
 432              		.cfi_def_cfa_offset 8
 433 0184 BD46     		mov	sp, r7
 434              		.cfi_def_cfa_register 13
 435              		@ sp needed
 436 0186 80BD     		pop	{r7, pc}
 437              		.cfi_endproc
 438              	.LFE2:
 440              	.Letext0:
 441              		.file 2 "/usr/arm-none-eabi/include/machine/_default_types.h"
 442              		.file 3 "/usr/arm-none-eabi/include/sys/_stdint.h"
 443              		.file 4 "inc/opendefs.h"
 444              		.file 5 "openstack/04-TRAN/opencoap.h"
 445              		.file 6 "build/OpenMote-CC2538_armgcc/openapps/cinfo/cinfo.h"
 446              		.file 7 "bsp/boards/OpenMote-CC2538/board_info.h"