   1              		.syntax unified
   2              		.cpu cortex-m3
   3              		.fpu softvfp
   4              		.eabi_attribute 20, 1
   5              		.eabi_attribute 21, 1
   6              		.eabi_attribute 23, 3
   7              		.eabi_attribute 24, 1
   8              		.eabi_attribute 25, 1
   9              		.eabi_attribute 26, 1
  10              		.eabi_attribute 30, 6
  11              		.eabi_attribute 34, 1
  12              		.eabi_attribute 18, 4
  13              		.thumb
  14              		.file	"iphc.c"
  15              		.text
  16              	.Ltext0:
  17              		.cfi_sections	.debug_frame
  18              		.section	.rodata
  19              		.align	2
  22              	rreg_uriquery:
  23 0000 683D7563 		.ascii	"h=ucb\000"
  23      6200
  24 0006 0000     		.align	2
  27              	infoBoardname:
  28 0008 43433235 		.ascii	"CC2538\000"
  28      333800
  29 000f 00       		.align	2
  32              	infouCName:
  33 0010 43433235 		.ascii	"CC2538\000"
  33      333800
  34 0017 00       		.align	2
  37              	infoRadioName:
  38 0018 43433235 		.ascii	"CC2538 SoC\000"
  38      33382053 
  38      6F4300
  39 0023 00       		.align	2
  42              	infoStackName:
  43 0024 4F70656E 		.ascii	"OpenWSN \000"
  43      57534E20 
  43      00
  44 002d 000000   		.align	2
  47              	all_routers_multicast:
  48 0030 FF       		.byte	-1
  49 0031 02       		.byte	2
  50 0032 00       		.byte	0
  51 0033 00       		.byte	0
  52 0034 00       		.byte	0
  53 0035 00       		.byte	0
  54 0036 00       		.byte	0
  55 0037 00       		.byte	0
  56 0038 00       		.byte	0
  57 0039 00       		.byte	0
  58 003a 00       		.byte	0
  59 003b 00       		.byte	0
  60 003c 00       		.byte	0
  61 003d 00       		.byte	0
  62 003e 00       		.byte	0
  63 003f 1A       		.byte	26
  64              		.align	2
  67              	dagroot:
  68 0040 03       		.byte	3
  69 0041 BB       		.byte	-69
  70 0042 BB       		.byte	-69
  71 0043 00       		.byte	0
  72 0044 00       		.byte	0
  73 0045 00       		.byte	0
  74 0046 00       		.byte	0
  75 0047 00       		.byte	0
  76 0048 00       		.byte	0
  77 0049 00       		.byte	0
  78 004a 00       		.byte	0
  79 004b 00       		.byte	0
  80 004c 00       		.byte	0
  81 004d 00       		.byte	0
  82 004e 00       		.byte	0
  83 004f 00       		.byte	0
  84 0050 01       		.byte	1
  85              		.text
  86              		.align	2
  87              		.global	iphc_init
  88              		.thumb
  89              		.thumb_func
  91              	iphc_init:
  92              	.LFB0:
  93              		.file 1 "build/OpenMote-CC2538_armgcc/openstack/03a-IPHC/iphc.c"
   1:build/OpenMote-CC2538_armgcc/openstack/03a-IPHC/iphc.c **** #include "opendefs.h"
   2:build/OpenMote-CC2538_armgcc/openstack/03a-IPHC/iphc.c **** #include "iphc.h"
   3:build/OpenMote-CC2538_armgcc/openstack/03a-IPHC/iphc.c **** #include "packetfunctions.h"
   4:build/OpenMote-CC2538_armgcc/openstack/03a-IPHC/iphc.c **** #include "idmanager.h"
   5:build/OpenMote-CC2538_armgcc/openstack/03a-IPHC/iphc.c **** #include "openserial.h"
   6:build/OpenMote-CC2538_armgcc/openstack/03a-IPHC/iphc.c **** #include "sixtop.h"
   7:build/OpenMote-CC2538_armgcc/openstack/03a-IPHC/iphc.c **** #include "forwarding.h"
   8:build/OpenMote-CC2538_armgcc/openstack/03a-IPHC/iphc.c **** #include "neighbors.h"
   9:build/OpenMote-CC2538_armgcc/openstack/03a-IPHC/iphc.c **** #include "openbridge.h"
  10:build/OpenMote-CC2538_armgcc/openstack/03a-IPHC/iphc.c **** #include "icmpv6rpl.h"
  11:build/OpenMote-CC2538_armgcc/openstack/03a-IPHC/iphc.c **** 
  12:build/OpenMote-CC2538_armgcc/openstack/03a-IPHC/iphc.c **** //=========================== variables =======================================
  13:build/OpenMote-CC2538_armgcc/openstack/03a-IPHC/iphc.c **** 
  14:build/OpenMote-CC2538_armgcc/openstack/03a-IPHC/iphc.c **** static const uint8_t dagroot[]   = {0x03,
  15:build/OpenMote-CC2538_armgcc/openstack/03a-IPHC/iphc.c ****    0xbb, 0xbb, 0x00, 0x00, 0x00, 0x00, 0x00, 0x00,
  16:build/OpenMote-CC2538_armgcc/openstack/03a-IPHC/iphc.c ****    0x00, 0x00, 0x00, 0x00, 0x00, 0x00, 0x00, 0x01
  17:build/OpenMote-CC2538_armgcc/openstack/03a-IPHC/iphc.c **** }; 
  18:build/OpenMote-CC2538_armgcc/openstack/03a-IPHC/iphc.c **** 
  19:build/OpenMote-CC2538_armgcc/openstack/03a-IPHC/iphc.c **** //=========================== prototypes ======================================
  20:build/OpenMote-CC2538_armgcc/openstack/03a-IPHC/iphc.c **** 
  21:build/OpenMote-CC2538_armgcc/openstack/03a-IPHC/iphc.c **** //===== IPv6 header
  22:build/OpenMote-CC2538_armgcc/openstack/03a-IPHC/iphc.c **** void iphc_retrieveIPv6Header(
  23:build/OpenMote-CC2538_armgcc/openstack/03a-IPHC/iphc.c ****    OpenQueueEntry_t* msg, 
  24:build/OpenMote-CC2538_armgcc/openstack/03a-IPHC/iphc.c ****    ipv6_header_iht* ipv6_outer_header,
  25:build/OpenMote-CC2538_armgcc/openstack/03a-IPHC/iphc.c ****    ipv6_header_iht* ipv6_inner_header,
  26:build/OpenMote-CC2538_armgcc/openstack/03a-IPHC/iphc.c ****    uint8_t*         page_length
  27:build/OpenMote-CC2538_armgcc/openstack/03a-IPHC/iphc.c **** );
  28:build/OpenMote-CC2538_armgcc/openstack/03a-IPHC/iphc.c **** uint8_t iphc_retrieveIphcHeader(open_addr_t* temp_addr_16b,
  29:build/OpenMote-CC2538_armgcc/openstack/03a-IPHC/iphc.c ****    open_addr_t*         temp_addr_64b,
  30:build/OpenMote-CC2538_armgcc/openstack/03a-IPHC/iphc.c ****    uint8_t*             dispatch,
  31:build/OpenMote-CC2538_armgcc/openstack/03a-IPHC/iphc.c ****    uint8_t*             tf,
  32:build/OpenMote-CC2538_armgcc/openstack/03a-IPHC/iphc.c ****    bool*                nh,
  33:build/OpenMote-CC2538_armgcc/openstack/03a-IPHC/iphc.c ****    uint8_t*             hlim,
  34:build/OpenMote-CC2538_armgcc/openstack/03a-IPHC/iphc.c ****    uint8_t*             sam,
  35:build/OpenMote-CC2538_armgcc/openstack/03a-IPHC/iphc.c ****    uint8_t*             m,
  36:build/OpenMote-CC2538_armgcc/openstack/03a-IPHC/iphc.c ****    uint8_t*             dam,
  37:build/OpenMote-CC2538_armgcc/openstack/03a-IPHC/iphc.c ****    OpenQueueEntry_t*    msg,
  38:build/OpenMote-CC2538_armgcc/openstack/03a-IPHC/iphc.c ****    ipv6_header_iht*     ipv6_header,
  39:build/OpenMote-CC2538_armgcc/openstack/03a-IPHC/iphc.c ****    uint8_t              previousLen);
  40:build/OpenMote-CC2538_armgcc/openstack/03a-IPHC/iphc.c **** 
  41:build/OpenMote-CC2538_armgcc/openstack/03a-IPHC/iphc.c **** //===== IPv6 hop-by-hop header
  42:build/OpenMote-CC2538_armgcc/openstack/03a-IPHC/iphc.c **** void iphc_prependIPv6HopByHopHeader(
  43:build/OpenMote-CC2538_armgcc/openstack/03a-IPHC/iphc.c ****    OpenQueueEntry_t*    msg,
  44:build/OpenMote-CC2538_armgcc/openstack/03a-IPHC/iphc.c ****    uint8_t              nextheader,
  45:build/OpenMote-CC2538_armgcc/openstack/03a-IPHC/iphc.c ****    rpl_option_ht*       rpl_option
  46:build/OpenMote-CC2538_armgcc/openstack/03a-IPHC/iphc.c **** );
  47:build/OpenMote-CC2538_armgcc/openstack/03a-IPHC/iphc.c **** uint8_t iphc_retrieveIPv6HopByHopHeader(
  48:build/OpenMote-CC2538_armgcc/openstack/03a-IPHC/iphc.c ****    OpenQueueEntry_t*    msg,
  49:build/OpenMote-CC2538_armgcc/openstack/03a-IPHC/iphc.c ****    rpl_option_ht*       rpl_option
  50:build/OpenMote-CC2538_armgcc/openstack/03a-IPHC/iphc.c **** );
  51:build/OpenMote-CC2538_armgcc/openstack/03a-IPHC/iphc.c **** 
  52:build/OpenMote-CC2538_armgcc/openstack/03a-IPHC/iphc.c **** //=========================== public ==========================================
  53:build/OpenMote-CC2538_armgcc/openstack/03a-IPHC/iphc.c **** 
  54:build/OpenMote-CC2538_armgcc/openstack/03a-IPHC/iphc.c **** void      iphc_init() {
  94              		.loc 1 54 0
  95              		.cfi_startproc
  96              		@ args = 0, pretend = 0, frame = 0
  97              		@ frame_needed = 1, uses_anonymous_args = 0
  98              		@ link register save eliminated.
  99 0000 80B4     		push	{r7}
 100              		.cfi_def_cfa_offset 4
 101              		.cfi_offset 7, -4
 102 0002 00AF     		add	r7, sp, #0
 103              		.cfi_def_cfa_register 7
  55:build/OpenMote-CC2538_armgcc/openstack/03a-IPHC/iphc.c **** }
 104              		.loc 1 55 0
 105 0004 BD46     		mov	sp, r7
 106              		.cfi_def_cfa_register 13
 107              		@ sp needed
 108 0006 5DF8047B 		ldr	r7, [sp], #4
 109              		.cfi_restore 7
 110              		.cfi_def_cfa_offset 0
 111 000a 7047     		bx	lr
 112              		.cfi_endproc
 113              	.LFE0:
 115              		.align	2
 116              		.global	iphc_sendFromForwarding
 117              		.thumb
 118              		.thumb_func
 120              	iphc_sendFromForwarding:
 121              	.LFB1:
  56:build/OpenMote-CC2538_armgcc/openstack/03a-IPHC/iphc.c **** 
  57:build/OpenMote-CC2538_armgcc/openstack/03a-IPHC/iphc.c **** // send from upper layer: I need to add 6LoWPAN header
  58:build/OpenMote-CC2538_armgcc/openstack/03a-IPHC/iphc.c **** owerror_t iphc_sendFromForwarding(
  59:build/OpenMote-CC2538_armgcc/openstack/03a-IPHC/iphc.c ****     OpenQueueEntry_t* msg,
  60:build/OpenMote-CC2538_armgcc/openstack/03a-IPHC/iphc.c ****     ipv6_header_iht*  ipv6_outer_header,
  61:build/OpenMote-CC2538_armgcc/openstack/03a-IPHC/iphc.c ****     ipv6_header_iht*  ipv6_inner_header,
  62:build/OpenMote-CC2538_armgcc/openstack/03a-IPHC/iphc.c ****     rpl_option_ht*    rpl_option,
  63:build/OpenMote-CC2538_armgcc/openstack/03a-IPHC/iphc.c ****     uint32_t*         flow_label,
  64:build/OpenMote-CC2538_armgcc/openstack/03a-IPHC/iphc.c ****     uint8_t*          rh3_copy,
  65:build/OpenMote-CC2538_armgcc/openstack/03a-IPHC/iphc.c ****     uint8_t           rh3_length,
  66:build/OpenMote-CC2538_armgcc/openstack/03a-IPHC/iphc.c ****     uint8_t           fw_SendOrfw_Rcv
  67:build/OpenMote-CC2538_armgcc/openstack/03a-IPHC/iphc.c ****     ) {
 122              		.loc 1 67 0
 123              		.cfi_startproc
 124              		@ args = 16, pretend = 0, frame = 96
 125              		@ frame_needed = 1, uses_anonymous_args = 0
 126 000c 80B5     		push	{r7, lr}
 127              		.cfi_def_cfa_offset 8
 128              		.cfi_offset 7, -8
 129              		.cfi_offset 14, -4
 130 000e 98B0     		sub	sp, sp, #96
 131              		.cfi_def_cfa_offset 104
 132 0010 00AF     		add	r7, sp, #0
 133              		.cfi_def_cfa_register 7
 134 0012 F860     		str	r0, [r7, #12]
 135 0014 B960     		str	r1, [r7, #8]
 136 0016 7A60     		str	r2, [r7, #4]
 137 0018 3B60     		str	r3, [r7]
  68:build/OpenMote-CC2538_armgcc/openstack/03a-IPHC/iphc.c ****     open_addr_t  temp_dest_prefix;
  69:build/OpenMote-CC2538_armgcc/openstack/03a-IPHC/iphc.c ****     open_addr_t  temp_dest_mac64b; 
  70:build/OpenMote-CC2538_armgcc/openstack/03a-IPHC/iphc.c ****     open_addr_t  temp_src_prefix;
  71:build/OpenMote-CC2538_armgcc/openstack/03a-IPHC/iphc.c ****     open_addr_t  temp_src_mac64b; 
  72:build/OpenMote-CC2538_armgcc/openstack/03a-IPHC/iphc.c ****     uint8_t      sam;
  73:build/OpenMote-CC2538_armgcc/openstack/03a-IPHC/iphc.c ****     // take ownership over the packet
  74:build/OpenMote-CC2538_armgcc/openstack/03a-IPHC/iphc.c ****     msg->owner = COMPONENT_IPHC;
 138              		.loc 1 74 0
 139 001a FB68     		ldr	r3, [r7, #12]
 140 001c 1122     		movs	r2, #17
 141 001e 5A70     		strb	r2, [r3, #1]
  75:build/OpenMote-CC2538_armgcc/openstack/03a-IPHC/iphc.c ****    
  76:build/OpenMote-CC2538_armgcc/openstack/03a-IPHC/iphc.c ****     // error checking
  77:build/OpenMote-CC2538_armgcc/openstack/03a-IPHC/iphc.c ****     if (idmanager_getIsDAGroot()==TRUE &&
 142              		.loc 1 77 0
 143 0020 FFF7FEFF 		bl	idmanager_getIsDAGroot
 144 0024 0346     		mov	r3, r0
 145 0026 002B     		cmp	r3, #0
 146 0028 12D0     		beq	.L3
  78:build/OpenMote-CC2538_armgcc/openstack/03a-IPHC/iphc.c ****         packetfunctions_isAllRoutersMulticast(&(msg->l3_destinationAdd))==FALSE) {
 147              		.loc 1 78 0 discriminator 1
 148 002a FB68     		ldr	r3, [r7, #12]
 149 002c 1533     		adds	r3, r3, #21
 150 002e 1846     		mov	r0, r3
 151 0030 FFF7FEFF 		bl	packetfunctions_isAllRoutersMulticast
 152 0034 0346     		mov	r3, r0
 153 0036 83F00103 		eor	r3, r3, #1
 154 003a DBB2     		uxtb	r3, r3
  77:build/OpenMote-CC2538_armgcc/openstack/03a-IPHC/iphc.c ****         packetfunctions_isAllRoutersMulticast(&(msg->l3_destinationAdd))==FALSE) {
 155              		.loc 1 77 0 discriminator 1
 156 003c 002B     		cmp	r3, #0
 157 003e 07D0     		beq	.L3
  79:build/OpenMote-CC2538_armgcc/openstack/03a-IPHC/iphc.c ****         openserial_printCritical(COMPONENT_IPHC,ERR_BRIDGE_MISMATCH,
 158              		.loc 1 79 0
 159 0040 1120     		movs	r0, #17
 160 0042 3221     		movs	r1, #50
 161 0044 0022     		movs	r2, #0
 162 0046 0023     		movs	r3, #0
 163 0048 FFF7FEFF 		bl	openserial_printCritical
  80:build/OpenMote-CC2538_armgcc/openstack/03a-IPHC/iphc.c ****                             (errorparameter_t)0,
  81:build/OpenMote-CC2538_armgcc/openstack/03a-IPHC/iphc.c ****                             (errorparameter_t)0);
  82:build/OpenMote-CC2538_armgcc/openstack/03a-IPHC/iphc.c ****         return E_FAIL;
 164              		.loc 1 82 0
 165 004c 0123     		movs	r3, #1
 166 004e 12E1     		b	.L21
 167              	.L3:
  83:build/OpenMote-CC2538_armgcc/openstack/03a-IPHC/iphc.c ****     }
  84:build/OpenMote-CC2538_armgcc/openstack/03a-IPHC/iphc.c ****    
  85:build/OpenMote-CC2538_armgcc/openstack/03a-IPHC/iphc.c ****     //discard the packet.. hop limit reached.
  86:build/OpenMote-CC2538_armgcc/openstack/03a-IPHC/iphc.c ****     if (ipv6_outer_header->src.type != ADDR_NONE){
 168              		.loc 1 86 0
 169 0050 BB68     		ldr	r3, [r7, #8]
 170 0052 5B7F     		ldrb	r3, [r3, #29]	@ zero_extendqisi2
 171 0054 002B     		cmp	r3, #0
 172 0056 12D0     		beq	.L5
  87:build/OpenMote-CC2538_armgcc/openstack/03a-IPHC/iphc.c ****         // there is IPinIP check hop limit in ip in ip encapsulation
  88:build/OpenMote-CC2538_armgcc/openstack/03a-IPHC/iphc.c ****         if (ipv6_outer_header->hop_limit==0){
 173              		.loc 1 88 0
 174 0058 BB68     		ldr	r3, [r7, #8]
 175 005a 1B7F     		ldrb	r3, [r3, #28]	@ zero_extendqisi2
 176 005c 002B     		cmp	r3, #0
 177 005e 07D1     		bne	.L6
  89:build/OpenMote-CC2538_armgcc/openstack/03a-IPHC/iphc.c ****             openserial_printError(COMPONENT_IPHC,ERR_HOP_LIMIT_REACHED,
 178              		.loc 1 89 0
 179 0060 1120     		movs	r0, #17
 180 0062 1121     		movs	r1, #17
 181 0064 0022     		movs	r2, #0
 182 0066 0023     		movs	r3, #0
 183 0068 FFF7FEFF 		bl	openserial_printError
  90:build/OpenMote-CC2538_armgcc/openstack/03a-IPHC/iphc.c ****                                 (errorparameter_t)0,
  91:build/OpenMote-CC2538_armgcc/openstack/03a-IPHC/iphc.c ****                                 (errorparameter_t)0);
  92:build/OpenMote-CC2538_armgcc/openstack/03a-IPHC/iphc.c ****             return E_FAIL;
 184              		.loc 1 92 0
 185 006c 0123     		movs	r3, #1
 186 006e 02E1     		b	.L21
 187              	.L6:
  93:build/OpenMote-CC2538_armgcc/openstack/03a-IPHC/iphc.c ****         } else {
  94:build/OpenMote-CC2538_armgcc/openstack/03a-IPHC/iphc.c ****             // decrement the packet's hop limit
  95:build/OpenMote-CC2538_armgcc/openstack/03a-IPHC/iphc.c ****             ipv6_outer_header->hop_limit--;
 188              		.loc 1 95 0
 189 0070 BB68     		ldr	r3, [r7, #8]
 190 0072 1B7F     		ldrb	r3, [r3, #28]	@ zero_extendqisi2
 191 0074 013B     		subs	r3, r3, #1
 192 0076 DAB2     		uxtb	r2, r3
 193 0078 BB68     		ldr	r3, [r7, #8]
 194 007a 1A77     		strb	r2, [r3, #28]
 195 007c 11E0     		b	.L7
 196              	.L5:
  96:build/OpenMote-CC2538_armgcc/openstack/03a-IPHC/iphc.c ****         }
  97:build/OpenMote-CC2538_armgcc/openstack/03a-IPHC/iphc.c ****     } else {
  98:build/OpenMote-CC2538_armgcc/openstack/03a-IPHC/iphc.c ****         if (ipv6_inner_header->hop_limit==0) {
 197              		.loc 1 98 0
 198 007e 7B68     		ldr	r3, [r7, #4]
 199 0080 1B7F     		ldrb	r3, [r3, #28]	@ zero_extendqisi2
 200 0082 002B     		cmp	r3, #0
 201 0084 07D1     		bne	.L8
  99:build/OpenMote-CC2538_armgcc/openstack/03a-IPHC/iphc.c ****             openserial_printError(COMPONENT_IPHC,ERR_HOP_LIMIT_REACHED,
 202              		.loc 1 99 0
 203 0086 1120     		movs	r0, #17
 204 0088 1121     		movs	r1, #17
 205 008a 0022     		movs	r2, #0
 206 008c 0023     		movs	r3, #0
 207 008e FFF7FEFF 		bl	openserial_printError
 100:build/OpenMote-CC2538_armgcc/openstack/03a-IPHC/iphc.c ****                                 (errorparameter_t)0,
 101:build/OpenMote-CC2538_armgcc/openstack/03a-IPHC/iphc.c ****                                 (errorparameter_t)0);
 102:build/OpenMote-CC2538_armgcc/openstack/03a-IPHC/iphc.c ****             return E_FAIL;
 208              		.loc 1 102 0
 209 0092 0123     		movs	r3, #1
 210 0094 EFE0     		b	.L21
 211              	.L8:
 103:build/OpenMote-CC2538_armgcc/openstack/03a-IPHC/iphc.c ****         } else {
 104:build/OpenMote-CC2538_armgcc/openstack/03a-IPHC/iphc.c ****             // decrement the packet's hop limit
 105:build/OpenMote-CC2538_armgcc/openstack/03a-IPHC/iphc.c ****             ipv6_inner_header->hop_limit--;
 212              		.loc 1 105 0
 213 0096 7B68     		ldr	r3, [r7, #4]
 214 0098 1B7F     		ldrb	r3, [r3, #28]	@ zero_extendqisi2
 215 009a 013B     		subs	r3, r3, #1
 216 009c DAB2     		uxtb	r2, r3
 217 009e 7B68     		ldr	r3, [r7, #4]
 218 00a0 1A77     		strb	r2, [r3, #28]
 219              	.L7:
 106:build/OpenMote-CC2538_armgcc/openstack/03a-IPHC/iphc.c ****         }
 107:build/OpenMote-CC2538_armgcc/openstack/03a-IPHC/iphc.c ****     }
 108:build/OpenMote-CC2538_armgcc/openstack/03a-IPHC/iphc.c ****    
 109:build/OpenMote-CC2538_armgcc/openstack/03a-IPHC/iphc.c ****     packetfunctions_ip128bToMac64b(&(msg->l3_destinationAdd),&temp_dest_prefix,&temp_dest_mac64b);
 220              		.loc 1 109 0
 221 00a2 FB68     		ldr	r3, [r7, #12]
 222 00a4 03F11501 		add	r1, r3, #21
 223 00a8 07F14C02 		add	r2, r7, #76
 224 00ac 07F13803 		add	r3, r7, #56
 225 00b0 0846     		mov	r0, r1
 226 00b2 1146     		mov	r1, r2
 227 00b4 1A46     		mov	r2, r3
 228 00b6 FFF7FEFF 		bl	packetfunctions_ip128bToMac64b
 110:build/OpenMote-CC2538_armgcc/openstack/03a-IPHC/iphc.c ****     //xv poipoi -- get the src prefix as well
 111:build/OpenMote-CC2538_armgcc/openstack/03a-IPHC/iphc.c ****     packetfunctions_ip128bToMac64b(&(msg->l3_sourceAdd),&temp_src_prefix,&temp_src_mac64b);
 229              		.loc 1 111 0
 230 00ba FB68     		ldr	r3, [r7, #12]
 231 00bc 03F12601 		add	r1, r3, #38
 232 00c0 07F12402 		add	r2, r7, #36
 233 00c4 07F11003 		add	r3, r7, #16
 234 00c8 0846     		mov	r0, r1
 235 00ca 1146     		mov	r1, r2
 236 00cc 1A46     		mov	r2, r3
 237 00ce FFF7FEFF 		bl	packetfunctions_ip128bToMac64b
 112:build/OpenMote-CC2538_armgcc/openstack/03a-IPHC/iphc.c ****     //XV -poipoi we want to check if the source address prefix is the same as destination prefix
 113:build/OpenMote-CC2538_armgcc/openstack/03a-IPHC/iphc.c ****     if (packetfunctions_sameAddress(&temp_dest_prefix,&temp_src_prefix)) {
 238              		.loc 1 113 0
 239 00d2 07F14C02 		add	r2, r7, #76
 240 00d6 07F12403 		add	r3, r7, #36
 241 00da 1046     		mov	r0, r2
 242 00dc 1946     		mov	r1, r3
 243 00de FFF7FEFF 		bl	packetfunctions_sameAddress
 244 00e2 0346     		mov	r3, r0
 245 00e4 002B     		cmp	r3, #0
 246 00e6 03D0     		beq	.L9
 114:build/OpenMote-CC2538_armgcc/openstack/03a-IPHC/iphc.c ****         sam = IPHC_SAM_64B;    // no ipinip 6loRH if in the same prefix
 247              		.loc 1 114 0
 248 00e8 0123     		movs	r3, #1
 249 00ea 87F85F30 		strb	r3, [r7, #95]
 250 00ee 11E0     		b	.L10
 251              	.L9:
 115:build/OpenMote-CC2538_armgcc/openstack/03a-IPHC/iphc.c ****     } else {
 116:build/OpenMote-CC2538_armgcc/openstack/03a-IPHC/iphc.c ****         //not the same prefix. so the packet travels to another network
 117:build/OpenMote-CC2538_armgcc/openstack/03a-IPHC/iphc.c ****         //check if this is a source routing pkt. in case it is then the DAM is elided as it is in t
 118:build/OpenMote-CC2538_armgcc/openstack/03a-IPHC/iphc.c ****         if (packetfunctions_isBroadcastMulticast(&(msg->l3_destinationAdd))==FALSE){
 252              		.loc 1 118 0
 253 00f0 FB68     		ldr	r3, [r7, #12]
 254 00f2 1533     		adds	r3, r3, #21
 255 00f4 1846     		mov	r0, r3
 256 00f6 FFF7FEFF 		bl	packetfunctions_isBroadcastMulticast
 257 00fa 0346     		mov	r3, r0
 258 00fc 83F00103 		eor	r3, r3, #1
 259 0100 DBB2     		uxtb	r3, r3
 260 0102 002B     		cmp	r3, #0
 261 0104 03D0     		beq	.L11
 119:build/OpenMote-CC2538_armgcc/openstack/03a-IPHC/iphc.c ****             // ip in ip will be presented
 120:build/OpenMote-CC2538_armgcc/openstack/03a-IPHC/iphc.c ****             sam = IPHC_SAM_128B;
 262              		.loc 1 120 0
 263 0106 0023     		movs	r3, #0
 264 0108 87F85F30 		strb	r3, [r7, #95]
 265 010c 02E0     		b	.L10
 266              	.L11:
 121:build/OpenMote-CC2538_armgcc/openstack/03a-IPHC/iphc.c ****         } else {
 122:build/OpenMote-CC2538_armgcc/openstack/03a-IPHC/iphc.c ****             // this is DIO, source address elided, multicast bit is set
 123:build/OpenMote-CC2538_armgcc/openstack/03a-IPHC/iphc.c ****             sam = IPHC_SAM_ELIDED;
 267              		.loc 1 123 0
 268 010e 0323     		movs	r3, #3
 269 0110 87F85F30 		strb	r3, [r7, #95]
 270              	.L10:
 124:build/OpenMote-CC2538_armgcc/openstack/03a-IPHC/iphc.c ****         }
 125:build/OpenMote-CC2538_armgcc/openstack/03a-IPHC/iphc.c ****     }
 126:build/OpenMote-CC2538_armgcc/openstack/03a-IPHC/iphc.c **** 
 127:build/OpenMote-CC2538_armgcc/openstack/03a-IPHC/iphc.c ****     //IPinIP 6LoRH will be added at here if necessary.
 128:build/OpenMote-CC2538_armgcc/openstack/03a-IPHC/iphc.c ****     if (packetfunctions_sameAddress(&temp_dest_prefix,&temp_src_prefix)){
 271              		.loc 1 128 0
 272 0114 07F14C02 		add	r2, r7, #76
 273 0118 07F12403 		add	r3, r7, #36
 274 011c 1046     		mov	r0, r2
 275 011e 1946     		mov	r1, r3
 276 0120 FFF7FEFF 		bl	packetfunctions_sameAddress
 277 0124 0346     		mov	r3, r0
 278 0126 002B     		cmp	r3, #0
 279 0128 62D1     		bne	.L12
 129:build/OpenMote-CC2538_armgcc/openstack/03a-IPHC/iphc.c ****         // same network, IPinIP is elided
 130:build/OpenMote-CC2538_armgcc/openstack/03a-IPHC/iphc.c ****     } else {
 131:build/OpenMote-CC2538_armgcc/openstack/03a-IPHC/iphc.c ****         if (packetfunctions_isBroadcastMulticast(&(msg->l3_destinationAdd))==FALSE){
 280              		.loc 1 131 0
 281 012a FB68     		ldr	r3, [r7, #12]
 282 012c 1533     		adds	r3, r3, #21
 283 012e 1846     		mov	r0, r3
 284 0130 FFF7FEFF 		bl	packetfunctions_isBroadcastMulticast
 285 0134 0346     		mov	r3, r0
 286 0136 83F00103 		eor	r3, r3, #1
 287 013a DBB2     		uxtb	r3, r3
 288 013c 002B     		cmp	r3, #0
 289 013e 57D0     		beq	.L12
 132:build/OpenMote-CC2538_armgcc/openstack/03a-IPHC/iphc.c ****             if (
 133:build/OpenMote-CC2538_armgcc/openstack/03a-IPHC/iphc.c ****                 (
 134:build/OpenMote-CC2538_armgcc/openstack/03a-IPHC/iphc.c ****                   ipv6_outer_header->src.type == ADDR_NONE &&
 290              		.loc 1 134 0
 291 0140 BB68     		ldr	r3, [r7, #8]
 292 0142 5B7F     		ldrb	r3, [r3, #29]	@ zero_extendqisi2
 132:build/OpenMote-CC2538_armgcc/openstack/03a-IPHC/iphc.c ****             if (
 293              		.loc 1 132 0
 294 0144 002B     		cmp	r3, #0
 295 0146 08D1     		bne	.L13
 135:build/OpenMote-CC2538_armgcc/openstack/03a-IPHC/iphc.c ****                   packetfunctions_sameAddress(&(msg->l3_sourceAdd),(open_addr_t*)dagroot)
 296              		.loc 1 135 0
 297 0148 FB68     		ldr	r3, [r7, #12]
 298 014a 2633     		adds	r3, r3, #38
 299 014c 1846     		mov	r0, r3
 300 014e 4C49     		ldr	r1, .L22
 301 0150 FFF7FEFF 		bl	packetfunctions_sameAddress
 302 0154 0346     		mov	r3, r0
 134:build/OpenMote-CC2538_armgcc/openstack/03a-IPHC/iphc.c ****                   packetfunctions_sameAddress(&(msg->l3_sourceAdd),(open_addr_t*)dagroot)
 303              		.loc 1 134 0
 304 0156 002B     		cmp	r3, #0
 305 0158 0CD1     		bne	.L14
 306              	.L13:
 136:build/OpenMote-CC2538_armgcc/openstack/03a-IPHC/iphc.c ****                 ) || 
 137:build/OpenMote-CC2538_armgcc/openstack/03a-IPHC/iphc.c ****                 (
 138:build/OpenMote-CC2538_armgcc/openstack/03a-IPHC/iphc.c ****                   ipv6_outer_header->src.type != ADDR_NONE &&
 307              		.loc 1 138 0
 308 015a BB68     		ldr	r3, [r7, #8]
 309 015c 5B7F     		ldrb	r3, [r3, #29]	@ zero_extendqisi2
 136:build/OpenMote-CC2538_armgcc/openstack/03a-IPHC/iphc.c ****                 ) || 
 310              		.loc 1 136 0
 311 015e 002B     		cmp	r3, #0
 312 0160 22D0     		beq	.L15
 139:build/OpenMote-CC2538_armgcc/openstack/03a-IPHC/iphc.c ****                   packetfunctions_sameAddress(&(ipv6_outer_header->src),(open_addr_t*)dagroot)
 313              		.loc 1 139 0
 314 0162 BB68     		ldr	r3, [r7, #8]
 315 0164 1D33     		adds	r3, r3, #29
 316 0166 1846     		mov	r0, r3
 317 0168 4549     		ldr	r1, .L22
 318 016a FFF7FEFF 		bl	packetfunctions_sameAddress
 319 016e 0346     		mov	r3, r0
 138:build/OpenMote-CC2538_armgcc/openstack/03a-IPHC/iphc.c ****                   packetfunctions_sameAddress(&(ipv6_outer_header->src),(open_addr_t*)dagroot)
 320              		.loc 1 138 0
 321 0170 002B     		cmp	r3, #0
 322 0172 19D0     		beq	.L15
 323              	.L14:
 140:build/OpenMote-CC2538_armgcc/openstack/03a-IPHC/iphc.c ****                  )
 141:build/OpenMote-CC2538_armgcc/openstack/03a-IPHC/iphc.c ****             ){
 142:build/OpenMote-CC2538_armgcc/openstack/03a-IPHC/iphc.c ****                 // hop limit
 143:build/OpenMote-CC2538_armgcc/openstack/03a-IPHC/iphc.c ****                 packetfunctions_reserveHeaderSize(msg,sizeof(uint8_t));
 324              		.loc 1 143 0
 325 0174 F868     		ldr	r0, [r7, #12]
 326 0176 0121     		movs	r1, #1
 327 0178 FFF7FEFF 		bl	packetfunctions_reserveHeaderSize
 144:build/OpenMote-CC2538_armgcc/openstack/03a-IPHC/iphc.c ****                 *((uint8_t*)(msg->payload)) = ipv6_outer_header->hop_limit;
 328              		.loc 1 144 0
 329 017c FB68     		ldr	r3, [r7, #12]
 330 017e 5B68     		ldr	r3, [r3, #4]
 331 0180 BA68     		ldr	r2, [r7, #8]
 332 0182 127F     		ldrb	r2, [r2, #28]	@ zero_extendqisi2
 333 0184 1A70     		strb	r2, [r3]
 145:build/OpenMote-CC2538_armgcc/openstack/03a-IPHC/iphc.c ****                 // type
 146:build/OpenMote-CC2538_armgcc/openstack/03a-IPHC/iphc.c ****                 packetfunctions_reserveHeaderSize(msg,sizeof(uint8_t));
 334              		.loc 1 146 0
 335 0186 F868     		ldr	r0, [r7, #12]
 336 0188 0121     		movs	r1, #1
 337 018a FFF7FEFF 		bl	packetfunctions_reserveHeaderSize
 147:build/OpenMote-CC2538_armgcc/openstack/03a-IPHC/iphc.c ****                 *((uint8_t*)(msg->payload)) = IPECAP_6LOTH_TYPE;
 338              		.loc 1 147 0
 339 018e FB68     		ldr	r3, [r7, #12]
 340 0190 5B68     		ldr	r3, [r3, #4]
 341 0192 0622     		movs	r2, #6
 342 0194 1A70     		strb	r2, [r3]
 148:build/OpenMote-CC2538_armgcc/openstack/03a-IPHC/iphc.c ****                 // length 
 149:build/OpenMote-CC2538_armgcc/openstack/03a-IPHC/iphc.c ****                 packetfunctions_reserveHeaderSize(msg,sizeof(uint8_t));
 343              		.loc 1 149 0
 344 0196 F868     		ldr	r0, [r7, #12]
 345 0198 0121     		movs	r1, #1
 346 019a FFF7FEFF 		bl	packetfunctions_reserveHeaderSize
 150:build/OpenMote-CC2538_armgcc/openstack/03a-IPHC/iphc.c ****                 *((uint8_t*)(msg->payload)) = ELECTIVE_6LoRH | 1;
 347              		.loc 1 150 0
 348 019e FB68     		ldr	r3, [r7, #12]
 349 01a0 5B68     		ldr	r3, [r3, #4]
 350 01a2 A122     		movs	r2, #161
 351 01a4 1A70     		strb	r2, [r3]
 352 01a6 23E0     		b	.L12
 353              	.L15:
 151:build/OpenMote-CC2538_armgcc/openstack/03a-IPHC/iphc.c ****             }
 152:build/OpenMote-CC2538_armgcc/openstack/03a-IPHC/iphc.c ****             else {
 153:build/OpenMote-CC2538_armgcc/openstack/03a-IPHC/iphc.c ****                 if (sam == IPHC_SAM_128B){
 354              		.loc 1 153 0
 355 01a8 97F85F30 		ldrb	r3, [r7, #95]	@ zero_extendqisi2
 356 01ac 002B     		cmp	r3, #0
 357 01ae 1FD1     		bne	.L12
 154:build/OpenMote-CC2538_armgcc/openstack/03a-IPHC/iphc.c ****                     // encapsulate address
 155:build/OpenMote-CC2538_armgcc/openstack/03a-IPHC/iphc.c ****                     packetfunctions_writeAddress(msg, &(msg->l3_sourceAdd),OW_BIG_ENDIAN);
 358              		.loc 1 155 0
 359 01b0 FB68     		ldr	r3, [r7, #12]
 360 01b2 2633     		adds	r3, r3, #38
 361 01b4 F868     		ldr	r0, [r7, #12]
 362 01b6 1946     		mov	r1, r3
 363 01b8 0022     		movs	r2, #0
 364 01ba FFF7FEFF 		bl	packetfunctions_writeAddress
 156:build/OpenMote-CC2538_armgcc/openstack/03a-IPHC/iphc.c ****                     // hoplim
 157:build/OpenMote-CC2538_armgcc/openstack/03a-IPHC/iphc.c ****                     packetfunctions_reserveHeaderSize(msg,sizeof(uint8_t));
 365              		.loc 1 157 0
 366 01be F868     		ldr	r0, [r7, #12]
 367 01c0 0121     		movs	r1, #1
 368 01c2 FFF7FEFF 		bl	packetfunctions_reserveHeaderSize
 158:build/OpenMote-CC2538_armgcc/openstack/03a-IPHC/iphc.c ****                     *((uint8_t*)(msg->payload)) = ipv6_outer_header->hop_limit;
 369              		.loc 1 158 0
 370 01c6 FB68     		ldr	r3, [r7, #12]
 371 01c8 5B68     		ldr	r3, [r3, #4]
 372 01ca BA68     		ldr	r2, [r7, #8]
 373 01cc 127F     		ldrb	r2, [r2, #28]	@ zero_extendqisi2
 374 01ce 1A70     		strb	r2, [r3]
 159:build/OpenMote-CC2538_armgcc/openstack/03a-IPHC/iphc.c ****                     // type
 160:build/OpenMote-CC2538_armgcc/openstack/03a-IPHC/iphc.c ****                     packetfunctions_reserveHeaderSize(msg,sizeof(uint8_t));
 375              		.loc 1 160 0
 376 01d0 F868     		ldr	r0, [r7, #12]
 377 01d2 0121     		movs	r1, #1
 378 01d4 FFF7FEFF 		bl	packetfunctions_reserveHeaderSize
 161:build/OpenMote-CC2538_armgcc/openstack/03a-IPHC/iphc.c ****                     *((uint8_t*)(msg->payload)) = IPECAP_6LOTH_TYPE;
 379              		.loc 1 161 0
 380 01d8 FB68     		ldr	r3, [r7, #12]
 381 01da 5B68     		ldr	r3, [r3, #4]
 382 01dc 0622     		movs	r2, #6
 383 01de 1A70     		strb	r2, [r3]
 162:build/OpenMote-CC2538_armgcc/openstack/03a-IPHC/iphc.c ****                     // length
 163:build/OpenMote-CC2538_armgcc/openstack/03a-IPHC/iphc.c ****                     packetfunctions_reserveHeaderSize(msg,sizeof(uint8_t));
 384              		.loc 1 163 0
 385 01e0 F868     		ldr	r0, [r7, #12]
 386 01e2 0121     		movs	r1, #1
 387 01e4 FFF7FEFF 		bl	packetfunctions_reserveHeaderSize
 164:build/OpenMote-CC2538_armgcc/openstack/03a-IPHC/iphc.c ****                     *((uint8_t*)(msg->payload)) = ELECTIVE_6LoRH | 17;
 388              		.loc 1 164 0
 389 01e8 FB68     		ldr	r3, [r7, #12]
 390 01ea 5B68     		ldr	r3, [r3, #4]
 391 01ec B122     		movs	r2, #177
 392 01ee 1A70     		strb	r2, [r3]
 393              	.L12:
 165:build/OpenMote-CC2538_armgcc/openstack/03a-IPHC/iphc.c ****                 }
 166:build/OpenMote-CC2538_armgcc/openstack/03a-IPHC/iphc.c ****             }
 167:build/OpenMote-CC2538_armgcc/openstack/03a-IPHC/iphc.c ****         } else {
 168:build/OpenMote-CC2538_armgcc/openstack/03a-IPHC/iphc.c ****             // this is DIO, no IPinIP either
 169:build/OpenMote-CC2538_armgcc/openstack/03a-IPHC/iphc.c ****         }
 170:build/OpenMote-CC2538_armgcc/openstack/03a-IPHC/iphc.c ****     }
 171:build/OpenMote-CC2538_armgcc/openstack/03a-IPHC/iphc.c ****     
 172:build/OpenMote-CC2538_armgcc/openstack/03a-IPHC/iphc.c ****     //prepend Option hop by hop header except when src routing and dst is not 0xffff
 173:build/OpenMote-CC2538_armgcc/openstack/03a-IPHC/iphc.c ****     //-- this is a little trick as src routing is using an option header set to 0x00
 174:build/OpenMote-CC2538_armgcc/openstack/03a-IPHC/iphc.c ****     if (
 175:build/OpenMote-CC2538_armgcc/openstack/03a-IPHC/iphc.c ****         rpl_option->optionType==RPL_HOPBYHOP_HEADER_OPTION_TYPE && 
 394              		.loc 1 175 0
 395 01f0 3B68     		ldr	r3, [r7]
 396 01f2 1B78     		ldrb	r3, [r3]	@ zero_extendqisi2
 174:build/OpenMote-CC2538_armgcc/openstack/03a-IPHC/iphc.c ****         rpl_option->optionType==RPL_HOPBYHOP_HEADER_OPTION_TYPE && 
 397              		.loc 1 174 0
 398 01f4 632B     		cmp	r3, #99
 399 01f6 11D1     		bne	.L17
 176:build/OpenMote-CC2538_armgcc/openstack/03a-IPHC/iphc.c ****         packetfunctions_isBroadcastMulticast(&(msg->l3_destinationAdd))==FALSE
 400              		.loc 1 176 0
 401 01f8 FB68     		ldr	r3, [r7, #12]
 402 01fa 1533     		adds	r3, r3, #21
 403 01fc 1846     		mov	r0, r3
 404 01fe FFF7FEFF 		bl	packetfunctions_isBroadcastMulticast
 405 0202 0346     		mov	r3, r0
 406 0204 83F00103 		eor	r3, r3, #1
 407 0208 DBB2     		uxtb	r3, r3
 175:build/OpenMote-CC2538_armgcc/openstack/03a-IPHC/iphc.c ****         packetfunctions_isBroadcastMulticast(&(msg->l3_destinationAdd))==FALSE
 408              		.loc 1 175 0
 409 020a 002B     		cmp	r3, #0
 410 020c 06D0     		beq	.L17
 177:build/OpenMote-CC2538_armgcc/openstack/03a-IPHC/iphc.c ****     ){
 178:build/OpenMote-CC2538_armgcc/openstack/03a-IPHC/iphc.c ****         iphc_prependIPv6HopByHopHeader(msg, msg->l4_protocol, rpl_option);
 411              		.loc 1 178 0
 412 020e FB68     		ldr	r3, [r7, #12]
 413 0210 5B7A     		ldrb	r3, [r3, #9]	@ zero_extendqisi2
 414 0212 F868     		ldr	r0, [r7, #12]
 415 0214 1946     		mov	r1, r3
 416 0216 3A68     		ldr	r2, [r7]
 417 0218 FFF7FEFF 		bl	iphc_prependIPv6HopByHopHeader
 418              	.L17:
 179:build/OpenMote-CC2538_armgcc/openstack/03a-IPHC/iphc.c ****     }
 180:build/OpenMote-CC2538_armgcc/openstack/03a-IPHC/iphc.c ****     
 181:build/OpenMote-CC2538_armgcc/openstack/03a-IPHC/iphc.c ****     // copy RH3s back if length > 0
 182:build/OpenMote-CC2538_armgcc/openstack/03a-IPHC/iphc.c ****     if (rh3_length > 0){
 419              		.loc 1 182 0
 420 021c 97F87030 		ldrb	r3, [r7, #112]	@ zero_extendqisi2
 421 0220 002B     		cmp	r3, #0
 422 0222 0ED0     		beq	.L18
 183:build/OpenMote-CC2538_armgcc/openstack/03a-IPHC/iphc.c ****         packetfunctions_reserveHeaderSize(msg,rh3_length);
 423              		.loc 1 183 0
 424 0224 97F87030 		ldrb	r3, [r7, #112]	@ zero_extendqisi2
 425 0228 F868     		ldr	r0, [r7, #12]
 426 022a 1946     		mov	r1, r3
 427 022c FFF7FEFF 		bl	packetfunctions_reserveHeaderSize
 184:build/OpenMote-CC2538_armgcc/openstack/03a-IPHC/iphc.c ****         memcpy(&msg->payload[0],&rh3_copy[0],rh3_length);
 428              		.loc 1 184 0
 429 0230 FB68     		ldr	r3, [r7, #12]
 430 0232 5A68     		ldr	r2, [r3, #4]
 431 0234 97F87030 		ldrb	r3, [r7, #112]	@ zero_extendqisi2
 432 0238 1046     		mov	r0, r2
 433 023a F96E     		ldr	r1, [r7, #108]
 434 023c 1A46     		mov	r2, r3
 435 023e FFF7FEFF 		bl	memcpy
 436              	.L18:
 185:build/OpenMote-CC2538_armgcc/openstack/03a-IPHC/iphc.c ****     }
 186:build/OpenMote-CC2538_armgcc/openstack/03a-IPHC/iphc.c ****     
 187:build/OpenMote-CC2538_armgcc/openstack/03a-IPHC/iphc.c ****     // if there are 6LoRH in the packet, add page dispatch no.1
 188:build/OpenMote-CC2538_armgcc/openstack/03a-IPHC/iphc.c ****     if (
 189:build/OpenMote-CC2538_armgcc/openstack/03a-IPHC/iphc.c ****         (*((uint8_t*)(msg->payload)) & FORMAT_6LORH_MASK) == CRITICAL_6LORH ||
 437              		.loc 1 189 0
 438 0242 FB68     		ldr	r3, [r7, #12]
 439 0244 5B68     		ldr	r3, [r3, #4]
 440 0246 1B78     		ldrb	r3, [r3]	@ zero_extendqisi2
 441 0248 03F0E003 		and	r3, r3, #224
 188:build/OpenMote-CC2538_armgcc/openstack/03a-IPHC/iphc.c ****         (*((uint8_t*)(msg->payload)) & FORMAT_6LORH_MASK) == CRITICAL_6LORH ||
 442              		.loc 1 188 0
 443 024c 802B     		cmp	r3, #128
 444 024e 06D0     		beq	.L19
 190:build/OpenMote-CC2538_armgcc/openstack/03a-IPHC/iphc.c ****         (*((uint8_t*)(msg->payload)) & FORMAT_6LORH_MASK) == ELECTIVE_6LoRH
 445              		.loc 1 190 0
 446 0250 FB68     		ldr	r3, [r7, #12]
 447 0252 5B68     		ldr	r3, [r3, #4]
 448 0254 1B78     		ldrb	r3, [r3]	@ zero_extendqisi2
 449 0256 03F0E003 		and	r3, r3, #224
 189:build/OpenMote-CC2538_armgcc/openstack/03a-IPHC/iphc.c ****         (*((uint8_t*)(msg->payload)) & FORMAT_6LORH_MASK) == ELECTIVE_6LoRH
 450              		.loc 1 189 0
 451 025a A02B     		cmp	r3, #160
 452 025c 07D1     		bne	.L20
 453              	.L19:
 191:build/OpenMote-CC2538_armgcc/openstack/03a-IPHC/iphc.c ****     ){
 192:build/OpenMote-CC2538_armgcc/openstack/03a-IPHC/iphc.c ****         packetfunctions_reserveHeaderSize(msg,sizeof(uint8_t));
 454              		.loc 1 192 0
 455 025e F868     		ldr	r0, [r7, #12]
 456 0260 0121     		movs	r1, #1
 457 0262 FFF7FEFF 		bl	packetfunctions_reserveHeaderSize
 193:build/OpenMote-CC2538_armgcc/openstack/03a-IPHC/iphc.c ****         *((uint8_t*)(msg->payload)) = PAGE_DISPATCH_NO_1;
 458              		.loc 1 193 0
 459 0266 FB68     		ldr	r3, [r7, #12]
 460 0268 5B68     		ldr	r3, [r3, #4]
 461 026a F122     		movs	r2, #241
 462 026c 1A70     		strb	r2, [r3]
 463              	.L20:
 194:build/OpenMote-CC2538_armgcc/openstack/03a-IPHC/iphc.c ****     }
 195:build/OpenMote-CC2538_armgcc/openstack/03a-IPHC/iphc.c ****     
 196:build/OpenMote-CC2538_armgcc/openstack/03a-IPHC/iphc.c ****     return sixtop_send(msg);
 464              		.loc 1 196 0
 465 026e F868     		ldr	r0, [r7, #12]
 466 0270 FFF7FEFF 		bl	sixtop_send
 467 0274 0346     		mov	r3, r0
 468              	.L21:
 197:build/OpenMote-CC2538_armgcc/openstack/03a-IPHC/iphc.c **** }
 469              		.loc 1 197 0 discriminator 1
 470 0276 1846     		mov	r0, r3
 471 0278 6037     		adds	r7, r7, #96
 472              		.cfi_def_cfa_offset 8
 473 027a BD46     		mov	sp, r7
 474              		.cfi_def_cfa_register 13
 475              		@ sp needed
 476 027c 80BD     		pop	{r7, pc}
 477              	.L23:
 478 027e 00BF     		.align	2
 479              	.L22:
 480 0280 40000000 		.word	dagroot
 481              		.cfi_endproc
 482              	.LFE1:
 484              		.align	2
 485              		.global	iphc_sendFromBridge
 486              		.thumb
 487              		.thumb_func
 489              	iphc_sendFromBridge:
 490              	.LFB2:
 198:build/OpenMote-CC2538_armgcc/openstack/03a-IPHC/iphc.c **** 
 199:build/OpenMote-CC2538_armgcc/openstack/03a-IPHC/iphc.c **** //send from bridge: 6LoWPAN header already added by OpenLBR, send as is
 200:build/OpenMote-CC2538_armgcc/openstack/03a-IPHC/iphc.c **** owerror_t iphc_sendFromBridge(OpenQueueEntry_t *msg) {
 491              		.loc 1 200 0
 492              		.cfi_startproc
 493              		@ args = 0, pretend = 0, frame = 8
 494              		@ frame_needed = 1, uses_anonymous_args = 0
 495 0284 80B5     		push	{r7, lr}
 496              		.cfi_def_cfa_offset 8
 497              		.cfi_offset 7, -8
 498              		.cfi_offset 14, -4
 499 0286 82B0     		sub	sp, sp, #8
 500              		.cfi_def_cfa_offset 16
 501 0288 00AF     		add	r7, sp, #0
 502              		.cfi_def_cfa_register 7
 503 028a 7860     		str	r0, [r7, #4]
 201:build/OpenMote-CC2538_armgcc/openstack/03a-IPHC/iphc.c ****    msg->owner = COMPONENT_IPHC;
 504              		.loc 1 201 0
 505 028c 7B68     		ldr	r3, [r7, #4]
 506 028e 1122     		movs	r2, #17
 507 0290 5A70     		strb	r2, [r3, #1]
 202:build/OpenMote-CC2538_armgcc/openstack/03a-IPHC/iphc.c ****    // error checking
 203:build/OpenMote-CC2538_armgcc/openstack/03a-IPHC/iphc.c ****    if (idmanager_getIsDAGroot()==FALSE) {
 508              		.loc 1 203 0
 509 0292 FFF7FEFF 		bl	idmanager_getIsDAGroot
 510 0296 0346     		mov	r3, r0
 511 0298 83F00103 		eor	r3, r3, #1
 512 029c DBB2     		uxtb	r3, r3
 513 029e 002B     		cmp	r3, #0
 514 02a0 07D0     		beq	.L25
 204:build/OpenMote-CC2538_armgcc/openstack/03a-IPHC/iphc.c ****       openserial_printCritical(COMPONENT_IPHC,ERR_BRIDGE_MISMATCH,
 515              		.loc 1 204 0
 516 02a2 1120     		movs	r0, #17
 517 02a4 3221     		movs	r1, #50
 518 02a6 0122     		movs	r2, #1
 519 02a8 0023     		movs	r3, #0
 520 02aa FFF7FEFF 		bl	openserial_printCritical
 205:build/OpenMote-CC2538_armgcc/openstack/03a-IPHC/iphc.c ****                             (errorparameter_t)1,
 206:build/OpenMote-CC2538_armgcc/openstack/03a-IPHC/iphc.c ****                             (errorparameter_t)0);
 207:build/OpenMote-CC2538_armgcc/openstack/03a-IPHC/iphc.c ****       return E_FAIL;
 521              		.loc 1 207 0
 522 02ae 0123     		movs	r3, #1
 523 02b0 03E0     		b	.L26
 524              	.L25:
 208:build/OpenMote-CC2538_armgcc/openstack/03a-IPHC/iphc.c ****    }
 209:build/OpenMote-CC2538_armgcc/openstack/03a-IPHC/iphc.c ****    return sixtop_send(msg);
 525              		.loc 1 209 0
 526 02b2 7868     		ldr	r0, [r7, #4]
 527 02b4 FFF7FEFF 		bl	sixtop_send
 528 02b8 0346     		mov	r3, r0
 529              	.L26:
 210:build/OpenMote-CC2538_armgcc/openstack/03a-IPHC/iphc.c **** }
 530              		.loc 1 210 0
 531 02ba 1846     		mov	r0, r3
 532 02bc 0837     		adds	r7, r7, #8
 533              		.cfi_def_cfa_offset 8
 534 02be BD46     		mov	sp, r7
 535              		.cfi_def_cfa_register 13
 536              		@ sp needed
 537 02c0 80BD     		pop	{r7, pc}
 538              		.cfi_endproc
 539              	.LFE2:
 541 02c2 00BF     		.align	2
 542              		.global	iphc_sendDone
 543              		.thumb
 544              		.thumb_func
 546              	iphc_sendDone:
 547              	.LFB3:
 211:build/OpenMote-CC2538_armgcc/openstack/03a-IPHC/iphc.c **** 
 212:build/OpenMote-CC2538_armgcc/openstack/03a-IPHC/iphc.c **** void iphc_sendDone(OpenQueueEntry_t* msg, owerror_t error) {
 548              		.loc 1 212 0
 549              		.cfi_startproc
 550              		@ args = 0, pretend = 0, frame = 8
 551              		@ frame_needed = 1, uses_anonymous_args = 0
 552 02c4 80B5     		push	{r7, lr}
 553              		.cfi_def_cfa_offset 8
 554              		.cfi_offset 7, -8
 555              		.cfi_offset 14, -4
 556 02c6 82B0     		sub	sp, sp, #8
 557              		.cfi_def_cfa_offset 16
 558 02c8 00AF     		add	r7, sp, #0
 559              		.cfi_def_cfa_register 7
 560 02ca 7860     		str	r0, [r7, #4]
 561 02cc 0B46     		mov	r3, r1
 562 02ce FB70     		strb	r3, [r7, #3]
 213:build/OpenMote-CC2538_armgcc/openstack/03a-IPHC/iphc.c ****    msg->owner = COMPONENT_IPHC;
 563              		.loc 1 213 0
 564 02d0 7B68     		ldr	r3, [r7, #4]
 565 02d2 1122     		movs	r2, #17
 566 02d4 5A70     		strb	r2, [r3, #1]
 214:build/OpenMote-CC2538_armgcc/openstack/03a-IPHC/iphc.c ****    if (msg->creator==COMPONENT_OPENBRIDGE) {
 567              		.loc 1 214 0
 568 02d6 7B68     		ldr	r3, [r7, #4]
 569 02d8 1B78     		ldrb	r3, [r3]	@ zero_extendqisi2
 570 02da 102B     		cmp	r3, #16
 571 02dc 05D1     		bne	.L28
 215:build/OpenMote-CC2538_armgcc/openstack/03a-IPHC/iphc.c ****       openbridge_sendDone(msg,error);
 572              		.loc 1 215 0
 573 02de FB78     		ldrb	r3, [r7, #3]	@ zero_extendqisi2
 574 02e0 7868     		ldr	r0, [r7, #4]
 575 02e2 1946     		mov	r1, r3
 576 02e4 FFF7FEFF 		bl	openbridge_sendDone
 577 02e8 04E0     		b	.L27
 578              	.L28:
 216:build/OpenMote-CC2538_armgcc/openstack/03a-IPHC/iphc.c ****    } else {
 217:build/OpenMote-CC2538_armgcc/openstack/03a-IPHC/iphc.c ****       forwarding_sendDone(msg,error);
 579              		.loc 1 217 0
 580 02ea FB78     		ldrb	r3, [r7, #3]	@ zero_extendqisi2
 581 02ec 7868     		ldr	r0, [r7, #4]
 582 02ee 1946     		mov	r1, r3
 583 02f0 FFF7FEFF 		bl	forwarding_sendDone
 584              	.L27:
 218:build/OpenMote-CC2538_armgcc/openstack/03a-IPHC/iphc.c ****    }
 219:build/OpenMote-CC2538_armgcc/openstack/03a-IPHC/iphc.c **** }
 585              		.loc 1 219 0
 586 02f4 0837     		adds	r7, r7, #8
 587              		.cfi_def_cfa_offset 8
 588 02f6 BD46     		mov	sp, r7
 589              		.cfi_def_cfa_register 13
 590              		@ sp needed
 591 02f8 80BD     		pop	{r7, pc}
 592              		.cfi_endproc
 593              	.LFE3:
 595 02fa 00BF     		.align	2
 596              		.global	iphc_receive
 597              		.thumb
 598              		.thumb_func
 600              	iphc_receive:
 601              	.LFB4:
 220:build/OpenMote-CC2538_armgcc/openstack/03a-IPHC/iphc.c **** 
 221:build/OpenMote-CC2538_armgcc/openstack/03a-IPHC/iphc.c **** void iphc_receive(OpenQueueEntry_t* msg) {
 602              		.loc 1 221 0
 603              		.cfi_startproc
 604              		@ args = 0, pretend = 0, frame = 152
 605              		@ frame_needed = 1, uses_anonymous_args = 0
 606 02fc 80B5     		push	{r7, lr}
 607              		.cfi_def_cfa_offset 8
 608              		.cfi_offset 7, -8
 609              		.cfi_offset 14, -4
 610 02fe A6B0     		sub	sp, sp, #152
 611              		.cfi_def_cfa_offset 160
 612 0300 00AF     		add	r7, sp, #0
 613              		.cfi_def_cfa_register 7
 614 0302 7860     		str	r0, [r7, #4]
 222:build/OpenMote-CC2538_armgcc/openstack/03a-IPHC/iphc.c ****     ipv6_header_iht      ipv6_outer_header;
 223:build/OpenMote-CC2538_armgcc/openstack/03a-IPHC/iphc.c ****     ipv6_header_iht      ipv6_inner_header;
 224:build/OpenMote-CC2538_armgcc/openstack/03a-IPHC/iphc.c ****     uint8_t              page_length;
 225:build/OpenMote-CC2538_armgcc/openstack/03a-IPHC/iphc.c ****     rpl_option_ht        rpl_option;
 226:build/OpenMote-CC2538_armgcc/openstack/03a-IPHC/iphc.c ****     uint8_t              rpi_length;
 227:build/OpenMote-CC2538_armgcc/openstack/03a-IPHC/iphc.c ****    
 228:build/OpenMote-CC2538_armgcc/openstack/03a-IPHC/iphc.c ****     msg->owner      = COMPONENT_IPHC;
 615              		.loc 1 228 0
 616 0304 7B68     		ldr	r3, [r7, #4]
 617 0306 1122     		movs	r2, #17
 618 0308 5A70     		strb	r2, [r3, #1]
 229:build/OpenMote-CC2538_armgcc/openstack/03a-IPHC/iphc.c ****    
 230:build/OpenMote-CC2538_armgcc/openstack/03a-IPHC/iphc.c ****     memset(&ipv6_outer_header,0,sizeof(ipv6_header_iht));
 619              		.loc 1 230 0
 620 030a 07F15403 		add	r3, r7, #84
 621 030e 1846     		mov	r0, r3
 622 0310 0021     		movs	r1, #0
 623 0312 4022     		movs	r2, #64
 624 0314 FFF7FEFF 		bl	memset
 231:build/OpenMote-CC2538_armgcc/openstack/03a-IPHC/iphc.c ****     memset(&ipv6_inner_header,0,sizeof(ipv6_header_iht));
 625              		.loc 1 231 0
 626 0318 07F11403 		add	r3, r7, #20
 627 031c 1846     		mov	r0, r3
 628 031e 0021     		movs	r1, #0
 629 0320 4022     		movs	r2, #64
 630 0322 FFF7FEFF 		bl	memset
 232:build/OpenMote-CC2538_armgcc/openstack/03a-IPHC/iphc.c ****     memset(&rpl_option,0,sizeof(rpl_option_ht));
 631              		.loc 1 232 0
 632 0326 07F10C03 		add	r3, r7, #12
 633 032a 1846     		mov	r0, r3
 634 032c 0021     		movs	r1, #0
 635 032e 0522     		movs	r2, #5
 636 0330 FFF7FEFF 		bl	memset
 233:build/OpenMote-CC2538_armgcc/openstack/03a-IPHC/iphc.c ****     
 234:build/OpenMote-CC2538_armgcc/openstack/03a-IPHC/iphc.c ****     // then regular header
 235:build/OpenMote-CC2538_armgcc/openstack/03a-IPHC/iphc.c ****     iphc_retrieveIPv6Header(msg,&ipv6_outer_header,&ipv6_inner_header,&page_length);
 637              		.loc 1 235 0
 638 0334 07F15401 		add	r1, r7, #84
 639 0338 07F11402 		add	r2, r7, #20
 640 033c 07F11303 		add	r3, r7, #19
 641 0340 7868     		ldr	r0, [r7, #4]
 642 0342 FFF7FEFF 		bl	iphc_retrieveIPv6Header
 236:build/OpenMote-CC2538_armgcc/openstack/03a-IPHC/iphc.c ****     
 237:build/OpenMote-CC2538_armgcc/openstack/03a-IPHC/iphc.c ****     // if the address is broadcast address, the ipv6 header is the inner header
 238:build/OpenMote-CC2538_armgcc/openstack/03a-IPHC/iphc.c ****     if (
 239:build/OpenMote-CC2538_armgcc/openstack/03a-IPHC/iphc.c ****         idmanager_getIsDAGroot()==FALSE ||
 643              		.loc 1 239 0
 644 0346 FFF7FEFF 		bl	idmanager_getIsDAGroot
 645 034a 0346     		mov	r3, r0
 646 034c 83F00103 		eor	r3, r3, #1
 647 0350 DBB2     		uxtb	r3, r3
 238:build/OpenMote-CC2538_armgcc/openstack/03a-IPHC/iphc.c ****         idmanager_getIsDAGroot()==FALSE ||
 648              		.loc 1 238 0
 649 0352 002B     		cmp	r3, #0
 650 0354 08D1     		bne	.L31
 240:build/OpenMote-CC2538_armgcc/openstack/03a-IPHC/iphc.c ****         packetfunctions_isBroadcastMulticast(&(ipv6_inner_header.dest))
 651              		.loc 1 240 0
 652 0356 07F11403 		add	r3, r7, #20
 653 035a 2E33     		adds	r3, r3, #46
 654 035c 1846     		mov	r0, r3
 655 035e FFF7FEFF 		bl	packetfunctions_isBroadcastMulticast
 656 0362 0346     		mov	r3, r0
 239:build/OpenMote-CC2538_armgcc/openstack/03a-IPHC/iphc.c ****         packetfunctions_isBroadcastMulticast(&(ipv6_inner_header.dest))
 657              		.loc 1 239 0
 658 0364 002B     		cmp	r3, #0
 659 0366 24D0     		beq	.L32
 660              	.L31:
 241:build/OpenMote-CC2538_armgcc/openstack/03a-IPHC/iphc.c ****     ) {
 242:build/OpenMote-CC2538_armgcc/openstack/03a-IPHC/iphc.c ****         packetfunctions_tossHeader(msg,page_length);
 661              		.loc 1 242 0
 662 0368 FB7C     		ldrb	r3, [r7, #19]	@ zero_extendqisi2
 663 036a 7868     		ldr	r0, [r7, #4]
 664 036c 1946     		mov	r1, r3
 665 036e FFF7FEFF 		bl	packetfunctions_tossHeader
 243:build/OpenMote-CC2538_armgcc/openstack/03a-IPHC/iphc.c ****         if (
 244:build/OpenMote-CC2538_armgcc/openstack/03a-IPHC/iphc.c ****             ipv6_outer_header.next_header==IANA_IPv6HOPOPT &&
 666              		.loc 1 244 0
 667 0372 97F85D30 		ldrb	r3, [r7, #93]	@ zero_extendqisi2
 243:build/OpenMote-CC2538_armgcc/openstack/03a-IPHC/iphc.c ****         if (
 668              		.loc 1 243 0
 669 0376 002B     		cmp	r3, #0
 670 0378 11D1     		bne	.L33
 245:build/OpenMote-CC2538_armgcc/openstack/03a-IPHC/iphc.c ****             ipv6_outer_header.hopByhop_option != NULL
 671              		.loc 1 245 0
 672 037a FB6E     		ldr	r3, [r7, #108]
 244:build/OpenMote-CC2538_armgcc/openstack/03a-IPHC/iphc.c ****             ipv6_outer_header.hopByhop_option != NULL
 673              		.loc 1 244 0
 674 037c 002B     		cmp	r3, #0
 675 037e 0ED0     		beq	.L33
 246:build/OpenMote-CC2538_armgcc/openstack/03a-IPHC/iphc.c ****         ) {
 247:build/OpenMote-CC2538_armgcc/openstack/03a-IPHC/iphc.c ****             // retrieve hop-by-hop header (includes RPL option)
 248:build/OpenMote-CC2538_armgcc/openstack/03a-IPHC/iphc.c ****             rpi_length = iphc_retrieveIPv6HopByHopHeader(
 676              		.loc 1 248 0
 677 0380 07F10C03 		add	r3, r7, #12
 678 0384 7868     		ldr	r0, [r7, #4]
 679 0386 1946     		mov	r1, r3
 680 0388 FFF7FEFF 		bl	iphc_retrieveIPv6HopByHopHeader
 681 038c 0346     		mov	r3, r0
 682 038e 87F89730 		strb	r3, [r7, #151]
 249:build/OpenMote-CC2538_armgcc/openstack/03a-IPHC/iphc.c ****                               msg,
 250:build/OpenMote-CC2538_armgcc/openstack/03a-IPHC/iphc.c ****                               &rpl_option
 251:build/OpenMote-CC2538_armgcc/openstack/03a-IPHC/iphc.c ****                          );
 252:build/OpenMote-CC2538_armgcc/openstack/03a-IPHC/iphc.c ****          
 253:build/OpenMote-CC2538_armgcc/openstack/03a-IPHC/iphc.c ****             // toss the headers
 254:build/OpenMote-CC2538_armgcc/openstack/03a-IPHC/iphc.c ****             packetfunctions_tossHeader(
 683              		.loc 1 254 0
 684 0392 97F89730 		ldrb	r3, [r7, #151]	@ zero_extendqisi2
 685 0396 7868     		ldr	r0, [r7, #4]
 686 0398 1946     		mov	r1, r3
 687 039a FFF7FEFF 		bl	packetfunctions_tossHeader
 688              	.L33:
 255:build/OpenMote-CC2538_armgcc/openstack/03a-IPHC/iphc.c ****                 msg,
 256:build/OpenMote-CC2538_armgcc/openstack/03a-IPHC/iphc.c ****                 rpi_length
 257:build/OpenMote-CC2538_armgcc/openstack/03a-IPHC/iphc.c ****             );
 258:build/OpenMote-CC2538_armgcc/openstack/03a-IPHC/iphc.c ****         }
 259:build/OpenMote-CC2538_armgcc/openstack/03a-IPHC/iphc.c ****       
 260:build/OpenMote-CC2538_armgcc/openstack/03a-IPHC/iphc.c ****         // send up the stack
 261:build/OpenMote-CC2538_armgcc/openstack/03a-IPHC/iphc.c ****         forwarding_receive(
 689              		.loc 1 261 0
 690 039e 07F15401 		add	r1, r7, #84
 691 03a2 07F11402 		add	r2, r7, #20
 692 03a6 07F10C03 		add	r3, r7, #12
 693 03aa 7868     		ldr	r0, [r7, #4]
 694 03ac FFF7FEFF 		bl	forwarding_receive
 695 03b0 02E0     		b	.L30
 696              	.L32:
 262:build/OpenMote-CC2538_armgcc/openstack/03a-IPHC/iphc.c ****             msg,
 263:build/OpenMote-CC2538_armgcc/openstack/03a-IPHC/iphc.c ****             &ipv6_outer_header,
 264:build/OpenMote-CC2538_armgcc/openstack/03a-IPHC/iphc.c ****             &ipv6_inner_header,
 265:build/OpenMote-CC2538_armgcc/openstack/03a-IPHC/iphc.c ****             &rpl_option
 266:build/OpenMote-CC2538_armgcc/openstack/03a-IPHC/iphc.c ****         );
 267:build/OpenMote-CC2538_armgcc/openstack/03a-IPHC/iphc.c ****    } else {
 268:build/OpenMote-CC2538_armgcc/openstack/03a-IPHC/iphc.c ****       openbridge_receive(msg);                   //out to the OpenVisualizer
 697              		.loc 1 268 0
 698 03b2 7868     		ldr	r0, [r7, #4]
 699 03b4 FFF7FEFF 		bl	openbridge_receive
 700              	.L30:
 269:build/OpenMote-CC2538_armgcc/openstack/03a-IPHC/iphc.c ****    }
 270:build/OpenMote-CC2538_armgcc/openstack/03a-IPHC/iphc.c **** }
 701              		.loc 1 270 0
 702 03b8 9837     		adds	r7, r7, #152
 703              		.cfi_def_cfa_offset 8
 704 03ba BD46     		mov	sp, r7
 705              		.cfi_def_cfa_register 13
 706              		@ sp needed
 707 03bc 80BD     		pop	{r7, pc}
 708              		.cfi_endproc
 709              	.LFE4:
 711 03be 00BF     		.align	2
 712              		.global	iphc_prependIPv6Header
 713              		.thumb
 714              		.thumb_func
 716              	iphc_prependIPv6Header:
 717              	.LFB5:
 271:build/OpenMote-CC2538_armgcc/openstack/03a-IPHC/iphc.c **** 
 272:build/OpenMote-CC2538_armgcc/openstack/03a-IPHC/iphc.c **** //=========================== private =========================================
 273:build/OpenMote-CC2538_armgcc/openstack/03a-IPHC/iphc.c **** 
 274:build/OpenMote-CC2538_armgcc/openstack/03a-IPHC/iphc.c **** //===== IPv6 header
 275:build/OpenMote-CC2538_armgcc/openstack/03a-IPHC/iphc.c **** 
 276:build/OpenMote-CC2538_armgcc/openstack/03a-IPHC/iphc.c **** /**
 277:build/OpenMote-CC2538_armgcc/openstack/03a-IPHC/iphc.c **** \brief Prepend an IPv6 header to a message.
 278:build/OpenMote-CC2538_armgcc/openstack/03a-IPHC/iphc.c **** */
 279:build/OpenMote-CC2538_armgcc/openstack/03a-IPHC/iphc.c **** owerror_t iphc_prependIPv6Header(
 280:build/OpenMote-CC2538_armgcc/openstack/03a-IPHC/iphc.c ****       OpenQueueEntry_t* msg,
 281:build/OpenMote-CC2538_armgcc/openstack/03a-IPHC/iphc.c ****       uint8_t           tf,
 282:build/OpenMote-CC2538_armgcc/openstack/03a-IPHC/iphc.c ****       uint32_t          value_flowLabel,
 283:build/OpenMote-CC2538_armgcc/openstack/03a-IPHC/iphc.c ****       bool              nh,
 284:build/OpenMote-CC2538_armgcc/openstack/03a-IPHC/iphc.c ****       uint8_t           value_nextHeader,
 285:build/OpenMote-CC2538_armgcc/openstack/03a-IPHC/iphc.c ****       uint8_t           hlim,
 286:build/OpenMote-CC2538_armgcc/openstack/03a-IPHC/iphc.c ****       uint8_t           value_hopLimit,
 287:build/OpenMote-CC2538_armgcc/openstack/03a-IPHC/iphc.c ****       bool              cid,
 288:build/OpenMote-CC2538_armgcc/openstack/03a-IPHC/iphc.c ****       bool              sac,
 289:build/OpenMote-CC2538_armgcc/openstack/03a-IPHC/iphc.c ****       uint8_t           sam,
 290:build/OpenMote-CC2538_armgcc/openstack/03a-IPHC/iphc.c ****       bool              m,
 291:build/OpenMote-CC2538_armgcc/openstack/03a-IPHC/iphc.c ****       bool              dac,
 292:build/OpenMote-CC2538_armgcc/openstack/03a-IPHC/iphc.c ****       uint8_t           dam,
 293:build/OpenMote-CC2538_armgcc/openstack/03a-IPHC/iphc.c ****       open_addr_t*      value_dest,
 294:build/OpenMote-CC2538_armgcc/openstack/03a-IPHC/iphc.c ****       open_addr_t*      value_src,
 295:build/OpenMote-CC2538_armgcc/openstack/03a-IPHC/iphc.c ****       uint8_t           fw_SendOrfw_Rcv
 296:build/OpenMote-CC2538_armgcc/openstack/03a-IPHC/iphc.c ****    ) {
 718              		.loc 1 296 0
 719              		.cfi_startproc
 720              		@ args = 48, pretend = 0, frame = 24
 721              		@ frame_needed = 1, uses_anonymous_args = 0
 722 03c0 80B5     		push	{r7, lr}
 723              		.cfi_def_cfa_offset 8
 724              		.cfi_offset 7, -8
 725              		.cfi_offset 14, -4
 726 03c2 86B0     		sub	sp, sp, #24
 727              		.cfi_def_cfa_offset 32
 728 03c4 00AF     		add	r7, sp, #0
 729              		.cfi_def_cfa_register 7
 730 03c6 F860     		str	r0, [r7, #12]
 731 03c8 7A60     		str	r2, [r7, #4]
 732 03ca 1A46     		mov	r2, r3
 733 03cc 0B46     		mov	r3, r1
 734 03ce FB72     		strb	r3, [r7, #11]
 735 03d0 1346     		mov	r3, r2
 736 03d2 BB72     		strb	r3, [r7, #10]
 297:build/OpenMote-CC2538_armgcc/openstack/03a-IPHC/iphc.c ****    
 298:build/OpenMote-CC2538_armgcc/openstack/03a-IPHC/iphc.c ****    uint8_t temp_8b;
 299:build/OpenMote-CC2538_armgcc/openstack/03a-IPHC/iphc.c ****    
 300:build/OpenMote-CC2538_armgcc/openstack/03a-IPHC/iphc.c ****    // destination address
 301:build/OpenMote-CC2538_armgcc/openstack/03a-IPHC/iphc.c ****    switch (dam) {
 737              		.loc 1 301 0
 738 03d4 97F84030 		ldrb	r3, [r7, #64]	@ zero_extendqisi2
 739 03d8 032B     		cmp	r3, #3
 740 03da 67D8     		bhi	.L36
 741 03dc 01A2     		adr	r2, .L38
 742 03de 52F823F0 		ldr	pc, [r2, r3, lsl #2]
 743 03e2 00BF     		.p2align 2
 744              	.L38:
 745 03e4 79040000 		.word	.L37+1
 746 03e8 45040000 		.word	.L39+1
 747 03ec 11040000 		.word	.L40+1
 748 03f0 F5030000 		.word	.L41+1
 749              		.p2align 1
 750              	.L41:
 302:build/OpenMote-CC2538_armgcc/openstack/03a-IPHC/iphc.c ****       case IPHC_DAM_ELIDED:
 303:build/OpenMote-CC2538_armgcc/openstack/03a-IPHC/iphc.c ****          if (m == IPHC_M_YES){
 751              		.loc 1 303 0
 752 03f4 97F83830 		ldrb	r3, [r7, #56]	@ zero_extendqisi2
 753 03f8 002B     		cmp	r3, #0
 754 03fa 08D0     		beq	.L42
 304:build/OpenMote-CC2538_armgcc/openstack/03a-IPHC/iphc.c ****             packetfunctions_reserveHeaderSize(msg,sizeof(uint8_t));
 755              		.loc 1 304 0
 756 03fc F868     		ldr	r0, [r7, #12]
 757 03fe 0121     		movs	r1, #1
 758 0400 FFF7FEFF 		bl	packetfunctions_reserveHeaderSize
 305:build/OpenMote-CC2538_armgcc/openstack/03a-IPHC/iphc.c ****             *((uint8_t*)(msg->payload)) = value_dest->addr_128b[15];
 759              		.loc 1 305 0
 760 0404 FB68     		ldr	r3, [r7, #12]
 761 0406 5B68     		ldr	r3, [r3, #4]
 762 0408 7A6C     		ldr	r2, [r7, #68]
 763 040a 127C     		ldrb	r2, [r2, #16]	@ zero_extendqisi2
 764 040c 1A70     		strb	r2, [r3]
 765              	.L42:
 306:build/OpenMote-CC2538_armgcc/openstack/03a-IPHC/iphc.c ****          } else {
 307:build/OpenMote-CC2538_armgcc/openstack/03a-IPHC/iphc.c ****              //nothing
 308:build/OpenMote-CC2538_armgcc/openstack/03a-IPHC/iphc.c ****          }
 309:build/OpenMote-CC2538_armgcc/openstack/03a-IPHC/iphc.c ****          break;
 766              		.loc 1 309 0
 767 040e 57E0     		b	.L43
 768              	.L40:
 310:build/OpenMote-CC2538_armgcc/openstack/03a-IPHC/iphc.c ****       case IPHC_DAM_16B:
 311:build/OpenMote-CC2538_armgcc/openstack/03a-IPHC/iphc.c ****          if (m == IPHC_M_YES){
 769              		.loc 1 311 0
 770 0410 97F83830 		ldrb	r3, [r7, #56]	@ zero_extendqisi2
 771 0414 002B     		cmp	r3, #0
 772 0416 14D1     		bne	.L44
 312:build/OpenMote-CC2538_armgcc/openstack/03a-IPHC/iphc.c ****              // tengfei: to do
 313:build/OpenMote-CC2538_armgcc/openstack/03a-IPHC/iphc.c ****          } else {
 314:build/OpenMote-CC2538_armgcc/openstack/03a-IPHC/iphc.c ****              if (value_dest->type!=ADDR_16B) {
 773              		.loc 1 314 0
 774 0418 7B6C     		ldr	r3, [r7, #68]
 775 041a 1B78     		ldrb	r3, [r3]	@ zero_extendqisi2
 776 041c 012B     		cmp	r3, #1
 777 041e 0AD0     		beq	.L45
 315:build/OpenMote-CC2538_armgcc/openstack/03a-IPHC/iphc.c ****                 openserial_printCritical(
 316:build/OpenMote-CC2538_armgcc/openstack/03a-IPHC/iphc.c ****                    COMPONENT_IPHC,
 317:build/OpenMote-CC2538_armgcc/openstack/03a-IPHC/iphc.c ****                    ERR_WRONG_ADDR_TYPE,
 318:build/OpenMote-CC2538_armgcc/openstack/03a-IPHC/iphc.c ****                    (errorparameter_t)value_dest->type,
 778              		.loc 1 318 0
 779 0420 7B6C     		ldr	r3, [r7, #68]
 780 0422 1B78     		ldrb	r3, [r3]	@ zero_extendqisi2
 315:build/OpenMote-CC2538_armgcc/openstack/03a-IPHC/iphc.c ****                 openserial_printCritical(
 781              		.loc 1 315 0
 782 0424 9BB2     		uxth	r3, r3
 783 0426 1120     		movs	r0, #17
 784 0428 3121     		movs	r1, #49
 785 042a 1A46     		mov	r2, r3
 786 042c 0023     		movs	r3, #0
 787 042e FFF7FEFF 		bl	openserial_printCritical
 319:build/OpenMote-CC2538_armgcc/openstack/03a-IPHC/iphc.c ****                    (errorparameter_t)0
 320:build/OpenMote-CC2538_armgcc/openstack/03a-IPHC/iphc.c ****                 );
 321:build/OpenMote-CC2538_armgcc/openstack/03a-IPHC/iphc.c ****                 return E_FAIL;
 788              		.loc 1 321 0
 789 0432 0123     		movs	r3, #1
 790 0434 9FE1     		b	.L46
 791              	.L45:
 322:build/OpenMote-CC2538_armgcc/openstack/03a-IPHC/iphc.c ****              };
 323:build/OpenMote-CC2538_armgcc/openstack/03a-IPHC/iphc.c ****              packetfunctions_writeAddress(msg,value_dest,OW_BIG_ENDIAN);
 792              		.loc 1 323 0
 793 0436 F868     		ldr	r0, [r7, #12]
 794 0438 796C     		ldr	r1, [r7, #68]
 795 043a 0022     		movs	r2, #0
 796 043c FFF7FEFF 		bl	packetfunctions_writeAddress
 324:build/OpenMote-CC2538_armgcc/openstack/03a-IPHC/iphc.c ****          }
 325:build/OpenMote-CC2538_armgcc/openstack/03a-IPHC/iphc.c ****          break;
 797              		.loc 1 325 0
 798 0440 3EE0     		b	.L43
 799              	.L44:
 800              		.loc 1 325 0 is_stmt 0 discriminator 1
 801 0442 3DE0     		b	.L43
 802              	.L39:
 326:build/OpenMote-CC2538_armgcc/openstack/03a-IPHC/iphc.c ****       case IPHC_DAM_64B:
 327:build/OpenMote-CC2538_armgcc/openstack/03a-IPHC/iphc.c ****          if (m == IPHC_M_YES){
 803              		.loc 1 327 0 is_stmt 1
 804 0444 97F83830 		ldrb	r3, [r7, #56]	@ zero_extendqisi2
 805 0448 002B     		cmp	r3, #0
 806 044a 14D1     		bne	.L47
 328:build/OpenMote-CC2538_armgcc/openstack/03a-IPHC/iphc.c ****              // tengfei: to do
 329:build/OpenMote-CC2538_armgcc/openstack/03a-IPHC/iphc.c ****          } else {
 330:build/OpenMote-CC2538_armgcc/openstack/03a-IPHC/iphc.c ****              if (value_dest->type!=ADDR_64B) {
 807              		.loc 1 330 0
 808 044c 7B6C     		ldr	r3, [r7, #68]
 809 044e 1B78     		ldrb	r3, [r3]	@ zero_extendqisi2
 810 0450 022B     		cmp	r3, #2
 811 0452 0AD0     		beq	.L48
 331:build/OpenMote-CC2538_armgcc/openstack/03a-IPHC/iphc.c ****                 openserial_printCritical(
 332:build/OpenMote-CC2538_armgcc/openstack/03a-IPHC/iphc.c ****                    COMPONENT_IPHC,
 333:build/OpenMote-CC2538_armgcc/openstack/03a-IPHC/iphc.c ****                    ERR_WRONG_ADDR_TYPE,
 334:build/OpenMote-CC2538_armgcc/openstack/03a-IPHC/iphc.c ****                    (errorparameter_t)value_dest->type,
 812              		.loc 1 334 0
 813 0454 7B6C     		ldr	r3, [r7, #68]
 814 0456 1B78     		ldrb	r3, [r3]	@ zero_extendqisi2
 331:build/OpenMote-CC2538_armgcc/openstack/03a-IPHC/iphc.c ****                 openserial_printCritical(
 815              		.loc 1 331 0
 816 0458 9BB2     		uxth	r3, r3
 817 045a 1120     		movs	r0, #17
 818 045c 3121     		movs	r1, #49
 819 045e 1A46     		mov	r2, r3
 820 0460 0123     		movs	r3, #1
 821 0462 FFF7FEFF 		bl	openserial_printCritical
 335:build/OpenMote-CC2538_armgcc/openstack/03a-IPHC/iphc.c ****                    (errorparameter_t)1
 336:build/OpenMote-CC2538_armgcc/openstack/03a-IPHC/iphc.c ****                 );
 337:build/OpenMote-CC2538_armgcc/openstack/03a-IPHC/iphc.c ****                 return E_FAIL;
 822              		.loc 1 337 0
 823 0466 0123     		movs	r3, #1
 824 0468 85E1     		b	.L46
 825              	.L48:
 338:build/OpenMote-CC2538_armgcc/openstack/03a-IPHC/iphc.c ****              };
 339:build/OpenMote-CC2538_armgcc/openstack/03a-IPHC/iphc.c ****              packetfunctions_writeAddress(msg,value_dest,OW_BIG_ENDIAN);
 826              		.loc 1 339 0
 827 046a F868     		ldr	r0, [r7, #12]
 828 046c 796C     		ldr	r1, [r7, #68]
 829 046e 0022     		movs	r2, #0
 830 0470 FFF7FEFF 		bl	packetfunctions_writeAddress
 340:build/OpenMote-CC2538_armgcc/openstack/03a-IPHC/iphc.c ****          }
 341:build/OpenMote-CC2538_armgcc/openstack/03a-IPHC/iphc.c ****          break;
 831              		.loc 1 341 0
 832 0474 24E0     		b	.L43
 833              	.L47:
 834              		.loc 1 341 0 is_stmt 0 discriminator 2
 835 0476 23E0     		b	.L43
 836              	.L37:
 342:build/OpenMote-CC2538_armgcc/openstack/03a-IPHC/iphc.c ****       case IPHC_DAM_128B:
 343:build/OpenMote-CC2538_armgcc/openstack/03a-IPHC/iphc.c ****          if (m == IPHC_M_YES){
 837              		.loc 1 343 0 is_stmt 1
 838 0478 97F83830 		ldrb	r3, [r7, #56]	@ zero_extendqisi2
 839 047c 002B     		cmp	r3, #0
 840 047e 14D1     		bne	.L49
 344:build/OpenMote-CC2538_armgcc/openstack/03a-IPHC/iphc.c ****              // tengfei: to do
 345:build/OpenMote-CC2538_armgcc/openstack/03a-IPHC/iphc.c ****          } else {
 346:build/OpenMote-CC2538_armgcc/openstack/03a-IPHC/iphc.c ****              if (value_dest->type!=ADDR_128B) {
 841              		.loc 1 346 0
 842 0480 7B6C     		ldr	r3, [r7, #68]
 843 0482 1B78     		ldrb	r3, [r3]	@ zero_extendqisi2
 844 0484 032B     		cmp	r3, #3
 845 0486 0AD0     		beq	.L50
 347:build/OpenMote-CC2538_armgcc/openstack/03a-IPHC/iphc.c ****                 openserial_printCritical(
 348:build/OpenMote-CC2538_armgcc/openstack/03a-IPHC/iphc.c ****                    COMPONENT_IPHC,
 349:build/OpenMote-CC2538_armgcc/openstack/03a-IPHC/iphc.c ****                    ERR_WRONG_ADDR_TYPE,
 350:build/OpenMote-CC2538_armgcc/openstack/03a-IPHC/iphc.c ****                    (errorparameter_t)value_dest->type,
 846              		.loc 1 350 0
 847 0488 7B6C     		ldr	r3, [r7, #68]
 848 048a 1B78     		ldrb	r3, [r3]	@ zero_extendqisi2
 347:build/OpenMote-CC2538_armgcc/openstack/03a-IPHC/iphc.c ****                 openserial_printCritical(
 849              		.loc 1 347 0
 850 048c 9BB2     		uxth	r3, r3
 851 048e 1120     		movs	r0, #17
 852 0490 3121     		movs	r1, #49
 853 0492 1A46     		mov	r2, r3
 854 0494 0223     		movs	r3, #2
 855 0496 FFF7FEFF 		bl	openserial_printCritical
 351:build/OpenMote-CC2538_armgcc/openstack/03a-IPHC/iphc.c ****                    (errorparameter_t)2
 352:build/OpenMote-CC2538_armgcc/openstack/03a-IPHC/iphc.c ****                 );
 353:build/OpenMote-CC2538_armgcc/openstack/03a-IPHC/iphc.c ****                 return E_FAIL;
 856              		.loc 1 353 0
 857 049a 0123     		movs	r3, #1
 858 049c 6BE1     		b	.L46
 859              	.L50:
 354:build/OpenMote-CC2538_armgcc/openstack/03a-IPHC/iphc.c ****              };
 355:build/OpenMote-CC2538_armgcc/openstack/03a-IPHC/iphc.c ****              packetfunctions_writeAddress(msg,value_dest,OW_BIG_ENDIAN);
 860              		.loc 1 355 0
 861 049e F868     		ldr	r0, [r7, #12]
 862 04a0 796C     		ldr	r1, [r7, #68]
 863 04a2 0022     		movs	r2, #0
 864 04a4 FFF7FEFF 		bl	packetfunctions_writeAddress
 356:build/OpenMote-CC2538_armgcc/openstack/03a-IPHC/iphc.c ****          }
 357:build/OpenMote-CC2538_armgcc/openstack/03a-IPHC/iphc.c ****          break;
 865              		.loc 1 357 0
 866 04a8 0AE0     		b	.L43
 867              	.L49:
 868              		.loc 1 357 0 is_stmt 0 discriminator 3
 869 04aa 09E0     		b	.L43
 870              	.L36:
 358:build/OpenMote-CC2538_armgcc/openstack/03a-IPHC/iphc.c ****       default:
 359:build/OpenMote-CC2538_armgcc/openstack/03a-IPHC/iphc.c ****          openserial_printCritical(
 871              		.loc 1 359 0 is_stmt 1
 872 04ac 97F84030 		ldrb	r3, [r7, #64]	@ zero_extendqisi2
 873 04b0 9BB2     		uxth	r3, r3
 874 04b2 1120     		movs	r0, #17
 875 04b4 0C21     		movs	r1, #12
 876 04b6 0022     		movs	r2, #0
 877 04b8 FFF7FEFF 		bl	openserial_printCritical
 360:build/OpenMote-CC2538_armgcc/openstack/03a-IPHC/iphc.c ****             COMPONENT_IPHC,
 361:build/OpenMote-CC2538_armgcc/openstack/03a-IPHC/iphc.c ****             ERR_6LOWPAN_UNSUPPORTED,
 362:build/OpenMote-CC2538_armgcc/openstack/03a-IPHC/iphc.c ****             (errorparameter_t)0,
 363:build/OpenMote-CC2538_armgcc/openstack/03a-IPHC/iphc.c ****             (errorparameter_t)dam
 364:build/OpenMote-CC2538_armgcc/openstack/03a-IPHC/iphc.c ****          );
 365:build/OpenMote-CC2538_armgcc/openstack/03a-IPHC/iphc.c ****          return E_FAIL;
 878              		.loc 1 365 0
 879 04bc 0123     		movs	r3, #1
 880 04be 5AE1     		b	.L46
 881              	.L43:
 366:build/OpenMote-CC2538_armgcc/openstack/03a-IPHC/iphc.c ****    }
 367:build/OpenMote-CC2538_armgcc/openstack/03a-IPHC/iphc.c ****    
 368:build/OpenMote-CC2538_armgcc/openstack/03a-IPHC/iphc.c ****    // source address
 369:build/OpenMote-CC2538_armgcc/openstack/03a-IPHC/iphc.c ****    switch (sam) {
 882              		.loc 1 369 0
 883 04c0 97F83430 		ldrb	r3, [r7, #52]	@ zero_extendqisi2
 884 04c4 032B     		cmp	r3, #3
 885 04c6 00F28980 		bhi	.L51
 886 04ca 01A2     		adr	r2, .L53
 887 04cc 52F823F0 		ldr	pc, [r2, r3, lsl #2]
 888              		.p2align 2
 889              	.L53:
 890 04d0 7D050000 		.word	.L52+1
 891 04d4 2F050000 		.word	.L54+1
 892 04d8 E1040000 		.word	.L55+1
 893 04dc F1050000 		.word	.L81+1
 894              		.p2align 1
 895              	.L55:
 370:build/OpenMote-CC2538_armgcc/openstack/03a-IPHC/iphc.c ****       case IPHC_SAM_ELIDED:
 371:build/OpenMote-CC2538_armgcc/openstack/03a-IPHC/iphc.c ****          break;
 372:build/OpenMote-CC2538_armgcc/openstack/03a-IPHC/iphc.c ****       case IPHC_SAM_16B:
 373:build/OpenMote-CC2538_armgcc/openstack/03a-IPHC/iphc.c ****          if(fw_SendOrfw_Rcv==PCKTSEND) {
 896              		.loc 1 373 0
 897 04e0 97F84C30 		ldrb	r3, [r7, #76]	@ zero_extendqisi2
 898 04e4 022B     		cmp	r3, #2
 899 04e6 08D1     		bne	.L58
 374:build/OpenMote-CC2538_armgcc/openstack/03a-IPHC/iphc.c ****             packetfunctions_writeAddress(msg, (idmanager_getMyID(ADDR_16B)),OW_BIG_ENDIAN);
 900              		.loc 1 374 0
 901 04e8 0120     		movs	r0, #1
 902 04ea FFF7FEFF 		bl	idmanager_getMyID
 903 04ee 0346     		mov	r3, r0
 904 04f0 F868     		ldr	r0, [r7, #12]
 905 04f2 1946     		mov	r1, r3
 906 04f4 0022     		movs	r2, #0
 907 04f6 FFF7FEFF 		bl	packetfunctions_writeAddress
 908              	.L58:
 375:build/OpenMote-CC2538_armgcc/openstack/03a-IPHC/iphc.c ****          }
 376:build/OpenMote-CC2538_armgcc/openstack/03a-IPHC/iphc.c ****          if(fw_SendOrfw_Rcv==PCKTFORWARD) {
 909              		.loc 1 376 0
 910 04fa 97F84C30 		ldrb	r3, [r7, #76]	@ zero_extendqisi2
 911 04fe 012B     		cmp	r3, #1
 912 0500 14D1     		bne	.L59
 377:build/OpenMote-CC2538_armgcc/openstack/03a-IPHC/iphc.c ****             if (value_src->type!=ADDR_16B) {
 913              		.loc 1 377 0
 914 0502 BB6C     		ldr	r3, [r7, #72]
 915 0504 1B78     		ldrb	r3, [r3]	@ zero_extendqisi2
 916 0506 012B     		cmp	r3, #1
 917 0508 0AD0     		beq	.L60
 378:build/OpenMote-CC2538_armgcc/openstack/03a-IPHC/iphc.c ****                openserial_printCritical(
 379:build/OpenMote-CC2538_armgcc/openstack/03a-IPHC/iphc.c ****                   COMPONENT_IPHC,
 380:build/OpenMote-CC2538_armgcc/openstack/03a-IPHC/iphc.c ****                   ERR_WRONG_ADDR_TYPE,
 381:build/OpenMote-CC2538_armgcc/openstack/03a-IPHC/iphc.c ****                   (errorparameter_t)value_src->type,
 918              		.loc 1 381 0
 919 050a BB6C     		ldr	r3, [r7, #72]
 920 050c 1B78     		ldrb	r3, [r3]	@ zero_extendqisi2
 378:build/OpenMote-CC2538_armgcc/openstack/03a-IPHC/iphc.c ****                openserial_printCritical(
 921              		.loc 1 378 0
 922 050e 9BB2     		uxth	r3, r3
 923 0510 1120     		movs	r0, #17
 924 0512 3121     		movs	r1, #49
 925 0514 1A46     		mov	r2, r3
 926 0516 0023     		movs	r3, #0
 927 0518 FFF7FEFF 		bl	openserial_printCritical
 382:build/OpenMote-CC2538_armgcc/openstack/03a-IPHC/iphc.c ****                   (errorparameter_t)0
 383:build/OpenMote-CC2538_armgcc/openstack/03a-IPHC/iphc.c ****                );
 384:build/OpenMote-CC2538_armgcc/openstack/03a-IPHC/iphc.c ****                return E_FAIL;
 928              		.loc 1 384 0
 929 051c 0123     		movs	r3, #1
 930 051e 2AE1     		b	.L46
 931              	.L60:
 385:build/OpenMote-CC2538_armgcc/openstack/03a-IPHC/iphc.c ****             } 
 386:build/OpenMote-CC2538_armgcc/openstack/03a-IPHC/iphc.c ****             packetfunctions_writeAddress(msg,value_src,OW_BIG_ENDIAN);
 932              		.loc 1 386 0
 933 0520 F868     		ldr	r0, [r7, #12]
 934 0522 B96C     		ldr	r1, [r7, #72]
 935 0524 0022     		movs	r2, #0
 936 0526 FFF7FEFF 		bl	packetfunctions_writeAddress
 387:build/OpenMote-CC2538_armgcc/openstack/03a-IPHC/iphc.c ****          }
 388:build/OpenMote-CC2538_armgcc/openstack/03a-IPHC/iphc.c ****          break;
 937              		.loc 1 388 0
 938 052a 62E0     		b	.L57
 939              	.L59:
 940 052c 61E0     		b	.L57
 941              	.L54:
 389:build/OpenMote-CC2538_armgcc/openstack/03a-IPHC/iphc.c ****       case IPHC_SAM_64B:
 390:build/OpenMote-CC2538_armgcc/openstack/03a-IPHC/iphc.c ****          if(fw_SendOrfw_Rcv==PCKTSEND) {
 942              		.loc 1 390 0
 943 052e 97F84C30 		ldrb	r3, [r7, #76]	@ zero_extendqisi2
 944 0532 022B     		cmp	r3, #2
 945 0534 08D1     		bne	.L61
 391:build/OpenMote-CC2538_armgcc/openstack/03a-IPHC/iphc.c ****             packetfunctions_writeAddress(msg, (idmanager_getMyID(ADDR_64B)),OW_BIG_ENDIAN);
 946              		.loc 1 391 0
 947 0536 0220     		movs	r0, #2
 948 0538 FFF7FEFF 		bl	idmanager_getMyID
 949 053c 0346     		mov	r3, r0
 950 053e F868     		ldr	r0, [r7, #12]
 951 0540 1946     		mov	r1, r3
 952 0542 0022     		movs	r2, #0
 953 0544 FFF7FEFF 		bl	packetfunctions_writeAddress
 954              	.L61:
 392:build/OpenMote-CC2538_armgcc/openstack/03a-IPHC/iphc.c ****          }
 393:build/OpenMote-CC2538_armgcc/openstack/03a-IPHC/iphc.c ****          if(fw_SendOrfw_Rcv==PCKTFORWARD) {
 955              		.loc 1 393 0
 956 0548 97F84C30 		ldrb	r3, [r7, #76]	@ zero_extendqisi2
 957 054c 012B     		cmp	r3, #1
 958 054e 14D1     		bne	.L62
 394:build/OpenMote-CC2538_armgcc/openstack/03a-IPHC/iphc.c ****             if (value_src->type!=ADDR_64B) {
 959              		.loc 1 394 0
 960 0550 BB6C     		ldr	r3, [r7, #72]
 961 0552 1B78     		ldrb	r3, [r3]	@ zero_extendqisi2
 962 0554 022B     		cmp	r3, #2
 963 0556 0AD0     		beq	.L63
 395:build/OpenMote-CC2538_armgcc/openstack/03a-IPHC/iphc.c ****                openserial_printCritical(
 396:build/OpenMote-CC2538_armgcc/openstack/03a-IPHC/iphc.c ****                   COMPONENT_IPHC,
 397:build/OpenMote-CC2538_armgcc/openstack/03a-IPHC/iphc.c ****                   ERR_WRONG_ADDR_TYPE,
 398:build/OpenMote-CC2538_armgcc/openstack/03a-IPHC/iphc.c ****                   (errorparameter_t)value_src->type,
 964              		.loc 1 398 0
 965 0558 BB6C     		ldr	r3, [r7, #72]
 966 055a 1B78     		ldrb	r3, [r3]	@ zero_extendqisi2
 395:build/OpenMote-CC2538_armgcc/openstack/03a-IPHC/iphc.c ****                openserial_printCritical(
 967              		.loc 1 395 0
 968 055c 9BB2     		uxth	r3, r3
 969 055e 1120     		movs	r0, #17
 970 0560 3121     		movs	r1, #49
 971 0562 1A46     		mov	r2, r3
 972 0564 0123     		movs	r3, #1
 973 0566 FFF7FEFF 		bl	openserial_printCritical
 399:build/OpenMote-CC2538_armgcc/openstack/03a-IPHC/iphc.c ****                   (errorparameter_t)1
 400:build/OpenMote-CC2538_armgcc/openstack/03a-IPHC/iphc.c ****                );
 401:build/OpenMote-CC2538_armgcc/openstack/03a-IPHC/iphc.c ****                return E_FAIL;
 974              		.loc 1 401 0
 975 056a 0123     		movs	r3, #1
 976 056c 03E1     		b	.L46
 977              	.L63:
 402:build/OpenMote-CC2538_armgcc/openstack/03a-IPHC/iphc.c ****             }      
 403:build/OpenMote-CC2538_armgcc/openstack/03a-IPHC/iphc.c ****             packetfunctions_writeAddress(msg, value_src,OW_BIG_ENDIAN);
 978              		.loc 1 403 0
 979 056e F868     		ldr	r0, [r7, #12]
 980 0570 B96C     		ldr	r1, [r7, #72]
 981 0572 0022     		movs	r2, #0
 982 0574 FFF7FEFF 		bl	packetfunctions_writeAddress
 404:build/OpenMote-CC2538_armgcc/openstack/03a-IPHC/iphc.c ****          }
 405:build/OpenMote-CC2538_armgcc/openstack/03a-IPHC/iphc.c ****          break;
 983              		.loc 1 405 0
 984 0578 3BE0     		b	.L57
 985              	.L62:
 986 057a 3AE0     		b	.L57
 987              	.L52:
 406:build/OpenMote-CC2538_armgcc/openstack/03a-IPHC/iphc.c ****       case IPHC_SAM_128B:
 407:build/OpenMote-CC2538_armgcc/openstack/03a-IPHC/iphc.c ****          if(fw_SendOrfw_Rcv==PCKTSEND) {
 988              		.loc 1 407 0
 989 057c 97F84C30 		ldrb	r3, [r7, #76]	@ zero_extendqisi2
 990 0580 022B     		cmp	r3, #2
 991 0582 11D1     		bne	.L64
 408:build/OpenMote-CC2538_armgcc/openstack/03a-IPHC/iphc.c ****             packetfunctions_writeAddress(msg, (idmanager_getMyID(ADDR_64B)),OW_BIG_ENDIAN);
 992              		.loc 1 408 0
 993 0584 0220     		movs	r0, #2
 994 0586 FFF7FEFF 		bl	idmanager_getMyID
 995 058a 0346     		mov	r3, r0
 996 058c F868     		ldr	r0, [r7, #12]
 997 058e 1946     		mov	r1, r3
 998 0590 0022     		movs	r2, #0
 999 0592 FFF7FEFF 		bl	packetfunctions_writeAddress
 409:build/OpenMote-CC2538_armgcc/openstack/03a-IPHC/iphc.c ****             packetfunctions_writeAddress(msg, (idmanager_getMyID(ADDR_PREFIX)),OW_BIG_ENDIAN);
 1000              		.loc 1 409 0
 1001 0596 0520     		movs	r0, #5
 1002 0598 FFF7FEFF 		bl	idmanager_getMyID
 1003 059c 0346     		mov	r3, r0
 1004 059e F868     		ldr	r0, [r7, #12]
 1005 05a0 1946     		mov	r1, r3
 1006 05a2 0022     		movs	r2, #0
 1007 05a4 FFF7FEFF 		bl	packetfunctions_writeAddress
 1008              	.L64:
 410:build/OpenMote-CC2538_armgcc/openstack/03a-IPHC/iphc.c ****          }
 411:build/OpenMote-CC2538_armgcc/openstack/03a-IPHC/iphc.c ****          if(fw_SendOrfw_Rcv==PCKTFORWARD) {
 1009              		.loc 1 411 0
 1010 05a8 97F84C30 		ldrb	r3, [r7, #76]	@ zero_extendqisi2
 1011 05ac 012B     		cmp	r3, #1
 1012 05ae 14D1     		bne	.L65
 412:build/OpenMote-CC2538_armgcc/openstack/03a-IPHC/iphc.c ****             if (value_src->type!=ADDR_128B) {
 1013              		.loc 1 412 0
 1014 05b0 BB6C     		ldr	r3, [r7, #72]
 1015 05b2 1B78     		ldrb	r3, [r3]	@ zero_extendqisi2
 1016 05b4 032B     		cmp	r3, #3
 1017 05b6 0AD0     		beq	.L66
 413:build/OpenMote-CC2538_armgcc/openstack/03a-IPHC/iphc.c ****                openserial_printCritical(
 414:build/OpenMote-CC2538_armgcc/openstack/03a-IPHC/iphc.c ****                   COMPONENT_IPHC,
 415:build/OpenMote-CC2538_armgcc/openstack/03a-IPHC/iphc.c ****                   ERR_WRONG_ADDR_TYPE,
 416:build/OpenMote-CC2538_armgcc/openstack/03a-IPHC/iphc.c ****                   (errorparameter_t)value_src->type,
 1018              		.loc 1 416 0
 1019 05b8 BB6C     		ldr	r3, [r7, #72]
 1020 05ba 1B78     		ldrb	r3, [r3]	@ zero_extendqisi2
 413:build/OpenMote-CC2538_armgcc/openstack/03a-IPHC/iphc.c ****                openserial_printCritical(
 1021              		.loc 1 413 0
 1022 05bc 9BB2     		uxth	r3, r3
 1023 05be 1120     		movs	r0, #17
 1024 05c0 3121     		movs	r1, #49
 1025 05c2 1A46     		mov	r2, r3
 1026 05c4 0223     		movs	r3, #2
 1027 05c6 FFF7FEFF 		bl	openserial_printCritical
 417:build/OpenMote-CC2538_armgcc/openstack/03a-IPHC/iphc.c ****                   (errorparameter_t)2
 418:build/OpenMote-CC2538_armgcc/openstack/03a-IPHC/iphc.c ****                );
 419:build/OpenMote-CC2538_armgcc/openstack/03a-IPHC/iphc.c ****                return E_FAIL;
 1028              		.loc 1 419 0
 1029 05ca 0123     		movs	r3, #1
 1030 05cc D3E0     		b	.L46
 1031              	.L66:
 420:build/OpenMote-CC2538_armgcc/openstack/03a-IPHC/iphc.c ****             }
 421:build/OpenMote-CC2538_armgcc/openstack/03a-IPHC/iphc.c ****             packetfunctions_writeAddress(msg,value_src,OW_BIG_ENDIAN);
 1032              		.loc 1 421 0
 1033 05ce F868     		ldr	r0, [r7, #12]
 1034 05d0 B96C     		ldr	r1, [r7, #72]
 1035 05d2 0022     		movs	r2, #0
 1036 05d4 FFF7FEFF 		bl	packetfunctions_writeAddress
 422:build/OpenMote-CC2538_armgcc/openstack/03a-IPHC/iphc.c ****          }
 423:build/OpenMote-CC2538_armgcc/openstack/03a-IPHC/iphc.c ****          break;
 1037              		.loc 1 423 0
 1038 05d8 0BE0     		b	.L57
 1039              	.L65:
 1040 05da 0AE0     		b	.L57
 1041              	.L51:
 424:build/OpenMote-CC2538_armgcc/openstack/03a-IPHC/iphc.c ****       default:
 425:build/OpenMote-CC2538_armgcc/openstack/03a-IPHC/iphc.c ****          openserial_printCritical(
 1042              		.loc 1 425 0
 1043 05dc 97F83430 		ldrb	r3, [r7, #52]	@ zero_extendqisi2
 1044 05e0 9BB2     		uxth	r3, r3
 1045 05e2 1120     		movs	r0, #17
 1046 05e4 0C21     		movs	r1, #12
 1047 05e6 0122     		movs	r2, #1
 1048 05e8 FFF7FEFF 		bl	openserial_printCritical
 426:build/OpenMote-CC2538_armgcc/openstack/03a-IPHC/iphc.c ****             COMPONENT_IPHC,
 427:build/OpenMote-CC2538_armgcc/openstack/03a-IPHC/iphc.c ****             ERR_6LOWPAN_UNSUPPORTED,
 428:build/OpenMote-CC2538_armgcc/openstack/03a-IPHC/iphc.c ****             (errorparameter_t)1,
 429:build/OpenMote-CC2538_armgcc/openstack/03a-IPHC/iphc.c ****             (errorparameter_t)sam
 430:build/OpenMote-CC2538_armgcc/openstack/03a-IPHC/iphc.c ****          );
 431:build/OpenMote-CC2538_armgcc/openstack/03a-IPHC/iphc.c ****          return E_FAIL;
 1049              		.loc 1 431 0
 1050 05ec 0123     		movs	r3, #1
 1051 05ee C2E0     		b	.L46
 1052              	.L81:
 371:build/OpenMote-CC2538_armgcc/openstack/03a-IPHC/iphc.c ****       case IPHC_SAM_16B:
 1053              		.loc 1 371 0
 1054 05f0 00BF     		nop
 1055              	.L57:
 432:build/OpenMote-CC2538_armgcc/openstack/03a-IPHC/iphc.c ****    }
 433:build/OpenMote-CC2538_armgcc/openstack/03a-IPHC/iphc.c ****    
 434:build/OpenMote-CC2538_armgcc/openstack/03a-IPHC/iphc.c ****    // hop limit
 435:build/OpenMote-CC2538_armgcc/openstack/03a-IPHC/iphc.c ****    switch (hlim) {
 1056              		.loc 1 435 0
 1057 05f2 97F82430 		ldrb	r3, [r7, #36]	@ zero_extendqisi2
 1058 05f6 002B     		cmp	r3, #0
 1059 05f8 04D0     		beq	.L68
 1060 05fa 002B     		cmp	r3, #0
 1061 05fc 0CDB     		blt	.L67
 1062 05fe 032B     		cmp	r3, #3
 1063 0600 0ADC     		bgt	.L67
 436:build/OpenMote-CC2538_armgcc/openstack/03a-IPHC/iphc.c ****       case IPHC_HLIM_INLINE:
 437:build/OpenMote-CC2538_armgcc/openstack/03a-IPHC/iphc.c ****          packetfunctions_reserveHeaderSize(msg,sizeof(uint8_t));
 438:build/OpenMote-CC2538_armgcc/openstack/03a-IPHC/iphc.c ****          *((uint8_t*)(msg->payload)) = value_hopLimit;
 439:build/OpenMote-CC2538_armgcc/openstack/03a-IPHC/iphc.c ****          break;
 440:build/OpenMote-CC2538_armgcc/openstack/03a-IPHC/iphc.c ****       case IPHC_HLIM_1:
 441:build/OpenMote-CC2538_armgcc/openstack/03a-IPHC/iphc.c ****       case IPHC_HLIM_64:
 442:build/OpenMote-CC2538_armgcc/openstack/03a-IPHC/iphc.c ****       case IPHC_HLIM_255:
 443:build/OpenMote-CC2538_armgcc/openstack/03a-IPHC/iphc.c ****          break;
 1064              		.loc 1 443 0
 1065 0602 13E0     		b	.L70
 1066              	.L68:
 437:build/OpenMote-CC2538_armgcc/openstack/03a-IPHC/iphc.c ****          *((uint8_t*)(msg->payload)) = value_hopLimit;
 1067              		.loc 1 437 0
 1068 0604 F868     		ldr	r0, [r7, #12]
 1069 0606 0121     		movs	r1, #1
 1070 0608 FFF7FEFF 		bl	packetfunctions_reserveHeaderSize
 438:build/OpenMote-CC2538_armgcc/openstack/03a-IPHC/iphc.c ****          break;
 1071              		.loc 1 438 0
 1072 060c FB68     		ldr	r3, [r7, #12]
 1073 060e 5B68     		ldr	r3, [r3, #4]
 1074 0610 97F82820 		ldrb	r2, [r7, #40]
 1075 0614 1A70     		strb	r2, [r3]
 439:build/OpenMote-CC2538_armgcc/openstack/03a-IPHC/iphc.c ****       case IPHC_HLIM_1:
 1076              		.loc 1 439 0
 1077 0616 09E0     		b	.L70
 1078              	.L67:
 444:build/OpenMote-CC2538_armgcc/openstack/03a-IPHC/iphc.c ****       default:
 445:build/OpenMote-CC2538_armgcc/openstack/03a-IPHC/iphc.c ****          openserial_printCritical(
 1079              		.loc 1 445 0
 1080 0618 97F82430 		ldrb	r3, [r7, #36]	@ zero_extendqisi2
 1081 061c 9BB2     		uxth	r3, r3
 1082 061e 1120     		movs	r0, #17
 1083 0620 0C21     		movs	r1, #12
 1084 0622 0222     		movs	r2, #2
 1085 0624 FFF7FEFF 		bl	openserial_printCritical
 446:build/OpenMote-CC2538_armgcc/openstack/03a-IPHC/iphc.c ****             COMPONENT_IPHC,
 447:build/OpenMote-CC2538_armgcc/openstack/03a-IPHC/iphc.c ****             ERR_6LOWPAN_UNSUPPORTED,
 448:build/OpenMote-CC2538_armgcc/openstack/03a-IPHC/iphc.c ****             (errorparameter_t)2,
 449:build/OpenMote-CC2538_armgcc/openstack/03a-IPHC/iphc.c ****             (errorparameter_t)hlim
 450:build/OpenMote-CC2538_armgcc/openstack/03a-IPHC/iphc.c ****          );
 451:build/OpenMote-CC2538_armgcc/openstack/03a-IPHC/iphc.c ****          return E_FAIL;
 1086              		.loc 1 451 0
 1087 0628 0123     		movs	r3, #1
 1088 062a A4E0     		b	.L46
 1089              	.L70:
 452:build/OpenMote-CC2538_armgcc/openstack/03a-IPHC/iphc.c ****    }
 453:build/OpenMote-CC2538_armgcc/openstack/03a-IPHC/iphc.c ****    
 454:build/OpenMote-CC2538_armgcc/openstack/03a-IPHC/iphc.c ****    // next header
 455:build/OpenMote-CC2538_armgcc/openstack/03a-IPHC/iphc.c ****    switch (nh) {
 1090              		.loc 1 455 0
 1091 062c BB7A     		ldrb	r3, [r7, #10]	@ zero_extendqisi2
 1092 062e 002B     		cmp	r3, #0
 1093 0630 02D0     		beq	.L72
 1094 0632 012B     		cmp	r3, #1
 1095 0634 13D0     		beq	.L82
 1096 0636 09E0     		b	.L79
 1097              	.L72:
 456:build/OpenMote-CC2538_armgcc/openstack/03a-IPHC/iphc.c ****       case IPHC_NH_INLINE:
 457:build/OpenMote-CC2538_armgcc/openstack/03a-IPHC/iphc.c ****          packetfunctions_reserveHeaderSize(msg,sizeof(uint8_t));
 1098              		.loc 1 457 0
 1099 0638 F868     		ldr	r0, [r7, #12]
 1100 063a 0121     		movs	r1, #1
 1101 063c FFF7FEFF 		bl	packetfunctions_reserveHeaderSize
 458:build/OpenMote-CC2538_armgcc/openstack/03a-IPHC/iphc.c ****          *((uint8_t*)(msg->payload)) = value_nextHeader;
 1102              		.loc 1 458 0
 1103 0640 FB68     		ldr	r3, [r7, #12]
 1104 0642 5B68     		ldr	r3, [r3, #4]
 1105 0644 97F82020 		ldrb	r2, [r7, #32]
 1106 0648 1A70     		strb	r2, [r3]
 459:build/OpenMote-CC2538_armgcc/openstack/03a-IPHC/iphc.c ****          break;
 1107              		.loc 1 459 0
 1108 064a 09E0     		b	.L74
 1109              	.L79:
 460:build/OpenMote-CC2538_armgcc/openstack/03a-IPHC/iphc.c ****       case IPHC_NH_COMPRESSED:
 461:build/OpenMote-CC2538_armgcc/openstack/03a-IPHC/iphc.c ****          //do nothing, the next header will be there
 462:build/OpenMote-CC2538_armgcc/openstack/03a-IPHC/iphc.c ****         break;
 463:build/OpenMote-CC2538_armgcc/openstack/03a-IPHC/iphc.c ****       default:
 464:build/OpenMote-CC2538_armgcc/openstack/03a-IPHC/iphc.c ****          openserial_printCritical(
 1110              		.loc 1 464 0
 1111 064c BB7A     		ldrb	r3, [r7, #10]	@ zero_extendqisi2
 1112 064e 9BB2     		uxth	r3, r3
 1113 0650 1120     		movs	r0, #17
 1114 0652 0C21     		movs	r1, #12
 1115 0654 0322     		movs	r2, #3
 1116 0656 FFF7FEFF 		bl	openserial_printCritical
 465:build/OpenMote-CC2538_armgcc/openstack/03a-IPHC/iphc.c ****             COMPONENT_IPHC,
 466:build/OpenMote-CC2538_armgcc/openstack/03a-IPHC/iphc.c ****             ERR_6LOWPAN_UNSUPPORTED,
 467:build/OpenMote-CC2538_armgcc/openstack/03a-IPHC/iphc.c ****             (errorparameter_t)3,
 468:build/OpenMote-CC2538_armgcc/openstack/03a-IPHC/iphc.c ****             (errorparameter_t)nh
 469:build/OpenMote-CC2538_armgcc/openstack/03a-IPHC/iphc.c ****          );
 470:build/OpenMote-CC2538_armgcc/openstack/03a-IPHC/iphc.c ****          return E_FAIL;
 1117              		.loc 1 470 0
 1118 065a 0123     		movs	r3, #1
 1119 065c 8BE0     		b	.L46
 1120              	.L82:
 462:build/OpenMote-CC2538_armgcc/openstack/03a-IPHC/iphc.c ****       default:
 1121              		.loc 1 462 0
 1122 065e 00BF     		nop
 1123              	.L74:
 471:build/OpenMote-CC2538_armgcc/openstack/03a-IPHC/iphc.c ****    }
 472:build/OpenMote-CC2538_armgcc/openstack/03a-IPHC/iphc.c ****    
 473:build/OpenMote-CC2538_armgcc/openstack/03a-IPHC/iphc.c ****    // flowlabel
 474:build/OpenMote-CC2538_armgcc/openstack/03a-IPHC/iphc.c ****    switch (tf) {
 1124              		.loc 1 474 0
 1125 0660 FB7A     		ldrb	r3, [r7, #11]	@ zero_extendqisi2
 1126 0662 012B     		cmp	r3, #1
 1127 0664 02D0     		beq	.L76
 1128 0666 032B     		cmp	r3, #3
 1129 0668 2BD0     		beq	.L83
 1130 066a 21E0     		b	.L80
 1131              	.L76:
 475:build/OpenMote-CC2538_armgcc/openstack/03a-IPHC/iphc.c ****       case IPHC_TF_3B:
 476:build/OpenMote-CC2538_armgcc/openstack/03a-IPHC/iphc.c ****              packetfunctions_reserveHeaderSize(msg,sizeof(uint8_t));
 1132              		.loc 1 476 0
 1133 066c F868     		ldr	r0, [r7, #12]
 1134 066e 0121     		movs	r1, #1
 1135 0670 FFF7FEFF 		bl	packetfunctions_reserveHeaderSize
 477:build/OpenMote-CC2538_armgcc/openstack/03a-IPHC/iphc.c **** 			 *((uint8_t*)(msg->payload)) = ((uint32_t)(value_flowLabel & 0x000000ff) >> 0);
 1136              		.loc 1 477 0
 1137 0674 FB68     		ldr	r3, [r7, #12]
 1138 0676 5B68     		ldr	r3, [r3, #4]
 1139 0678 7A68     		ldr	r2, [r7, #4]
 1140 067a D2B2     		uxtb	r2, r2
 1141 067c 1A70     		strb	r2, [r3]
 478:build/OpenMote-CC2538_armgcc/openstack/03a-IPHC/iphc.c **** 			 packetfunctions_reserveHeaderSize(msg,sizeof(uint8_t));
 1142              		.loc 1 478 0
 1143 067e F868     		ldr	r0, [r7, #12]
 1144 0680 0121     		movs	r1, #1
 1145 0682 FFF7FEFF 		bl	packetfunctions_reserveHeaderSize
 479:build/OpenMote-CC2538_armgcc/openstack/03a-IPHC/iphc.c **** 			 *((uint8_t*)(msg->payload)) = ((uint32_t)(value_flowLabel & 0x0000ff00) >> 8);
 1146              		.loc 1 479 0
 1147 0686 FB68     		ldr	r3, [r7, #12]
 1148 0688 5B68     		ldr	r3, [r3, #4]
 1149 068a 7A68     		ldr	r2, [r7, #4]
 1150 068c 02F47F42 		and	r2, r2, #65280
 1151 0690 120A     		lsrs	r2, r2, #8
 1152 0692 D2B2     		uxtb	r2, r2
 1153 0694 1A70     		strb	r2, [r3]
 480:build/OpenMote-CC2538_armgcc/openstack/03a-IPHC/iphc.c **** 			 packetfunctions_reserveHeaderSize(msg,sizeof(uint8_t));
 1154              		.loc 1 480 0
 1155 0696 F868     		ldr	r0, [r7, #12]
 1156 0698 0121     		movs	r1, #1
 1157 069a FFF7FEFF 		bl	packetfunctions_reserveHeaderSize
 481:build/OpenMote-CC2538_armgcc/openstack/03a-IPHC/iphc.c **** 			 *((uint8_t*)(msg->payload)) = ((uint32_t)(value_flowLabel & 0x00ff0000) >> 16);
 1158              		.loc 1 481 0
 1159 069e FB68     		ldr	r3, [r7, #12]
 1160 06a0 5B68     		ldr	r3, [r3, #4]
 1161 06a2 7A68     		ldr	r2, [r7, #4]
 1162 06a4 02F47F02 		and	r2, r2, #16711680
 1163 06a8 120C     		lsrs	r2, r2, #16
 1164 06aa D2B2     		uxtb	r2, r2
 1165 06ac 1A70     		strb	r2, [r3]
 482:build/OpenMote-CC2538_armgcc/openstack/03a-IPHC/iphc.c ****          break;            
 1166              		.loc 1 482 0
 1167 06ae 09E0     		b	.L78
 1168              	.L80:
 483:build/OpenMote-CC2538_armgcc/openstack/03a-IPHC/iphc.c ****       case IPHC_TF_ELIDED:
 484:build/OpenMote-CC2538_armgcc/openstack/03a-IPHC/iphc.c ****          break;
 485:build/OpenMote-CC2538_armgcc/openstack/03a-IPHC/iphc.c ****       case IPHC_TF_4B:
 486:build/OpenMote-CC2538_armgcc/openstack/03a-IPHC/iphc.c ****          //unsupported
 487:build/OpenMote-CC2538_armgcc/openstack/03a-IPHC/iphc.c ****       case IPHC_TF_1B:
 488:build/OpenMote-CC2538_armgcc/openstack/03a-IPHC/iphc.c ****          //unsupported
 489:build/OpenMote-CC2538_armgcc/openstack/03a-IPHC/iphc.c ****       default:
 490:build/OpenMote-CC2538_armgcc/openstack/03a-IPHC/iphc.c ****          openserial_printCritical(
 1169              		.loc 1 490 0
 1170 06b0 FB7A     		ldrb	r3, [r7, #11]	@ zero_extendqisi2
 1171 06b2 9BB2     		uxth	r3, r3
 1172 06b4 1120     		movs	r0, #17
 1173 06b6 0C21     		movs	r1, #12
 1174 06b8 0422     		movs	r2, #4
 1175 06ba FFF7FEFF 		bl	openserial_printCritical
 491:build/OpenMote-CC2538_armgcc/openstack/03a-IPHC/iphc.c ****             COMPONENT_IPHC,
 492:build/OpenMote-CC2538_armgcc/openstack/03a-IPHC/iphc.c ****             ERR_6LOWPAN_UNSUPPORTED,
 493:build/OpenMote-CC2538_armgcc/openstack/03a-IPHC/iphc.c ****             (errorparameter_t)4,
 494:build/OpenMote-CC2538_armgcc/openstack/03a-IPHC/iphc.c ****             (errorparameter_t)tf
 495:build/OpenMote-CC2538_armgcc/openstack/03a-IPHC/iphc.c ****          );
 496:build/OpenMote-CC2538_armgcc/openstack/03a-IPHC/iphc.c ****          return E_FAIL;
 1176              		.loc 1 496 0
 1177 06be 0123     		movs	r3, #1
 1178 06c0 59E0     		b	.L46
 1179              	.L83:
 484:build/OpenMote-CC2538_armgcc/openstack/03a-IPHC/iphc.c ****       case IPHC_TF_4B:
 1180              		.loc 1 484 0
 1181 06c2 00BF     		nop
 1182              	.L78:
 497:build/OpenMote-CC2538_armgcc/openstack/03a-IPHC/iphc.c ****    }
 498:build/OpenMote-CC2538_armgcc/openstack/03a-IPHC/iphc.c ****    
 499:build/OpenMote-CC2538_armgcc/openstack/03a-IPHC/iphc.c ****    // header
 500:build/OpenMote-CC2538_armgcc/openstack/03a-IPHC/iphc.c ****    temp_8b    = 0;
 1183              		.loc 1 500 0
 1184 06c4 0023     		movs	r3, #0
 1185 06c6 FB75     		strb	r3, [r7, #23]
 501:build/OpenMote-CC2538_armgcc/openstack/03a-IPHC/iphc.c ****    temp_8b   |= cid                    << IPHC_CID;
 1186              		.loc 1 501 0
 1187 06c8 97F82C30 		ldrb	r3, [r7, #44]	@ zero_extendqisi2
 1188 06cc DB01     		lsls	r3, r3, #7
 1189 06ce DAB2     		uxtb	r2, r3
 1190 06d0 FB7D     		ldrb	r3, [r7, #23]	@ zero_extendqisi2
 1191 06d2 1343     		orrs	r3, r3, r2
 1192 06d4 DBB2     		uxtb	r3, r3
 1193 06d6 FB75     		strb	r3, [r7, #23]
 502:build/OpenMote-CC2538_armgcc/openstack/03a-IPHC/iphc.c ****    temp_8b   |= sac                    << IPHC_SAC;
 1194              		.loc 1 502 0
 1195 06d8 97F83030 		ldrb	r3, [r7, #48]	@ zero_extendqisi2
 1196 06dc 9B01     		lsls	r3, r3, #6
 1197 06de DAB2     		uxtb	r2, r3
 1198 06e0 FB7D     		ldrb	r3, [r7, #23]	@ zero_extendqisi2
 1199 06e2 1343     		orrs	r3, r3, r2
 1200 06e4 DBB2     		uxtb	r3, r3
 1201 06e6 FB75     		strb	r3, [r7, #23]
 503:build/OpenMote-CC2538_armgcc/openstack/03a-IPHC/iphc.c ****    temp_8b   |= sam                    << IPHC_SAM;
 1202              		.loc 1 503 0
 1203 06e8 97F83430 		ldrb	r3, [r7, #52]	@ zero_extendqisi2
 1204 06ec 1B01     		lsls	r3, r3, #4
 1205 06ee DAB2     		uxtb	r2, r3
 1206 06f0 FB7D     		ldrb	r3, [r7, #23]	@ zero_extendqisi2
 1207 06f2 1343     		orrs	r3, r3, r2
 1208 06f4 DBB2     		uxtb	r3, r3
 1209 06f6 FB75     		strb	r3, [r7, #23]
 504:build/OpenMote-CC2538_armgcc/openstack/03a-IPHC/iphc.c ****    temp_8b   |= m                      << IPHC_M;
 1210              		.loc 1 504 0
 1211 06f8 97F83830 		ldrb	r3, [r7, #56]	@ zero_extendqisi2
 1212 06fc DB00     		lsls	r3, r3, #3
 1213 06fe DAB2     		uxtb	r2, r3
 1214 0700 FB7D     		ldrb	r3, [r7, #23]	@ zero_extendqisi2
 1215 0702 1343     		orrs	r3, r3, r2
 1216 0704 DBB2     		uxtb	r3, r3
 1217 0706 FB75     		strb	r3, [r7, #23]
 505:build/OpenMote-CC2538_armgcc/openstack/03a-IPHC/iphc.c ****    temp_8b   |= dac                    << IPHC_DAC;
 1218              		.loc 1 505 0
 1219 0708 97F83C30 		ldrb	r3, [r7, #60]	@ zero_extendqisi2
 1220 070c 9B00     		lsls	r3, r3, #2
 1221 070e DAB2     		uxtb	r2, r3
 1222 0710 FB7D     		ldrb	r3, [r7, #23]	@ zero_extendqisi2
 1223 0712 1343     		orrs	r3, r3, r2
 1224 0714 DBB2     		uxtb	r3, r3
 1225 0716 FB75     		strb	r3, [r7, #23]
 506:build/OpenMote-CC2538_armgcc/openstack/03a-IPHC/iphc.c ****    temp_8b   |= dam                    << IPHC_DAM;
 1226              		.loc 1 506 0
 1227 0718 FA7D     		ldrb	r2, [r7, #23]
 1228 071a 97F84030 		ldrb	r3, [r7, #64]
 1229 071e 1343     		orrs	r3, r3, r2
 1230 0720 FB75     		strb	r3, [r7, #23]
 507:build/OpenMote-CC2538_armgcc/openstack/03a-IPHC/iphc.c ****    packetfunctions_reserveHeaderSize(msg,sizeof(uint8_t));
 1231              		.loc 1 507 0
 1232 0722 F868     		ldr	r0, [r7, #12]
 1233 0724 0121     		movs	r1, #1
 1234 0726 FFF7FEFF 		bl	packetfunctions_reserveHeaderSize
 508:build/OpenMote-CC2538_armgcc/openstack/03a-IPHC/iphc.c ****    *((uint8_t*)(msg->payload)) = temp_8b;
 1235              		.loc 1 508 0
 1236 072a FB68     		ldr	r3, [r7, #12]
 1237 072c 5B68     		ldr	r3, [r3, #4]
 1238 072e FA7D     		ldrb	r2, [r7, #23]
 1239 0730 1A70     		strb	r2, [r3]
 509:build/OpenMote-CC2538_armgcc/openstack/03a-IPHC/iphc.c ****    temp_8b    = 0;
 1240              		.loc 1 509 0
 1241 0732 0023     		movs	r3, #0
 1242 0734 FB75     		strb	r3, [r7, #23]
 510:build/OpenMote-CC2538_armgcc/openstack/03a-IPHC/iphc.c ****    temp_8b   |= IPHC_DISPATCH_IPHC     << IPHC_DISPATCH;
 1243              		.loc 1 510 0
 1244 0736 FB7D     		ldrb	r3, [r7, #23]
 1245 0738 43F06003 		orr	r3, r3, #96
 1246 073c FB75     		strb	r3, [r7, #23]
 511:build/OpenMote-CC2538_armgcc/openstack/03a-IPHC/iphc.c ****    temp_8b   |= tf                     << IPHC_TF;
 1247              		.loc 1 511 0
 1248 073e FB7A     		ldrb	r3, [r7, #11]	@ zero_extendqisi2
 1249 0740 DB00     		lsls	r3, r3, #3
 1250 0742 DAB2     		uxtb	r2, r3
 1251 0744 FB7D     		ldrb	r3, [r7, #23]	@ zero_extendqisi2
 1252 0746 1343     		orrs	r3, r3, r2
 1253 0748 DBB2     		uxtb	r3, r3
 1254 074a FB75     		strb	r3, [r7, #23]
 512:build/OpenMote-CC2538_armgcc/openstack/03a-IPHC/iphc.c ****    temp_8b   |= nh                     << IPHC_NH;
 1255              		.loc 1 512 0
 1256 074c BB7A     		ldrb	r3, [r7, #10]	@ zero_extendqisi2
 1257 074e 9B00     		lsls	r3, r3, #2
 1258 0750 DAB2     		uxtb	r2, r3
 1259 0752 FB7D     		ldrb	r3, [r7, #23]	@ zero_extendqisi2
 1260 0754 1343     		orrs	r3, r3, r2
 1261 0756 DBB2     		uxtb	r3, r3
 1262 0758 FB75     		strb	r3, [r7, #23]
 513:build/OpenMote-CC2538_armgcc/openstack/03a-IPHC/iphc.c ****    temp_8b   |= hlim                   << IPHC_HLIM;
 1263              		.loc 1 513 0
 1264 075a FA7D     		ldrb	r2, [r7, #23]
 1265 075c 97F82430 		ldrb	r3, [r7, #36]
 1266 0760 1343     		orrs	r3, r3, r2
 1267 0762 FB75     		strb	r3, [r7, #23]
 514:build/OpenMote-CC2538_armgcc/openstack/03a-IPHC/iphc.c ****    packetfunctions_reserveHeaderSize(msg,sizeof(uint8_t));
 1268              		.loc 1 514 0
 1269 0764 F868     		ldr	r0, [r7, #12]
 1270 0766 0121     		movs	r1, #1
 1271 0768 FFF7FEFF 		bl	packetfunctions_reserveHeaderSize
 515:build/OpenMote-CC2538_armgcc/openstack/03a-IPHC/iphc.c ****    *((uint8_t*)(msg->payload)) = temp_8b;
 1272              		.loc 1 515 0
 1273 076c FB68     		ldr	r3, [r7, #12]
 1274 076e 5B68     		ldr	r3, [r3, #4]
 1275 0770 FA7D     		ldrb	r2, [r7, #23]
 1276 0772 1A70     		strb	r2, [r3]
 516:build/OpenMote-CC2538_armgcc/openstack/03a-IPHC/iphc.c ****    
 517:build/OpenMote-CC2538_armgcc/openstack/03a-IPHC/iphc.c ****    return E_SUCCESS;
 1277              		.loc 1 517 0
 1278 0774 0023     		movs	r3, #0
 1279              	.L46:
 518:build/OpenMote-CC2538_armgcc/openstack/03a-IPHC/iphc.c **** }
 1280              		.loc 1 518 0
 1281 0776 1846     		mov	r0, r3
 1282 0778 1837     		adds	r7, r7, #24
 1283              		.cfi_def_cfa_offset 8
 1284 077a BD46     		mov	sp, r7
 1285              		.cfi_def_cfa_register 13
 1286              		@ sp needed
 1287 077c 80BD     		pop	{r7, pc}
 1288              		.cfi_endproc
 1289              	.LFE5:
 1291 077e 00BF     		.align	2
 1292              		.global	iphc_retrieveIPv6Header
 1293              		.thumb
 1294              		.thumb_func
 1296              	iphc_retrieveIPv6Header:
 1297              	.LFB6:
 519:build/OpenMote-CC2538_armgcc/openstack/03a-IPHC/iphc.c **** 
 520:build/OpenMote-CC2538_armgcc/openstack/03a-IPHC/iphc.c **** /**
 521:build/OpenMote-CC2538_armgcc/openstack/03a-IPHC/iphc.c **** \brief Retrieve an IPv6 header from a message.
 522:build/OpenMote-CC2538_armgcc/openstack/03a-IPHC/iphc.c **** */
 523:build/OpenMote-CC2538_armgcc/openstack/03a-IPHC/iphc.c **** void iphc_retrieveIPv6Header(OpenQueueEntry_t* msg, ipv6_header_iht* ipv6_outer_header, ipv6_header
 1298              		.loc 1 523 0
 1299              		.cfi_startproc
 1300              		@ args = 0, pretend = 0, frame = 72
 1301              		@ frame_needed = 1, uses_anonymous_args = 0
 1302 0780 B0B5     		push	{r4, r5, r7, lr}
 1303              		.cfi_def_cfa_offset 16
 1304              		.cfi_offset 4, -16
 1305              		.cfi_offset 5, -12
 1306              		.cfi_offset 7, -8
 1307              		.cfi_offset 14, -4
 1308 0782 9AB0     		sub	sp, sp, #104
 1309              		.cfi_def_cfa_offset 120
 1310 0784 08AF     		add	r7, sp, #32
 1311              		.cfi_def_cfa 7, 88
 1312 0786 F860     		str	r0, [r7, #12]
 1313 0788 B960     		str	r1, [r7, #8]
 1314 078a 7A60     		str	r2, [r7, #4]
 1315 078c 3B60     		str	r3, [r7]
 524:build/OpenMote-CC2538_armgcc/openstack/03a-IPHC/iphc.c ****     uint8_t         temp_8b;
 525:build/OpenMote-CC2538_armgcc/openstack/03a-IPHC/iphc.c ****     open_addr_t     temp_addr_16b;
 526:build/OpenMote-CC2538_armgcc/openstack/03a-IPHC/iphc.c ****     open_addr_t     temp_addr_64b;
 527:build/OpenMote-CC2538_armgcc/openstack/03a-IPHC/iphc.c ****     uint8_t         dispatch;
 528:build/OpenMote-CC2538_armgcc/openstack/03a-IPHC/iphc.c ****     uint8_t         tf;
 529:build/OpenMote-CC2538_armgcc/openstack/03a-IPHC/iphc.c ****     bool            nh;
 530:build/OpenMote-CC2538_armgcc/openstack/03a-IPHC/iphc.c ****     uint8_t         hlim;
 531:build/OpenMote-CC2538_armgcc/openstack/03a-IPHC/iphc.c ****     uint8_t         sam;
 532:build/OpenMote-CC2538_armgcc/openstack/03a-IPHC/iphc.c ****     uint8_t         m;
 533:build/OpenMote-CC2538_armgcc/openstack/03a-IPHC/iphc.c ****     uint8_t         dam;
 534:build/OpenMote-CC2538_armgcc/openstack/03a-IPHC/iphc.c ****     uint8_t         size;
 535:build/OpenMote-CC2538_armgcc/openstack/03a-IPHC/iphc.c ****     uint8_t         lorh_type;
 536:build/OpenMote-CC2538_armgcc/openstack/03a-IPHC/iphc.c ****     uint8_t         rh3_index;
 537:build/OpenMote-CC2538_armgcc/openstack/03a-IPHC/iphc.c ****     uint8_t         page;
 538:build/OpenMote-CC2538_armgcc/openstack/03a-IPHC/iphc.c ****     uint8_t         ipinip_length;
 539:build/OpenMote-CC2538_armgcc/openstack/03a-IPHC/iphc.c ****     
 540:build/OpenMote-CC2538_armgcc/openstack/03a-IPHC/iphc.c ****     uint8_t         extention_header_length;
 541:build/OpenMote-CC2538_armgcc/openstack/03a-IPHC/iphc.c ****     
 542:build/OpenMote-CC2538_armgcc/openstack/03a-IPHC/iphc.c ****     *page_length                      = 0;
 1316              		.loc 1 542 0
 1317 078e 3B68     		ldr	r3, [r7]
 1318 0790 0022     		movs	r2, #0
 1319 0792 1A70     		strb	r2, [r3]
 543:build/OpenMote-CC2538_armgcc/openstack/03a-IPHC/iphc.c ****     extention_header_length          = 0;
 1320              		.loc 1 543 0
 1321 0794 0023     		movs	r3, #0
 1322 0796 87F84530 		strb	r3, [r7, #69]
 544:build/OpenMote-CC2538_armgcc/openstack/03a-IPHC/iphc.c ****     rh3_index                        = 0;
 1323              		.loc 1 544 0
 1324 079a 0023     		movs	r3, #0
 1325 079c 87F84430 		strb	r3, [r7, #68]
 545:build/OpenMote-CC2538_armgcc/openstack/03a-IPHC/iphc.c ****     ipv6_outer_header->header_length = 0;
 1326              		.loc 1 545 0
 1327 07a0 BB68     		ldr	r3, [r7, #8]
 1328 07a2 0022     		movs	r2, #0
 1329 07a4 83F83F20 		strb	r2, [r3, #63]
 546:build/OpenMote-CC2538_armgcc/openstack/03a-IPHC/iphc.c ****     ipv6_inner_header->header_length = 0;
 1330              		.loc 1 546 0
 1331 07a8 7B68     		ldr	r3, [r7, #4]
 1332 07aa 0022     		movs	r2, #0
 1333 07ac 83F83F20 		strb	r2, [r3, #63]
 547:build/OpenMote-CC2538_armgcc/openstack/03a-IPHC/iphc.c **** 
 548:build/OpenMote-CC2538_armgcc/openstack/03a-IPHC/iphc.c ****     // four steps to retrieve:
 549:build/OpenMote-CC2538_armgcc/openstack/03a-IPHC/iphc.c ****     // step 1. Paging number
 550:build/OpenMote-CC2538_armgcc/openstack/03a-IPHC/iphc.c ****     // step 2. IP in IP 6LoRH
 551:build/OpenMote-CC2538_armgcc/openstack/03a-IPHC/iphc.c ****     // step 3. IPv6 extention header
 552:build/OpenMote-CC2538_armgcc/openstack/03a-IPHC/iphc.c ****     // step 4. IPv6 inner header
 553:build/OpenMote-CC2538_armgcc/openstack/03a-IPHC/iphc.c ****     // ====================== 1. paging number =================================
 554:build/OpenMote-CC2538_armgcc/openstack/03a-IPHC/iphc.c ****     temp_8b = *((uint8_t*)(msg->payload)+ipv6_outer_header->header_length);
 1334              		.loc 1 554 0
 1335 07b0 FB68     		ldr	r3, [r7, #12]
 1336 07b2 5B68     		ldr	r3, [r3, #4]
 1337 07b4 BA68     		ldr	r2, [r7, #8]
 1338 07b6 92F83F20 		ldrb	r2, [r2, #63]	@ zero_extendqisi2
 1339 07ba 1344     		add	r3, r3, r2
 1340 07bc 1B78     		ldrb	r3, [r3]
 1341 07be 87F84730 		strb	r3, [r7, #71]
 555:build/OpenMote-CC2538_armgcc/openstack/03a-IPHC/iphc.c ****     if ((temp_8b&PAGE_DISPATCH_TAG) == PAGE_DISPATCH_TAG){
 1342              		.loc 1 555 0
 1343 07c2 97F84730 		ldrb	r3, [r7, #71]	@ zero_extendqisi2
 1344 07c6 03F0F003 		and	r3, r3, #240
 1345 07ca F02B     		cmp	r3, #240
 1346 07cc 09D1     		bne	.L85
 556:build/OpenMote-CC2538_armgcc/openstack/03a-IPHC/iphc.c ****         page = temp_8b&PAGE_DISPATCH_NUM; 
 1347              		.loc 1 556 0
 1348 07ce 97F84730 		ldrb	r3, [r7, #71]
 1349 07d2 03F00F03 		and	r3, r3, #15
 1350 07d6 87F84630 		strb	r3, [r7, #70]
 557:build/OpenMote-CC2538_armgcc/openstack/03a-IPHC/iphc.c ****         *page_length = 1;
 1351              		.loc 1 557 0
 1352 07da 3B68     		ldr	r3, [r7]
 1353 07dc 0122     		movs	r2, #1
 1354 07de 1A70     		strb	r2, [r3]
 1355 07e0 02E0     		b	.L86
 1356              	.L85:
 558:build/OpenMote-CC2538_armgcc/openstack/03a-IPHC/iphc.c ****     } else {
 559:build/OpenMote-CC2538_armgcc/openstack/03a-IPHC/iphc.c ****         page = 0;
 1357              		.loc 1 559 0
 1358 07e2 0023     		movs	r3, #0
 1359 07e4 87F84630 		strb	r3, [r7, #70]
 1360              	.L86:
 560:build/OpenMote-CC2538_armgcc/openstack/03a-IPHC/iphc.c ****     }
 561:build/OpenMote-CC2538_armgcc/openstack/03a-IPHC/iphc.c ****     //======================= 2. IPv6 extention header =========================
 562:build/OpenMote-CC2538_armgcc/openstack/03a-IPHC/iphc.c ****     if(page==1){
 1361              		.loc 1 562 0
 1362 07e8 97F84630 		ldrb	r3, [r7, #70]	@ zero_extendqisi2
 1363 07ec 012B     		cmp	r3, #1
 1364 07ee 40F00381 		bne	.L87
 563:build/OpenMote-CC2538_armgcc/openstack/03a-IPHC/iphc.c ****         extention_header_length = 0;
 1365              		.loc 1 563 0
 1366 07f2 0023     		movs	r3, #0
 1367 07f4 87F84530 		strb	r3, [r7, #69]
 564:build/OpenMote-CC2538_armgcc/openstack/03a-IPHC/iphc.c ****         temp_8b = *((uint8_t*)(msg->payload)+*page_length+extention_header_length);
 1368              		.loc 1 564 0
 1369 07f8 FB68     		ldr	r3, [r7, #12]
 1370 07fa 5A68     		ldr	r2, [r3, #4]
 1371 07fc 3B68     		ldr	r3, [r7]
 1372 07fe 1B78     		ldrb	r3, [r3]	@ zero_extendqisi2
 1373 0800 1946     		mov	r1, r3
 1374 0802 97F84530 		ldrb	r3, [r7, #69]	@ zero_extendqisi2
 1375 0806 0B44     		add	r3, r3, r1
 1376 0808 1344     		add	r3, r3, r2
 1377 080a 1B78     		ldrb	r3, [r3]
 1378 080c 87F84730 		strb	r3, [r7, #71]
 565:build/OpenMote-CC2538_armgcc/openstack/03a-IPHC/iphc.c ****         while ((temp_8b&FORMAT_6LORH_MASK) == CRITICAL_6LORH){
 1379              		.loc 1 565 0
 1380 0810 EBE0     		b	.L88
 1381              	.L108:
 566:build/OpenMote-CC2538_armgcc/openstack/03a-IPHC/iphc.c ****             lorh_type = *((uint8_t*)(msg->payload)+*page_length+extention_header_length+1);
 1382              		.loc 1 566 0
 1383 0812 FB68     		ldr	r3, [r7, #12]
 1384 0814 5A68     		ldr	r2, [r3, #4]
 1385 0816 3B68     		ldr	r3, [r7]
 1386 0818 1B78     		ldrb	r3, [r3]	@ zero_extendqisi2
 1387 081a 1946     		mov	r1, r3
 1388 081c 97F84530 		ldrb	r3, [r7, #69]	@ zero_extendqisi2
 1389 0820 0B44     		add	r3, r3, r1
 1390 0822 0133     		adds	r3, r3, #1
 1391 0824 1344     		add	r3, r3, r2
 1392 0826 1B78     		ldrb	r3, [r3]
 1393 0828 87F84330 		strb	r3, [r7, #67]
 567:build/OpenMote-CC2538_armgcc/openstack/03a-IPHC/iphc.c ****             if(lorh_type<=RH3_6LOTH_TYPE_4){
 1394              		.loc 1 567 0
 1395 082c 97F84330 		ldrb	r3, [r7, #67]	@ zero_extendqisi2
 1396 0830 042B     		cmp	r3, #4
 1397 0832 00F28C80 		bhi	.L89
 568:build/OpenMote-CC2538_armgcc/openstack/03a-IPHC/iphc.c ****                 if (rh3_index == MAXNUM_RH3){
 1398              		.loc 1 568 0
 1399 0836 97F84430 		ldrb	r3, [r7, #68]	@ zero_extendqisi2
 1400 083a 032B     		cmp	r3, #3
 1401 083c 08D1     		bne	.L90
 569:build/OpenMote-CC2538_armgcc/openstack/03a-IPHC/iphc.c ****                     openserial_printError(
 1402              		.loc 1 569 0
 1403 083e 97F84430 		ldrb	r3, [r7, #68]	@ zero_extendqisi2
 1404 0842 9BB2     		uxth	r3, r3
 1405 0844 1120     		movs	r0, #17
 1406 0846 0C21     		movs	r1, #12
 1407 0848 0D22     		movs	r2, #13
 1408 084a FFF7FEFF 		bl	openserial_printError
 1409 084e E5E1     		b	.L84
 1410              	.L90:
 570:build/OpenMote-CC2538_armgcc/openstack/03a-IPHC/iphc.c ****                         COMPONENT_IPHC,
 571:build/OpenMote-CC2538_armgcc/openstack/03a-IPHC/iphc.c ****                         ERR_6LOWPAN_UNSUPPORTED,
 572:build/OpenMote-CC2538_armgcc/openstack/03a-IPHC/iphc.c ****                         (errorparameter_t)13,
 573:build/OpenMote-CC2538_armgcc/openstack/03a-IPHC/iphc.c ****                         (errorparameter_t)(rh3_index)
 574:build/OpenMote-CC2538_armgcc/openstack/03a-IPHC/iphc.c ****                     );
 575:build/OpenMote-CC2538_armgcc/openstack/03a-IPHC/iphc.c ****                     return;
 576:build/OpenMote-CC2538_armgcc/openstack/03a-IPHC/iphc.c ****                 }
 577:build/OpenMote-CC2538_armgcc/openstack/03a-IPHC/iphc.c ****                 if (rh3_index==0){
 1411              		.loc 1 577 0
 1412 0850 97F84430 		ldrb	r3, [r7, #68]	@ zero_extendqisi2
 1413 0854 002B     		cmp	r3, #0
 1414 0856 16D1     		bne	.L92
 578:build/OpenMote-CC2538_armgcc/openstack/03a-IPHC/iphc.c ****                     if (ipv6_outer_header->hopByhop_option == NULL){
 1415              		.loc 1 578 0
 1416 0858 BB68     		ldr	r3, [r7, #8]
 1417 085a 9B69     		ldr	r3, [r3, #24]
 1418 085c 002B     		cmp	r3, #0
 1419 085e 02D1     		bne	.L93
 579:build/OpenMote-CC2538_armgcc/openstack/03a-IPHC/iphc.c ****                         ipv6_outer_header->next_header = IANA_IPv6ROUTE;
 1420              		.loc 1 579 0
 1421 0860 BB68     		ldr	r3, [r7, #8]
 1422 0862 2B22     		movs	r2, #43
 1423 0864 5A72     		strb	r2, [r3, #9]
 1424              	.L93:
 580:build/OpenMote-CC2538_armgcc/openstack/03a-IPHC/iphc.c ****                     }
 581:build/OpenMote-CC2538_armgcc/openstack/03a-IPHC/iphc.c ****                     ipv6_outer_header->routing_header[rh3_index] = (uint8_t*)(msg->payload) + \
 1425              		.loc 1 581 0
 1426 0866 97F84430 		ldrb	r3, [r7, #68]	@ zero_extendqisi2
 1427 086a FA68     		ldr	r2, [r7, #12]
 1428 086c 5168     		ldr	r1, [r2, #4]
 582:build/OpenMote-CC2538_armgcc/openstack/03a-IPHC/iphc.c ****                                     *page_length + \
 1429              		.loc 1 582 0
 1430 086e 3A68     		ldr	r2, [r7]
 1431 0870 1278     		ldrb	r2, [r2]	@ zero_extendqisi2
 1432 0872 1046     		mov	r0, r2
 1433 0874 97F84520 		ldrb	r2, [r7, #69]	@ zero_extendqisi2
 1434 0878 0244     		add	r2, r2, r0
 1435 087a 0A44     		add	r2, r2, r1
 581:build/OpenMote-CC2538_armgcc/openstack/03a-IPHC/iphc.c ****                                     *page_length + \
 1436              		.loc 1 581 0
 1437 087c B968     		ldr	r1, [r7, #8]
 1438 087e 0233     		adds	r3, r3, #2
 1439 0880 9B00     		lsls	r3, r3, #2
 1440 0882 0B44     		add	r3, r3, r1
 1441 0884 5A60     		str	r2, [r3, #4]
 1442              	.L92:
 583:build/OpenMote-CC2538_armgcc/openstack/03a-IPHC/iphc.c ****                                     extention_header_length;
 584:build/OpenMote-CC2538_armgcc/openstack/03a-IPHC/iphc.c ****                 }
 585:build/OpenMote-CC2538_armgcc/openstack/03a-IPHC/iphc.c ****                 size = temp_8b & RH3_6LOTH_SIZE_MASK;
 1443              		.loc 1 585 0
 1444 0886 97F84730 		ldrb	r3, [r7, #71]
 1445 088a 03F01F03 		and	r3, r3, #31
 1446 088e 87F84230 		strb	r3, [r7, #66]
 586:build/OpenMote-CC2538_armgcc/openstack/03a-IPHC/iphc.c ****                 size += 1;
 1447              		.loc 1 586 0
 1448 0892 97F84230 		ldrb	r3, [r7, #66]
 1449 0896 0133     		adds	r3, r3, #1
 1450 0898 87F84230 		strb	r3, [r7, #66]
 587:build/OpenMote-CC2538_armgcc/openstack/03a-IPHC/iphc.c ****                 switch(lorh_type){
 1451              		.loc 1 587 0
 1452 089c 97F84330 		ldrb	r3, [r7, #67]	@ zero_extendqisi2
 1453 08a0 042B     		cmp	r3, #4
 1454 08a2 47D8     		bhi	.L94
 1455 08a4 01A2     		adr	r2, .L96
 1456 08a6 52F823F0 		ldr	pc, [r2, r3, lsl #2]
 1457 08aa 00BF     		.p2align 2
 1458              	.L96:
 1459 08ac C1080000 		.word	.L95+1
 1460 08b0 D5080000 		.word	.L97+1
 1461 08b4 ED080000 		.word	.L98+1
 1462 08b8 05090000 		.word	.L99+1
 1463 08bc 1D090000 		.word	.L100+1
 1464              		.p2align 1
 1465              	.L95:
 588:build/OpenMote-CC2538_armgcc/openstack/03a-IPHC/iphc.c ****                 case 0:
 589:build/OpenMote-CC2538_armgcc/openstack/03a-IPHC/iphc.c ****                     extention_header_length += 2+ 1*size;
 1466              		.loc 1 589 0
 1467 08c0 97F84220 		ldrb	r2, [r7, #66]
 1468 08c4 97F84530 		ldrb	r3, [r7, #69]
 1469 08c8 1344     		add	r3, r3, r2
 1470 08ca DBB2     		uxtb	r3, r3
 1471 08cc 0233     		adds	r3, r3, #2
 1472 08ce 87F84530 		strb	r3, [r7, #69]
 590:build/OpenMote-CC2538_armgcc/openstack/03a-IPHC/iphc.c ****                     break;
 1473              		.loc 1 590 0
 1474 08d2 2FE0     		b	.L94
 1475              	.L97:
 591:build/OpenMote-CC2538_armgcc/openstack/03a-IPHC/iphc.c ****                 case 1:
 592:build/OpenMote-CC2538_armgcc/openstack/03a-IPHC/iphc.c ****                     extention_header_length += 2+ 2*size;
 1476              		.loc 1 592 0
 1477 08d4 97F84230 		ldrb	r3, [r7, #66]	@ zero_extendqisi2
 1478 08d8 0133     		adds	r3, r3, #1
 1479 08da DBB2     		uxtb	r3, r3
 1480 08dc 5B00     		lsls	r3, r3, #1
 1481 08de DAB2     		uxtb	r2, r3
 1482 08e0 97F84530 		ldrb	r3, [r7, #69]
 1483 08e4 1344     		add	r3, r3, r2
 1484 08e6 87F84530 		strb	r3, [r7, #69]
 593:build/OpenMote-CC2538_armgcc/openstack/03a-IPHC/iphc.c ****                     break;
 1485              		.loc 1 593 0
 1486 08ea 23E0     		b	.L94
 1487              	.L98:
 594:build/OpenMote-CC2538_armgcc/openstack/03a-IPHC/iphc.c ****                 case 2:
 595:build/OpenMote-CC2538_armgcc/openstack/03a-IPHC/iphc.c ****                     extention_header_length += 2+ 4*size;
 1488              		.loc 1 595 0
 1489 08ec 97F84230 		ldrb	r3, [r7, #66]
 1490 08f0 9B00     		lsls	r3, r3, #2
 1491 08f2 DAB2     		uxtb	r2, r3
 1492 08f4 97F84530 		ldrb	r3, [r7, #69]
 1493 08f8 1344     		add	r3, r3, r2
 1494 08fa DBB2     		uxtb	r3, r3
 1495 08fc 0233     		adds	r3, r3, #2
 1496 08fe 87F84530 		strb	r3, [r7, #69]
 596:build/OpenMote-CC2538_armgcc/openstack/03a-IPHC/iphc.c ****                     break;
 1497              		.loc 1 596 0
 1498 0902 17E0     		b	.L94
 1499              	.L99:
 597:build/OpenMote-CC2538_armgcc/openstack/03a-IPHC/iphc.c ****                 case 3:
 598:build/OpenMote-CC2538_armgcc/openstack/03a-IPHC/iphc.c ****                     extention_header_length += 2+ 8*size;
 1500              		.loc 1 598 0
 1501 0904 97F84230 		ldrb	r3, [r7, #66]
 1502 0908 DB00     		lsls	r3, r3, #3
 1503 090a DAB2     		uxtb	r2, r3
 1504 090c 97F84530 		ldrb	r3, [r7, #69]
 1505 0910 1344     		add	r3, r3, r2
 1506 0912 DBB2     		uxtb	r3, r3
 1507 0914 0233     		adds	r3, r3, #2
 1508 0916 87F84530 		strb	r3, [r7, #69]
 599:build/OpenMote-CC2538_armgcc/openstack/03a-IPHC/iphc.c ****                     break;
 1509              		.loc 1 599 0
 1510 091a 0BE0     		b	.L94
 1511              	.L100:
 600:build/OpenMote-CC2538_armgcc/openstack/03a-IPHC/iphc.c ****                 case 4:
 601:build/OpenMote-CC2538_armgcc/openstack/03a-IPHC/iphc.c ****                     extention_header_length += 2+ 16*size;
 1512              		.loc 1 601 0
 1513 091c 97F84230 		ldrb	r3, [r7, #66]
 1514 0920 1B01     		lsls	r3, r3, #4
 1515 0922 DAB2     		uxtb	r2, r3
 1516 0924 97F84530 		ldrb	r3, [r7, #69]
 1517 0928 1344     		add	r3, r3, r2
 1518 092a DBB2     		uxtb	r3, r3
 1519 092c 0233     		adds	r3, r3, #2
 1520 092e 87F84530 		strb	r3, [r7, #69]
 602:build/OpenMote-CC2538_armgcc/openstack/03a-IPHC/iphc.c ****                     break;
 1521              		.loc 1 602 0
 1522 0932 00BF     		nop
 1523              	.L94:
 603:build/OpenMote-CC2538_armgcc/openstack/03a-IPHC/iphc.c ****                 }
 604:build/OpenMote-CC2538_armgcc/openstack/03a-IPHC/iphc.c ****                 temp_8b = *(uint8_t*)((msg->payload) + \
 1524              		.loc 1 604 0
 1525 0934 FB68     		ldr	r3, [r7, #12]
 1526 0936 5A68     		ldr	r2, [r3, #4]
 605:build/OpenMote-CC2538_armgcc/openstack/03a-IPHC/iphc.c ****                                *page_length + \
 1527              		.loc 1 605 0
 1528 0938 3B68     		ldr	r3, [r7]
 1529 093a 1B78     		ldrb	r3, [r3]	@ zero_extendqisi2
 1530 093c 1946     		mov	r1, r3
 1531 093e 97F84530 		ldrb	r3, [r7, #69]	@ zero_extendqisi2
 1532 0942 0B44     		add	r3, r3, r1
 604:build/OpenMote-CC2538_armgcc/openstack/03a-IPHC/iphc.c ****                                *page_length + \
 1533              		.loc 1 604 0
 1534 0944 1344     		add	r3, r3, r2
 1535 0946 1B78     		ldrb	r3, [r3]
 1536 0948 87F84730 		strb	r3, [r7, #71]
 1537 094c 4DE0     		b	.L88
 1538              	.L89:
 606:build/OpenMote-CC2538_armgcc/openstack/03a-IPHC/iphc.c ****                                extention_header_length);
 607:build/OpenMote-CC2538_armgcc/openstack/03a-IPHC/iphc.c ****             } else {
 608:build/OpenMote-CC2538_armgcc/openstack/03a-IPHC/iphc.c ****                 if (lorh_type==5){
 1539              		.loc 1 608 0
 1540 094e 97F84330 		ldrb	r3, [r7, #67]	@ zero_extendqisi2
 1541 0952 052B     		cmp	r3, #5
 1542 0954 41D1     		bne	.L101
 609:build/OpenMote-CC2538_armgcc/openstack/03a-IPHC/iphc.c ****                     if (ipv6_outer_header->routing_header[0] == NULL){
 1543              		.loc 1 609 0
 1544 0956 BB68     		ldr	r3, [r7, #8]
 1545 0958 DB68     		ldr	r3, [r3, #12]
 1546 095a 002B     		cmp	r3, #0
 1547 095c 02D1     		bne	.L102
 610:build/OpenMote-CC2538_armgcc/openstack/03a-IPHC/iphc.c ****                         ipv6_outer_header->next_header = IANA_IPv6HOPOPT;
 1548              		.loc 1 610 0
 1549 095e BB68     		ldr	r3, [r7, #8]
 1550 0960 0022     		movs	r2, #0
 1551 0962 5A72     		strb	r2, [r3, #9]
 1552              	.L102:
 611:build/OpenMote-CC2538_armgcc/openstack/03a-IPHC/iphc.c ****                     }
 612:build/OpenMote-CC2538_armgcc/openstack/03a-IPHC/iphc.c ****                     ipv6_outer_header->hopByhop_option = (uint8_t*)(msg->payload) + \
 1553              		.loc 1 612 0
 1554 0964 FB68     		ldr	r3, [r7, #12]
 1555 0966 5A68     		ldr	r2, [r3, #4]
 613:build/OpenMote-CC2538_armgcc/openstack/03a-IPHC/iphc.c ****                                    *page_length + \
 1556              		.loc 1 613 0
 1557 0968 3B68     		ldr	r3, [r7]
 1558 096a 1B78     		ldrb	r3, [r3]	@ zero_extendqisi2
 1559 096c 1946     		mov	r1, r3
 1560 096e 97F84530 		ldrb	r3, [r7, #69]	@ zero_extendqisi2
 1561 0972 0B44     		add	r3, r3, r1
 1562 0974 1A44     		add	r2, r2, r3
 612:build/OpenMote-CC2538_armgcc/openstack/03a-IPHC/iphc.c ****                                    *page_length + \
 1563              		.loc 1 612 0
 1564 0976 BB68     		ldr	r3, [r7, #8]
 1565 0978 9A61     		str	r2, [r3, #24]
 614:build/OpenMote-CC2538_armgcc/openstack/03a-IPHC/iphc.c ****                                    extention_header_length;
 615:build/OpenMote-CC2538_armgcc/openstack/03a-IPHC/iphc.c ****                     switch(temp_8b & (I_FLAG | K_FLAG)){
 1566              		.loc 1 615 0
 1567 097a 97F84730 		ldrb	r3, [r7, #71]	@ zero_extendqisi2
 1568 097e 03F00303 		and	r3, r3, #3
 1569 0982 032B     		cmp	r3, #3
 1570 0984 1CD8     		bhi	.L103
 1571 0986 01A2     		adr	r2, .L105
 1572 0988 52F823F0 		ldr	pc, [r2, r3, lsl #2]
 1573              		.p2align 2
 1574              	.L105:
 1575 098c 9D090000 		.word	.L104+1
 1576 0990 A9090000 		.word	.L106+1
 1577 0994 A9090000 		.word	.L106+1
 1578 0998 B5090000 		.word	.L107+1
 1579              		.p2align 1
 1580              	.L104:
 616:build/OpenMote-CC2538_armgcc/openstack/03a-IPHC/iphc.c ****                     case 0:
 617:build/OpenMote-CC2538_armgcc/openstack/03a-IPHC/iphc.c ****                         extention_header_length += 2+3;
 1581              		.loc 1 617 0
 1582 099c 97F84530 		ldrb	r3, [r7, #69]
 1583 09a0 0533     		adds	r3, r3, #5
 1584 09a2 87F84530 		strb	r3, [r7, #69]
 618:build/OpenMote-CC2538_armgcc/openstack/03a-IPHC/iphc.c ****                         break;
 1585              		.loc 1 618 0
 1586 09a6 0BE0     		b	.L103
 1587              	.L106:
 619:build/OpenMote-CC2538_armgcc/openstack/03a-IPHC/iphc.c ****                     case 1:
 620:build/OpenMote-CC2538_armgcc/openstack/03a-IPHC/iphc.c ****                     case 2:
 621:build/OpenMote-CC2538_armgcc/openstack/03a-IPHC/iphc.c ****                         extention_header_length += 2+2;
 1588              		.loc 1 621 0
 1589 09a8 97F84530 		ldrb	r3, [r7, #69]
 1590 09ac 0433     		adds	r3, r3, #4
 1591 09ae 87F84530 		strb	r3, [r7, #69]
 622:build/OpenMote-CC2538_armgcc/openstack/03a-IPHC/iphc.c ****                         break;
 1592              		.loc 1 622 0
 1593 09b2 05E0     		b	.L103
 1594              	.L107:
 623:build/OpenMote-CC2538_armgcc/openstack/03a-IPHC/iphc.c ****                     case 3:
 624:build/OpenMote-CC2538_armgcc/openstack/03a-IPHC/iphc.c ****                         extention_header_length += 2+1;
 1595              		.loc 1 624 0
 1596 09b4 97F84530 		ldrb	r3, [r7, #69]
 1597 09b8 0333     		adds	r3, r3, #3
 1598 09ba 87F84530 		strb	r3, [r7, #69]
 625:build/OpenMote-CC2538_armgcc/openstack/03a-IPHC/iphc.c ****                         break;
 1599              		.loc 1 625 0
 1600 09be 00BF     		nop
 1601              	.L103:
 626:build/OpenMote-CC2538_armgcc/openstack/03a-IPHC/iphc.c ****                     }
 627:build/OpenMote-CC2538_armgcc/openstack/03a-IPHC/iphc.c ****                     temp_8b = *(uint8_t*)((msg->payload) + \
 1602              		.loc 1 627 0
 1603 09c0 FB68     		ldr	r3, [r7, #12]
 1604 09c2 5A68     		ldr	r2, [r3, #4]
 628:build/OpenMote-CC2538_armgcc/openstack/03a-IPHC/iphc.c ****                                *page_length + \
 1605              		.loc 1 628 0
 1606 09c4 3B68     		ldr	r3, [r7]
 1607 09c6 1B78     		ldrb	r3, [r3]	@ zero_extendqisi2
 1608 09c8 1946     		mov	r1, r3
 1609 09ca 97F84530 		ldrb	r3, [r7, #69]	@ zero_extendqisi2
 1610 09ce 0B44     		add	r3, r3, r1
 627:build/OpenMote-CC2538_armgcc/openstack/03a-IPHC/iphc.c ****                                *page_length + \
 1611              		.loc 1 627 0
 1612 09d0 1344     		add	r3, r3, r2
 1613 09d2 1B78     		ldrb	r3, [r3]
 1614 09d4 87F84730 		strb	r3, [r7, #71]
 1615 09d8 07E0     		b	.L88
 1616              	.L101:
 629:build/OpenMote-CC2538_armgcc/openstack/03a-IPHC/iphc.c ****                                extention_header_length);
 630:build/OpenMote-CC2538_armgcc/openstack/03a-IPHC/iphc.c ****                } else{
 631:build/OpenMote-CC2538_armgcc/openstack/03a-IPHC/iphc.c ****                    //log wrong inf
 632:build/OpenMote-CC2538_armgcc/openstack/03a-IPHC/iphc.c ****                    openserial_printError(
 1617              		.loc 1 632 0
 1618 09da 97F84330 		ldrb	r3, [r7, #67]	@ zero_extendqisi2
 1619 09de 9BB2     		uxth	r3, r3
 1620 09e0 1120     		movs	r0, #17
 1621 09e2 0C21     		movs	r1, #12
 1622 09e4 0E22     		movs	r2, #14
 1623 09e6 FFF7FEFF 		bl	openserial_printError
 1624              	.L88:
 565:build/OpenMote-CC2538_armgcc/openstack/03a-IPHC/iphc.c ****             lorh_type = *((uint8_t*)(msg->payload)+*page_length+extention_header_length+1);
 1625              		.loc 1 565 0
 1626 09ea 97F84730 		ldrb	r3, [r7, #71]	@ zero_extendqisi2
 1627 09ee 03F0E003 		and	r3, r3, #224
 1628 09f2 802B     		cmp	r3, #128
 1629 09f4 3FF40DAF 		beq	.L108
 1630              	.L87:
 633:build/OpenMote-CC2538_armgcc/openstack/03a-IPHC/iphc.c ****                         COMPONENT_IPHC,
 634:build/OpenMote-CC2538_armgcc/openstack/03a-IPHC/iphc.c ****                         ERR_6LOWPAN_UNSUPPORTED,
 635:build/OpenMote-CC2538_armgcc/openstack/03a-IPHC/iphc.c ****                         (errorparameter_t)14,
 636:build/OpenMote-CC2538_armgcc/openstack/03a-IPHC/iphc.c ****                         (errorparameter_t)(lorh_type)
 637:build/OpenMote-CC2538_armgcc/openstack/03a-IPHC/iphc.c ****                    );
 638:build/OpenMote-CC2538_armgcc/openstack/03a-IPHC/iphc.c ****                }
 639:build/OpenMote-CC2538_armgcc/openstack/03a-IPHC/iphc.c ****            }
 640:build/OpenMote-CC2538_armgcc/openstack/03a-IPHC/iphc.c ****        }
 641:build/OpenMote-CC2538_armgcc/openstack/03a-IPHC/iphc.c ****     }
 642:build/OpenMote-CC2538_armgcc/openstack/03a-IPHC/iphc.c ****     // ====================== 3. 6LoRH IPinIP ==================================
 643:build/OpenMote-CC2538_armgcc/openstack/03a-IPHC/iphc.c ****     // ip header is always at the beginning if not being elided
 644:build/OpenMote-CC2538_armgcc/openstack/03a-IPHC/iphc.c ****     if (page == 1){
 1631              		.loc 1 644 0
 1632 09f8 97F84630 		ldrb	r3, [r7, #70]	@ zero_extendqisi2
 1633 09fc 012B     		cmp	r3, #1
 1634 09fe 40F0E280 		bne	.L109
 645:build/OpenMote-CC2538_armgcc/openstack/03a-IPHC/iphc.c ****           temp_8b = *(uint8_t*)(msg->payload+ipv6_outer_header->header_length+*page_length+extentio
 1635              		.loc 1 645 0
 1636 0a02 FB68     		ldr	r3, [r7, #12]
 1637 0a04 5A68     		ldr	r2, [r3, #4]
 1638 0a06 BB68     		ldr	r3, [r7, #8]
 1639 0a08 93F83F30 		ldrb	r3, [r3, #63]	@ zero_extendqisi2
 1640 0a0c 1946     		mov	r1, r3
 1641 0a0e 3B68     		ldr	r3, [r7]
 1642 0a10 1B78     		ldrb	r3, [r3]	@ zero_extendqisi2
 1643 0a12 1944     		add	r1, r1, r3
 1644 0a14 97F84530 		ldrb	r3, [r7, #69]	@ zero_extendqisi2
 1645 0a18 0B44     		add	r3, r3, r1
 1646 0a1a 1344     		add	r3, r3, r2
 1647 0a1c 1B78     		ldrb	r3, [r3]
 1648 0a1e 87F84730 		strb	r3, [r7, #71]
 646:build/OpenMote-CC2538_armgcc/openstack/03a-IPHC/iphc.c ****           if ((temp_8b & FORMAT_6LORH_MASK) == ELECTIVE_6LoRH){
 1649              		.loc 1 646 0
 1650 0a22 97F84730 		ldrb	r3, [r7, #71]	@ zero_extendqisi2
 1651 0a26 03F0E003 		and	r3, r3, #224
 1652 0a2a A02B     		cmp	r3, #160
 1653 0a2c 40F0CB80 		bne	.L109
 647:build/OpenMote-CC2538_armgcc/openstack/03a-IPHC/iphc.c ****               // this is an elective 6LoRH
 648:build/OpenMote-CC2538_armgcc/openstack/03a-IPHC/iphc.c ****               ipinip_length = temp_8b & IPINIP_LEN_6LORH_MASK;
 1654              		.loc 1 648 0
 1655 0a30 97F84730 		ldrb	r3, [r7, #71]
 1656 0a34 03F01F03 		and	r3, r3, #31
 1657 0a38 87F84130 		strb	r3, [r7, #65]
 649:build/OpenMote-CC2538_armgcc/openstack/03a-IPHC/iphc.c ****               ipv6_outer_header->header_length += 1;
 1658              		.loc 1 649 0
 1659 0a3c BB68     		ldr	r3, [r7, #8]
 1660 0a3e 93F83F30 		ldrb	r3, [r3, #63]	@ zero_extendqisi2
 1661 0a42 0133     		adds	r3, r3, #1
 1662 0a44 DAB2     		uxtb	r2, r3
 1663 0a46 BB68     		ldr	r3, [r7, #8]
 1664 0a48 83F83F20 		strb	r2, [r3, #63]
 650:build/OpenMote-CC2538_armgcc/openstack/03a-IPHC/iphc.c ****               temp_8b = *(uint8_t*)(msg->payload+ipv6_outer_header->header_length+*page_length+exte
 1665              		.loc 1 650 0
 1666 0a4c FB68     		ldr	r3, [r7, #12]
 1667 0a4e 5A68     		ldr	r2, [r3, #4]
 1668 0a50 BB68     		ldr	r3, [r7, #8]
 1669 0a52 93F83F30 		ldrb	r3, [r3, #63]	@ zero_extendqisi2
 1670 0a56 1946     		mov	r1, r3
 1671 0a58 3B68     		ldr	r3, [r7]
 1672 0a5a 1B78     		ldrb	r3, [r3]	@ zero_extendqisi2
 1673 0a5c 1944     		add	r1, r1, r3
 1674 0a5e 97F84530 		ldrb	r3, [r7, #69]	@ zero_extendqisi2
 1675 0a62 0B44     		add	r3, r3, r1
 1676 0a64 1344     		add	r3, r3, r2
 1677 0a66 1B78     		ldrb	r3, [r3]
 1678 0a68 87F84730 		strb	r3, [r7, #71]
 651:build/OpenMote-CC2538_armgcc/openstack/03a-IPHC/iphc.c ****               if (temp_8b == IPINIP_TYPE_6LORH){
 1679              		.loc 1 651 0
 1680 0a6c 97F84730 		ldrb	r3, [r7, #71]	@ zero_extendqisi2
 1681 0a70 062B     		cmp	r3, #6
 1682 0a72 40F0A080 		bne	.L110
 652:build/OpenMote-CC2538_armgcc/openstack/03a-IPHC/iphc.c ****                   // this is IpinIP 6LoRH
 653:build/OpenMote-CC2538_armgcc/openstack/03a-IPHC/iphc.c ****                   ipv6_outer_header->header_length += 1;
 1683              		.loc 1 653 0
 1684 0a76 BB68     		ldr	r3, [r7, #8]
 1685 0a78 93F83F30 		ldrb	r3, [r3, #63]	@ zero_extendqisi2
 1686 0a7c 0133     		adds	r3, r3, #1
 1687 0a7e DAB2     		uxtb	r2, r3
 1688 0a80 BB68     		ldr	r3, [r7, #8]
 1689 0a82 83F83F20 		strb	r2, [r3, #63]
 654:build/OpenMote-CC2538_armgcc/openstack/03a-IPHC/iphc.c ****                   ipv6_outer_header->hop_limit = *(uint8_t*)(msg->payload+ipv6_outer_header->header
 1690              		.loc 1 654 0
 1691 0a86 FB68     		ldr	r3, [r7, #12]
 1692 0a88 5A68     		ldr	r2, [r3, #4]
 1693 0a8a BB68     		ldr	r3, [r7, #8]
 1694 0a8c 93F83F30 		ldrb	r3, [r3, #63]	@ zero_extendqisi2
 1695 0a90 1946     		mov	r1, r3
 1696 0a92 3B68     		ldr	r3, [r7]
 1697 0a94 1B78     		ldrb	r3, [r3]	@ zero_extendqisi2
 1698 0a96 1944     		add	r1, r1, r3
 1699 0a98 97F84530 		ldrb	r3, [r7, #69]	@ zero_extendqisi2
 1700 0a9c 0B44     		add	r3, r3, r1
 1701 0a9e 1344     		add	r3, r3, r2
 1702 0aa0 1A78     		ldrb	r2, [r3]	@ zero_extendqisi2
 1703 0aa2 BB68     		ldr	r3, [r7, #8]
 1704 0aa4 1A77     		strb	r2, [r3, #28]
 655:build/OpenMote-CC2538_armgcc/openstack/03a-IPHC/iphc.c ****                   ipv6_outer_header->header_length += 1;
 1705              		.loc 1 655 0
 1706 0aa6 BB68     		ldr	r3, [r7, #8]
 1707 0aa8 93F83F30 		ldrb	r3, [r3, #63]	@ zero_extendqisi2
 1708 0aac 0133     		adds	r3, r3, #1
 1709 0aae DAB2     		uxtb	r2, r3
 1710 0ab0 BB68     		ldr	r3, [r7, #8]
 1711 0ab2 83F83F20 		strb	r2, [r3, #63]
 656:build/OpenMote-CC2538_armgcc/openstack/03a-IPHC/iphc.c ****                   // destination address maybe is the first address in RH3 6LoRH OR dest adress in 
 657:build/OpenMote-CC2538_armgcc/openstack/03a-IPHC/iphc.c ****                   // update destination address if necessary after the processing
 658:build/OpenMote-CC2538_armgcc/openstack/03a-IPHC/iphc.c ****                   ipv6_outer_header->dest.type = ADDR_NONE;
 1712              		.loc 1 658 0
 1713 0ab6 BB68     		ldr	r3, [r7, #8]
 1714 0ab8 0022     		movs	r2, #0
 1715 0aba 83F82E20 		strb	r2, [r3, #46]
 659:build/OpenMote-CC2538_armgcc/openstack/03a-IPHC/iphc.c ****                   memset(&(ipv6_outer_header->dest.addr_128b[0]),0,16);
 1716              		.loc 1 659 0
 1717 0abe BB68     		ldr	r3, [r7, #8]
 1718 0ac0 2F33     		adds	r3, r3, #47
 1719 0ac2 1846     		mov	r0, r3
 1720 0ac4 0021     		movs	r1, #0
 1721 0ac6 1022     		movs	r2, #16
 1722 0ac8 FFF7FEFF 		bl	memset
 660:build/OpenMote-CC2538_armgcc/openstack/03a-IPHC/iphc.c ****                   if (ipinip_length == 1){
 1723              		.loc 1 660 0
 1724 0acc 97F84130 		ldrb	r3, [r7, #65]	@ zero_extendqisi2
 1725 0ad0 012B     		cmp	r3, #1
 1726 0ad2 14D1     		bne	.L111
 661:build/OpenMote-CC2538_armgcc/openstack/03a-IPHC/iphc.c ****                       // source address is root
 662:build/OpenMote-CC2538_armgcc/openstack/03a-IPHC/iphc.c ****                       memset(&(ipv6_outer_header->src),0,sizeof(open_addr_t));
 1727              		.loc 1 662 0
 1728 0ad4 BB68     		ldr	r3, [r7, #8]
 1729 0ad6 1D33     		adds	r3, r3, #29
 1730 0ad8 1846     		mov	r0, r3
 1731 0ada 0021     		movs	r1, #0
 1732 0adc 1122     		movs	r2, #17
 1733 0ade FFF7FEFF 		bl	memset
 663:build/OpenMote-CC2538_armgcc/openstack/03a-IPHC/iphc.c ****                       ipv6_outer_header->src.type = ADDR_128B;
 1734              		.loc 1 663 0
 1735 0ae2 BB68     		ldr	r3, [r7, #8]
 1736 0ae4 0322     		movs	r2, #3
 1737 0ae6 5A77     		strb	r2, [r3, #29]
 664:build/OpenMote-CC2538_armgcc/openstack/03a-IPHC/iphc.c ****                       ipv6_outer_header->src.addr_128b[0]  = 0xbb;
 1738              		.loc 1 664 0
 1739 0ae8 BB68     		ldr	r3, [r7, #8]
 1740 0aea BB22     		movs	r2, #187
 1741 0aec 9A77     		strb	r2, [r3, #30]
 665:build/OpenMote-CC2538_armgcc/openstack/03a-IPHC/iphc.c ****                       ipv6_outer_header->src.addr_128b[1]  = 0xbb;
 1742              		.loc 1 665 0
 1743 0aee BB68     		ldr	r3, [r7, #8]
 1744 0af0 BB22     		movs	r2, #187
 1745 0af2 DA77     		strb	r2, [r3, #31]
 666:build/OpenMote-CC2538_armgcc/openstack/03a-IPHC/iphc.c ****                       ipv6_outer_header->src.addr_128b[15] = 0x01;
 1746              		.loc 1 666 0
 1747 0af4 BB68     		ldr	r3, [r7, #8]
 1748 0af6 0122     		movs	r2, #1
 1749 0af8 83F82D20 		strb	r2, [r3, #45]
 1750 0afc 63E0     		b	.L109
 1751              	.L111:
 667:build/OpenMote-CC2538_armgcc/openstack/03a-IPHC/iphc.c ****                       // destination address is the first address in RH3 6LoRH OR dest adress in IP
 668:build/OpenMote-CC2538_armgcc/openstack/03a-IPHC/iphc.c ****                   } else{
 669:build/OpenMote-CC2538_armgcc/openstack/03a-IPHC/iphc.c ****                       switch(ipinip_length-1){
 1752              		.loc 1 669 0
 1753 0afe 97F84130 		ldrb	r3, [r7, #65]	@ zero_extendqisi2
 1754 0b02 013B     		subs	r3, r3, #1
 1755 0b04 082B     		cmp	r3, #8
 1756 0b06 1FD0     		beq	.L114
 1757 0b08 102B     		cmp	r3, #16
 1758 0b0a 48D1     		bne	.L117
 670:build/OpenMote-CC2538_armgcc/openstack/03a-IPHC/iphc.c ****                       case 16:
 671:build/OpenMote-CC2538_armgcc/openstack/03a-IPHC/iphc.c ****                            // this is source address 
 672:build/OpenMote-CC2538_armgcc/openstack/03a-IPHC/iphc.c ****                            packetfunctions_readAddress(((uint8_t*)(msg->payload+ipv6_outer_header->
 1759              		.loc 1 672 0
 1760 0b0c FB68     		ldr	r3, [r7, #12]
 1761 0b0e 5A68     		ldr	r2, [r3, #4]
 1762 0b10 BB68     		ldr	r3, [r7, #8]
 1763 0b12 93F83F30 		ldrb	r3, [r3, #63]	@ zero_extendqisi2
 1764 0b16 1946     		mov	r1, r3
 1765 0b18 3B68     		ldr	r3, [r7]
 1766 0b1a 1B78     		ldrb	r3, [r3]	@ zero_extendqisi2
 1767 0b1c 1944     		add	r1, r1, r3
 1768 0b1e 97F84530 		ldrb	r3, [r7, #69]	@ zero_extendqisi2
 1769 0b22 0B44     		add	r3, r3, r1
 1770 0b24 1A44     		add	r2, r2, r3
 1771 0b26 BB68     		ldr	r3, [r7, #8]
 1772 0b28 1D33     		adds	r3, r3, #29
 1773 0b2a 1046     		mov	r0, r2
 1774 0b2c 0321     		movs	r1, #3
 1775 0b2e 1A46     		mov	r2, r3
 1776 0b30 0023     		movs	r3, #0
 1777 0b32 FFF7FEFF 		bl	packetfunctions_readAddress
 673:build/OpenMote-CC2538_armgcc/openstack/03a-IPHC/iphc.c ****                            ipv6_outer_header->header_length += 16*sizeof(uint8_t);
 1778              		.loc 1 673 0
 1779 0b36 BB68     		ldr	r3, [r7, #8]
 1780 0b38 93F83F30 		ldrb	r3, [r3, #63]	@ zero_extendqisi2
 1781 0b3c 1033     		adds	r3, r3, #16
 1782 0b3e DAB2     		uxtb	r2, r3
 1783 0b40 BB68     		ldr	r3, [r7, #8]
 1784 0b42 83F83F20 		strb	r2, [r3, #63]
 674:build/OpenMote-CC2538_armgcc/openstack/03a-IPHC/iphc.c ****                            break;
 1785              		.loc 1 674 0
 1786 0b46 35E0     		b	.L112
 1787              	.L114:
 675:build/OpenMote-CC2538_armgcc/openstack/03a-IPHC/iphc.c ****                       case 8:
 676:build/OpenMote-CC2538_armgcc/openstack/03a-IPHC/iphc.c ****                            // this is source address 
 677:build/OpenMote-CC2538_armgcc/openstack/03a-IPHC/iphc.c ****                            packetfunctions_readAddress(((uint8_t*)(msg->payload+ipv6_outer_header->
 1788              		.loc 1 677 0
 1789 0b48 FB68     		ldr	r3, [r7, #12]
 1790 0b4a 5A68     		ldr	r2, [r3, #4]
 1791 0b4c BB68     		ldr	r3, [r7, #8]
 1792 0b4e 93F83F30 		ldrb	r3, [r3, #63]	@ zero_extendqisi2
 1793 0b52 1946     		mov	r1, r3
 1794 0b54 3B68     		ldr	r3, [r7]
 1795 0b56 1B78     		ldrb	r3, [r3]	@ zero_extendqisi2
 1796 0b58 1944     		add	r1, r1, r3
 1797 0b5a 97F84530 		ldrb	r3, [r7, #69]	@ zero_extendqisi2
 1798 0b5e 0B44     		add	r3, r3, r1
 1799 0b60 1A44     		add	r2, r2, r3
 1800 0b62 07F11C03 		add	r3, r7, #28
 1801 0b66 1046     		mov	r0, r2
 1802 0b68 0221     		movs	r1, #2
 1803 0b6a 1A46     		mov	r2, r3
 1804 0b6c 0023     		movs	r3, #0
 1805 0b6e FFF7FEFF 		bl	packetfunctions_readAddress
 678:build/OpenMote-CC2538_armgcc/openstack/03a-IPHC/iphc.c ****                            ipv6_outer_header->header_length += 8*sizeof(uint8_t);
 1806              		.loc 1 678 0
 1807 0b72 BB68     		ldr	r3, [r7, #8]
 1808 0b74 93F83F30 		ldrb	r3, [r3, #63]	@ zero_extendqisi2
 1809 0b78 0833     		adds	r3, r3, #8
 1810 0b7a DAB2     		uxtb	r2, r3
 1811 0b7c BB68     		ldr	r3, [r7, #8]
 1812 0b7e 83F83F20 		strb	r2, [r3, #63]
 679:build/OpenMote-CC2538_armgcc/openstack/03a-IPHC/iphc.c ****                            packetfunctions_mac64bToIp128b(idmanager_getMyID(ADDR_PREFIX),&temp_addr
 1813              		.loc 1 679 0
 1814 0b82 0520     		movs	r0, #5
 1815 0b84 FFF7FEFF 		bl	idmanager_getMyID
 1816 0b88 0146     		mov	r1, r0
 1817 0b8a BB68     		ldr	r3, [r7, #8]
 1818 0b8c 1D33     		adds	r3, r3, #29
 1819 0b8e 07F11C02 		add	r2, r7, #28
 1820 0b92 0846     		mov	r0, r1
 1821 0b94 1146     		mov	r1, r2
 1822 0b96 1A46     		mov	r2, r3
 1823 0b98 FFF7FEFF 		bl	packetfunctions_mac64bToIp128b
 680:build/OpenMote-CC2538_armgcc/openstack/03a-IPHC/iphc.c ****                            break;
 1824              		.loc 1 680 0
 1825 0b9c 0AE0     		b	.L112
 1826              	.L117:
 681:build/OpenMote-CC2538_armgcc/openstack/03a-IPHC/iphc.c ****                       default:
 682:build/OpenMote-CC2538_armgcc/openstack/03a-IPHC/iphc.c ****                            // do not support other length yet and destination address will be in RH
 683:build/OpenMote-CC2538_armgcc/openstack/03a-IPHC/iphc.c ****                            openserial_printError(
 1827              		.loc 1 683 0
 1828 0b9e 97F84130 		ldrb	r3, [r7, #65]	@ zero_extendqisi2
 1829 0ba2 9BB2     		uxth	r3, r3
 1830 0ba4 013B     		subs	r3, r3, #1
 1831 0ba6 9BB2     		uxth	r3, r3
 1832 0ba8 1120     		movs	r0, #17
 1833 0baa 0C21     		movs	r1, #12
 1834 0bac 0C22     		movs	r2, #12
 1835 0bae FFF7FEFF 		bl	openserial_printError
 1836 0bb2 08E0     		b	.L109
 1837              	.L112:
 1838 0bb4 07E0     		b	.L109
 1839              	.L110:
 684:build/OpenMote-CC2538_armgcc/openstack/03a-IPHC/iphc.c ****                               COMPONENT_IPHC,
 685:build/OpenMote-CC2538_armgcc/openstack/03a-IPHC/iphc.c ****                               ERR_6LOWPAN_UNSUPPORTED,
 686:build/OpenMote-CC2538_armgcc/openstack/03a-IPHC/iphc.c ****                               (errorparameter_t)12,
 687:build/OpenMote-CC2538_armgcc/openstack/03a-IPHC/iphc.c ****                               (errorparameter_t)(ipinip_length-1)
 688:build/OpenMote-CC2538_armgcc/openstack/03a-IPHC/iphc.c ****                            );
 689:build/OpenMote-CC2538_armgcc/openstack/03a-IPHC/iphc.c ****                       }
 690:build/OpenMote-CC2538_armgcc/openstack/03a-IPHC/iphc.c ****                   }
 691:build/OpenMote-CC2538_armgcc/openstack/03a-IPHC/iphc.c ****               } else {
 692:build/OpenMote-CC2538_armgcc/openstack/03a-IPHC/iphc.c ****                   // don't defined yet
 693:build/OpenMote-CC2538_armgcc/openstack/03a-IPHC/iphc.c ****                   openserial_printError(
 1840              		.loc 1 693 0
 1841 0bb6 97F84430 		ldrb	r3, [r7, #68]	@ zero_extendqisi2
 1842 0bba 9BB2     		uxth	r3, r3
 1843 0bbc 1120     		movs	r0, #17
 1844 0bbe 0C21     		movs	r1, #12
 1845 0bc0 0D22     		movs	r2, #13
 1846 0bc2 FFF7FEFF 		bl	openserial_printError
 1847              	.L109:
 694:build/OpenMote-CC2538_armgcc/openstack/03a-IPHC/iphc.c ****                       COMPONENT_IPHC,
 695:build/OpenMote-CC2538_armgcc/openstack/03a-IPHC/iphc.c ****                       ERR_6LOWPAN_UNSUPPORTED,
 696:build/OpenMote-CC2538_armgcc/openstack/03a-IPHC/iphc.c ****                       (errorparameter_t)13,
 697:build/OpenMote-CC2538_armgcc/openstack/03a-IPHC/iphc.c ****                       (errorparameter_t)(rh3_index)
 698:build/OpenMote-CC2538_armgcc/openstack/03a-IPHC/iphc.c ****                   );
 699:build/OpenMote-CC2538_armgcc/openstack/03a-IPHC/iphc.c ****               }
 700:build/OpenMote-CC2538_armgcc/openstack/03a-IPHC/iphc.c ****           } else {
 701:build/OpenMote-CC2538_armgcc/openstack/03a-IPHC/iphc.c ****               // ip in ip is elided: the followig is a critical 6lorh
 702:build/OpenMote-CC2538_armgcc/openstack/03a-IPHC/iphc.c ****               // finish the ip header compression
 703:build/OpenMote-CC2538_armgcc/openstack/03a-IPHC/iphc.c ****           }
 704:build/OpenMote-CC2538_armgcc/openstack/03a-IPHC/iphc.c ****     }
 705:build/OpenMote-CC2538_armgcc/openstack/03a-IPHC/iphc.c ****     //======================= 4. IPHC inner header =============================
 706:build/OpenMote-CC2538_armgcc/openstack/03a-IPHC/iphc.c ****     iphc_retrieveIphcHeader(
 707:build/OpenMote-CC2538_armgcc/openstack/03a-IPHC/iphc.c ****         &temp_addr_16b, 
 708:build/OpenMote-CC2538_armgcc/openstack/03a-IPHC/iphc.c ****         &temp_addr_64b,
 709:build/OpenMote-CC2538_armgcc/openstack/03a-IPHC/iphc.c ****         &dispatch,
 710:build/OpenMote-CC2538_armgcc/openstack/03a-IPHC/iphc.c ****         &tf,
 711:build/OpenMote-CC2538_armgcc/openstack/03a-IPHC/iphc.c ****         &nh,
 712:build/OpenMote-CC2538_armgcc/openstack/03a-IPHC/iphc.c ****         &hlim,
 713:build/OpenMote-CC2538_armgcc/openstack/03a-IPHC/iphc.c ****         &sam,
 714:build/OpenMote-CC2538_armgcc/openstack/03a-IPHC/iphc.c ****         &m,
 715:build/OpenMote-CC2538_armgcc/openstack/03a-IPHC/iphc.c ****         &dam,
 716:build/OpenMote-CC2538_armgcc/openstack/03a-IPHC/iphc.c ****         msg,
 717:build/OpenMote-CC2538_armgcc/openstack/03a-IPHC/iphc.c ****         ipv6_inner_header,
 718:build/OpenMote-CC2538_armgcc/openstack/03a-IPHC/iphc.c ****         extention_header_length + ipv6_outer_header->header_length + *page_length
 1848              		.loc 1 718 0 discriminator 2
 1849 0bc6 BB68     		ldr	r3, [r7, #8]
 1850 0bc8 93F83F20 		ldrb	r2, [r3, #63]	@ zero_extendqisi2
 706:build/OpenMote-CC2538_armgcc/openstack/03a-IPHC/iphc.c ****         &temp_addr_16b, 
 1851              		.loc 1 706 0 discriminator 2
 1852 0bcc 97F84530 		ldrb	r3, [r7, #69]
 1853 0bd0 1344     		add	r3, r3, r2
 1854 0bd2 DAB2     		uxtb	r2, r3
 1855              		.loc 1 718 0 discriminator 2
 1856 0bd4 3B68     		ldr	r3, [r7]
 1857 0bd6 1B78     		ldrb	r3, [r3]	@ zero_extendqisi2
 706:build/OpenMote-CC2538_armgcc/openstack/03a-IPHC/iphc.c ****         &temp_addr_16b, 
 1858              		.loc 1 706 0 discriminator 2
 1859 0bd8 1344     		add	r3, r3, r2
 1860 0bda DBB2     		uxtb	r3, r3
 1861 0bdc 07F13000 		add	r0, r7, #48
 1862 0be0 07F11C01 		add	r1, r7, #28
 1863 0be4 07F11B05 		add	r5, r7, #27
 1864 0be8 07F11A04 		add	r4, r7, #26
 1865 0bec 07F11902 		add	r2, r7, #25
 1866 0bf0 0092     		str	r2, [sp]
 1867 0bf2 07F11802 		add	r2, r7, #24
 1868 0bf6 0192     		str	r2, [sp, #4]
 1869 0bf8 07F11702 		add	r2, r7, #23
 1870 0bfc 0292     		str	r2, [sp, #8]
 1871 0bfe 07F11602 		add	r2, r7, #22
 1872 0c02 0392     		str	r2, [sp, #12]
 1873 0c04 07F11502 		add	r2, r7, #21
 1874 0c08 0492     		str	r2, [sp, #16]
 1875 0c0a FA68     		ldr	r2, [r7, #12]
 1876 0c0c 0592     		str	r2, [sp, #20]
 1877 0c0e 7A68     		ldr	r2, [r7, #4]
 1878 0c10 0692     		str	r2, [sp, #24]
 1879 0c12 0793     		str	r3, [sp, #28]
 1880 0c14 2A46     		mov	r2, r5
 1881 0c16 2346     		mov	r3, r4
 1882 0c18 FFF7FEFF 		bl	iphc_retrieveIphcHeader
 1883              	.L84:
 719:build/OpenMote-CC2538_armgcc/openstack/03a-IPHC/iphc.c ****     );
 720:build/OpenMote-CC2538_armgcc/openstack/03a-IPHC/iphc.c **** }
 1884              		.loc 1 720 0
 1885 0c1c 4837     		adds	r7, r7, #72
 1886              		.cfi_def_cfa_offset 16
 1887 0c1e BD46     		mov	sp, r7
 1888              		.cfi_def_cfa_register 13
 1889              		@ sp needed
 1890 0c20 B0BD     		pop	{r4, r5, r7, pc}
 1891              		.cfi_endproc
 1892              	.LFE6:
 1894 0c22 00BF     		.align	2
 1895              		.global	iphc_retrieveIphcHeader
 1896              		.thumb
 1897              		.thumb_func
 1899              	iphc_retrieveIphcHeader:
 1900              	.LFB7:
 721:build/OpenMote-CC2538_armgcc/openstack/03a-IPHC/iphc.c **** 
 722:build/OpenMote-CC2538_armgcc/openstack/03a-IPHC/iphc.c **** uint8_t iphc_retrieveIphcHeader(open_addr_t* temp_addr_16b,
 723:build/OpenMote-CC2538_armgcc/openstack/03a-IPHC/iphc.c ****     open_addr_t*         temp_addr_64b,
 724:build/OpenMote-CC2538_armgcc/openstack/03a-IPHC/iphc.c ****     uint8_t*             dispatch,
 725:build/OpenMote-CC2538_armgcc/openstack/03a-IPHC/iphc.c ****     uint8_t*             tf,
 726:build/OpenMote-CC2538_armgcc/openstack/03a-IPHC/iphc.c ****     bool*                nh,
 727:build/OpenMote-CC2538_armgcc/openstack/03a-IPHC/iphc.c ****     uint8_t*             hlim,
 728:build/OpenMote-CC2538_armgcc/openstack/03a-IPHC/iphc.c ****     uint8_t*             sam,
 729:build/OpenMote-CC2538_armgcc/openstack/03a-IPHC/iphc.c ****     uint8_t*             m,
 730:build/OpenMote-CC2538_armgcc/openstack/03a-IPHC/iphc.c ****     uint8_t*             dam,
 731:build/OpenMote-CC2538_armgcc/openstack/03a-IPHC/iphc.c ****     OpenQueueEntry_t*    msg,
 732:build/OpenMote-CC2538_armgcc/openstack/03a-IPHC/iphc.c ****     ipv6_header_iht*     ipv6_header,
 733:build/OpenMote-CC2538_armgcc/openstack/03a-IPHC/iphc.c ****     uint8_t              previousLen){
 1901              		.loc 1 733 0
 1902              		.cfi_startproc
 1903              		@ args = 32, pretend = 0, frame = 24
 1904              		@ frame_needed = 1, uses_anonymous_args = 0
 1905 0c24 B0B5     		push	{r4, r5, r7, lr}
 1906              		.cfi_def_cfa_offset 16
 1907              		.cfi_offset 4, -16
 1908              		.cfi_offset 5, -12
 1909              		.cfi_offset 7, -8
 1910              		.cfi_offset 14, -4
 1911 0c26 86B0     		sub	sp, sp, #24
 1912              		.cfi_def_cfa_offset 40
 1913 0c28 00AF     		add	r7, sp, #0
 1914              		.cfi_def_cfa_register 7
 1915 0c2a F860     		str	r0, [r7, #12]
 1916 0c2c B960     		str	r1, [r7, #8]
 1917 0c2e 7A60     		str	r2, [r7, #4]
 1918 0c30 3B60     		str	r3, [r7]
 734:build/OpenMote-CC2538_armgcc/openstack/03a-IPHC/iphc.c ****        
 735:build/OpenMote-CC2538_armgcc/openstack/03a-IPHC/iphc.c ****     uint8_t page;
 736:build/OpenMote-CC2538_armgcc/openstack/03a-IPHC/iphc.c ****     uint8_t temp_8b;
 737:build/OpenMote-CC2538_armgcc/openstack/03a-IPHC/iphc.c ****     uint8_t ipinip_length;
 738:build/OpenMote-CC2538_armgcc/openstack/03a-IPHC/iphc.c ****     
 739:build/OpenMote-CC2538_armgcc/openstack/03a-IPHC/iphc.c ****     temp_8b = *((uint8_t*)(msg->payload)+ipv6_header->header_length+previousLen);
 1919              		.loc 1 739 0
 1920 0c32 FB6B     		ldr	r3, [r7, #60]
 1921 0c34 5A68     		ldr	r2, [r3, #4]
 1922 0c36 3B6C     		ldr	r3, [r7, #64]
 1923 0c38 93F83F30 		ldrb	r3, [r3, #63]	@ zero_extendqisi2
 1924 0c3c 1946     		mov	r1, r3
 1925 0c3e 97F84430 		ldrb	r3, [r7, #68]	@ zero_extendqisi2
 1926 0c42 0B44     		add	r3, r3, r1
 1927 0c44 1344     		add	r3, r3, r2
 1928 0c46 1B78     		ldrb	r3, [r3]
 1929 0c48 BB75     		strb	r3, [r7, #22]
 740:build/OpenMote-CC2538_armgcc/openstack/03a-IPHC/iphc.c ****     
 741:build/OpenMote-CC2538_armgcc/openstack/03a-IPHC/iphc.c ****     if ((temp_8b&PAGE_DISPATCH_TAG) == PAGE_DISPATCH_TAG){
 1930              		.loc 1 741 0
 1931 0c4a BB7D     		ldrb	r3, [r7, #22]	@ zero_extendqisi2
 1932 0c4c 03F0F003 		and	r3, r3, #240
 1933 0c50 F02B     		cmp	r3, #240
 1934 0c52 0CD1     		bne	.L119
 742:build/OpenMote-CC2538_armgcc/openstack/03a-IPHC/iphc.c ****         page = temp_8b&PAGE_DISPATCH_NUM; 
 1935              		.loc 1 742 0
 1936 0c54 BB7D     		ldrb	r3, [r7, #22]
 1937 0c56 03F00F03 		and	r3, r3, #15
 1938 0c5a FB75     		strb	r3, [r7, #23]
 743:build/OpenMote-CC2538_armgcc/openstack/03a-IPHC/iphc.c ****         ipv6_header->header_length += sizeof(uint8_t);
 1939              		.loc 1 743 0
 1940 0c5c 3B6C     		ldr	r3, [r7, #64]
 1941 0c5e 93F83F30 		ldrb	r3, [r3, #63]	@ zero_extendqisi2
 1942 0c62 0133     		adds	r3, r3, #1
 1943 0c64 DAB2     		uxtb	r2, r3
 1944 0c66 3B6C     		ldr	r3, [r7, #64]
 1945 0c68 83F83F20 		strb	r2, [r3, #63]
 1946 0c6c 01E0     		b	.L120
 1947              	.L119:
 744:build/OpenMote-CC2538_armgcc/openstack/03a-IPHC/iphc.c ****     } else {
 745:build/OpenMote-CC2538_armgcc/openstack/03a-IPHC/iphc.c ****         page = 0;
 1948              		.loc 1 745 0
 1949 0c6e 0023     		movs	r3, #0
 1950 0c70 FB75     		strb	r3, [r7, #23]
 1951              	.L120:
 746:build/OpenMote-CC2538_armgcc/openstack/03a-IPHC/iphc.c ****     }
 747:build/OpenMote-CC2538_armgcc/openstack/03a-IPHC/iphc.c ****     
 748:build/OpenMote-CC2538_armgcc/openstack/03a-IPHC/iphc.c ****     if (
 1952              		.loc 1 748 0
 1953 0c72 FB7D     		ldrb	r3, [r7, #23]	@ zero_extendqisi2
 1954 0c74 002B     		cmp	r3, #0
 1955 0c76 13D0     		beq	.L121
 749:build/OpenMote-CC2538_armgcc/openstack/03a-IPHC/iphc.c ****         page==0 ||
 1956              		.loc 1 749 0
 1957 0c78 FB7D     		ldrb	r3, [r7, #23]	@ zero_extendqisi2
 1958 0c7a 012B     		cmp	r3, #1
 1959 0c7c 40F0A982 		bne	.L122
 750:build/OpenMote-CC2538_armgcc/openstack/03a-IPHC/iphc.c ****         (page==1 && (*((uint8_t*)(msg->payload)+ipv6_header->header_length+previousLen) & 0xC0) != 
 1960              		.loc 1 750 0
 1961 0c80 FB6B     		ldr	r3, [r7, #60]
 1962 0c82 5A68     		ldr	r2, [r3, #4]
 1963 0c84 3B6C     		ldr	r3, [r7, #64]
 1964 0c86 93F83F30 		ldrb	r3, [r3, #63]	@ zero_extendqisi2
 1965 0c8a 1946     		mov	r1, r3
 1966 0c8c 97F84430 		ldrb	r3, [r7, #68]	@ zero_extendqisi2
 1967 0c90 0B44     		add	r3, r3, r1
 1968 0c92 1344     		add	r3, r3, r2
 1969 0c94 1B78     		ldrb	r3, [r3]	@ zero_extendqisi2
 1970 0c96 03F0C003 		and	r3, r3, #192
 1971 0c9a 802B     		cmp	r3, #128
 1972 0c9c 00F09982 		beq	.L122
 1973              	.L121:
 751:build/OpenMote-CC2538_armgcc/openstack/03a-IPHC/iphc.c ****     ){
 752:build/OpenMote-CC2538_armgcc/openstack/03a-IPHC/iphc.c ****         // header
 753:build/OpenMote-CC2538_armgcc/openstack/03a-IPHC/iphc.c ****         temp_8b    = *((uint8_t*)(msg->payload)+ipv6_header->header_length+previousLen);
 1974              		.loc 1 753 0
 1975 0ca0 FB6B     		ldr	r3, [r7, #60]
 1976 0ca2 5A68     		ldr	r2, [r3, #4]
 1977 0ca4 3B6C     		ldr	r3, [r7, #64]
 1978 0ca6 93F83F30 		ldrb	r3, [r3, #63]	@ zero_extendqisi2
 1979 0caa 1946     		mov	r1, r3
 1980 0cac 97F84430 		ldrb	r3, [r7, #68]	@ zero_extendqisi2
 1981 0cb0 0B44     		add	r3, r3, r1
 1982 0cb2 1344     		add	r3, r3, r2
 1983 0cb4 1B78     		ldrb	r3, [r3]
 1984 0cb6 BB75     		strb	r3, [r7, #22]
 754:build/OpenMote-CC2538_armgcc/openstack/03a-IPHC/iphc.c ****         *dispatch  = (temp_8b >> IPHC_DISPATCH)  & 0x07;   // 3b
 1985              		.loc 1 754 0
 1986 0cb8 BB7D     		ldrb	r3, [r7, #22]	@ zero_extendqisi2
 1987 0cba 5B09     		lsrs	r3, r3, #5
 1988 0cbc DAB2     		uxtb	r2, r3
 1989 0cbe 7B68     		ldr	r3, [r7, #4]
 1990 0cc0 1A70     		strb	r2, [r3]
 755:build/OpenMote-CC2538_armgcc/openstack/03a-IPHC/iphc.c ****         *tf        = (temp_8b >> IPHC_TF)        & 0x03;   // 2b
 1991              		.loc 1 755 0
 1992 0cc2 BB7D     		ldrb	r3, [r7, #22]	@ zero_extendqisi2
 1993 0cc4 DB08     		lsrs	r3, r3, #3
 1994 0cc6 DBB2     		uxtb	r3, r3
 1995 0cc8 03F00303 		and	r3, r3, #3
 1996 0ccc DAB2     		uxtb	r2, r3
 1997 0cce 3B68     		ldr	r3, [r7]
 1998 0cd0 1A70     		strb	r2, [r3]
 756:build/OpenMote-CC2538_armgcc/openstack/03a-IPHC/iphc.c ****         *nh        = (temp_8b >> IPHC_NH)        & 0x01;   // 1b
 1999              		.loc 1 756 0
 2000 0cd2 BB7D     		ldrb	r3, [r7, #22]	@ zero_extendqisi2
 2001 0cd4 9B08     		lsrs	r3, r3, #2
 2002 0cd6 DBB2     		uxtb	r3, r3
 2003 0cd8 03F00103 		and	r3, r3, #1
 2004 0cdc 002B     		cmp	r3, #0
 2005 0cde 14BF     		ite	ne
 2006 0ce0 0123     		movne	r3, #1
 2007 0ce2 0023     		moveq	r3, #0
 2008 0ce4 DAB2     		uxtb	r2, r3
 2009 0ce6 BB6A     		ldr	r3, [r7, #40]
 2010 0ce8 1A70     		strb	r2, [r3]
 757:build/OpenMote-CC2538_armgcc/openstack/03a-IPHC/iphc.c ****         *hlim      = (temp_8b >> IPHC_HLIM)      & 0x03;   // 2b
 2011              		.loc 1 757 0
 2012 0cea BB7D     		ldrb	r3, [r7, #22]
 2013 0cec 03F00303 		and	r3, r3, #3
 2014 0cf0 DAB2     		uxtb	r2, r3
 2015 0cf2 FB6A     		ldr	r3, [r7, #44]
 2016 0cf4 1A70     		strb	r2, [r3]
 758:build/OpenMote-CC2538_armgcc/openstack/03a-IPHC/iphc.c ****         ipv6_header->header_length += sizeof(uint8_t);
 2017              		.loc 1 758 0
 2018 0cf6 3B6C     		ldr	r3, [r7, #64]
 2019 0cf8 93F83F30 		ldrb	r3, [r3, #63]	@ zero_extendqisi2
 2020 0cfc 0133     		adds	r3, r3, #1
 2021 0cfe DAB2     		uxtb	r2, r3
 2022 0d00 3B6C     		ldr	r3, [r7, #64]
 2023 0d02 83F83F20 		strb	r2, [r3, #63]
 759:build/OpenMote-CC2538_armgcc/openstack/03a-IPHC/iphc.c ****         temp_8b    = *((uint8_t*)(msg->payload)+ipv6_header->header_length+previousLen);
 2024              		.loc 1 759 0
 2025 0d06 FB6B     		ldr	r3, [r7, #60]
 2026 0d08 5A68     		ldr	r2, [r3, #4]
 2027 0d0a 3B6C     		ldr	r3, [r7, #64]
 2028 0d0c 93F83F30 		ldrb	r3, [r3, #63]	@ zero_extendqisi2
 2029 0d10 1946     		mov	r1, r3
 2030 0d12 97F84430 		ldrb	r3, [r7, #68]	@ zero_extendqisi2
 2031 0d16 0B44     		add	r3, r3, r1
 2032 0d18 1344     		add	r3, r3, r2
 2033 0d1a 1B78     		ldrb	r3, [r3]
 2034 0d1c BB75     		strb	r3, [r7, #22]
 760:build/OpenMote-CC2538_armgcc/openstack/03a-IPHC/iphc.c ****        // cid unused
 761:build/OpenMote-CC2538_armgcc/openstack/03a-IPHC/iphc.c ****        // sac unused
 762:build/OpenMote-CC2538_armgcc/openstack/03a-IPHC/iphc.c ****        *sam       = (temp_8b >> IPHC_SAM)       & 0x03;   // 2b
 2035              		.loc 1 762 0
 2036 0d1e BB7D     		ldrb	r3, [r7, #22]	@ zero_extendqisi2
 2037 0d20 1B09     		lsrs	r3, r3, #4
 2038 0d22 DBB2     		uxtb	r3, r3
 2039 0d24 03F00303 		and	r3, r3, #3
 2040 0d28 DAB2     		uxtb	r2, r3
 2041 0d2a 3B6B     		ldr	r3, [r7, #48]
 2042 0d2c 1A70     		strb	r2, [r3]
 763:build/OpenMote-CC2538_armgcc/openstack/03a-IPHC/iphc.c ****        // m unused
 764:build/OpenMote-CC2538_armgcc/openstack/03a-IPHC/iphc.c ****        *m         = (temp_8b >> IPHC_M)         & 0x01;   // 1b
 2043              		.loc 1 764 0
 2044 0d2e BB7D     		ldrb	r3, [r7, #22]	@ zero_extendqisi2
 2045 0d30 DB08     		lsrs	r3, r3, #3
 2046 0d32 DBB2     		uxtb	r3, r3
 2047 0d34 03F00103 		and	r3, r3, #1
 2048 0d38 DAB2     		uxtb	r2, r3
 2049 0d3a 7B6B     		ldr	r3, [r7, #52]
 2050 0d3c 1A70     		strb	r2, [r3]
 765:build/OpenMote-CC2538_armgcc/openstack/03a-IPHC/iphc.c ****        // dac unused
 766:build/OpenMote-CC2538_armgcc/openstack/03a-IPHC/iphc.c ****        *dam       = (temp_8b >> IPHC_DAM)       & 0x03;   // 2b
 2051              		.loc 1 766 0
 2052 0d3e BB7D     		ldrb	r3, [r7, #22]
 2053 0d40 03F00303 		and	r3, r3, #3
 2054 0d44 DAB2     		uxtb	r2, r3
 2055 0d46 BB6B     		ldr	r3, [r7, #56]
 2056 0d48 1A70     		strb	r2, [r3]
 767:build/OpenMote-CC2538_armgcc/openstack/03a-IPHC/iphc.c ****        ipv6_header->header_length += sizeof(uint8_t);
 2057              		.loc 1 767 0
 2058 0d4a 3B6C     		ldr	r3, [r7, #64]
 2059 0d4c 93F83F30 		ldrb	r3, [r3, #63]	@ zero_extendqisi2
 2060 0d50 0133     		adds	r3, r3, #1
 2061 0d52 DAB2     		uxtb	r2, r3
 2062 0d54 3B6C     		ldr	r3, [r7, #64]
 2063 0d56 83F83F20 		strb	r2, [r3, #63]
 768:build/OpenMote-CC2538_armgcc/openstack/03a-IPHC/iphc.c ****        
 769:build/OpenMote-CC2538_armgcc/openstack/03a-IPHC/iphc.c ****        // dispatch
 770:build/OpenMote-CC2538_armgcc/openstack/03a-IPHC/iphc.c ****        switch (*dispatch) {
 2064              		.loc 1 770 0
 2065 0d5a 7B68     		ldr	r3, [r7, #4]
 2066 0d5c 1B78     		ldrb	r3, [r3]	@ zero_extendqisi2
 2067 0d5e 032B     		cmp	r3, #3
 2068 0d60 08D0     		beq	.L173
 771:build/OpenMote-CC2538_armgcc/openstack/03a-IPHC/iphc.c ****           case IPHC_DISPATCH_IPHC:
 772:build/OpenMote-CC2538_armgcc/openstack/03a-IPHC/iphc.c ****              break;
 773:build/OpenMote-CC2538_armgcc/openstack/03a-IPHC/iphc.c ****           default:
 774:build/OpenMote-CC2538_armgcc/openstack/03a-IPHC/iphc.c ****              openserial_printError(
 775:build/OpenMote-CC2538_armgcc/openstack/03a-IPHC/iphc.c ****                 COMPONENT_IPHC,
 776:build/OpenMote-CC2538_armgcc/openstack/03a-IPHC/iphc.c ****                 ERR_6LOWPAN_UNSUPPORTED,
 777:build/OpenMote-CC2538_armgcc/openstack/03a-IPHC/iphc.c ****                 (errorparameter_t)5,
 778:build/OpenMote-CC2538_armgcc/openstack/03a-IPHC/iphc.c ****                 (errorparameter_t)(*dispatch)
 2069              		.loc 1 778 0
 2070 0d62 7B68     		ldr	r3, [r7, #4]
 2071 0d64 1B78     		ldrb	r3, [r3]	@ zero_extendqisi2
 774:build/OpenMote-CC2538_armgcc/openstack/03a-IPHC/iphc.c ****                 COMPONENT_IPHC,
 2072              		.loc 1 774 0
 2073 0d66 9BB2     		uxth	r3, r3
 2074 0d68 1120     		movs	r0, #17
 2075 0d6a 0C21     		movs	r1, #12
 2076 0d6c 0522     		movs	r2, #5
 2077 0d6e FFF7FEFF 		bl	openserial_printError
 779:build/OpenMote-CC2538_armgcc/openstack/03a-IPHC/iphc.c ****              );
 780:build/OpenMote-CC2538_armgcc/openstack/03a-IPHC/iphc.c ****              break;
 2078              		.loc 1 780 0
 2079 0d72 00E0     		b	.L125
 2080              	.L173:
 772:build/OpenMote-CC2538_armgcc/openstack/03a-IPHC/iphc.c ****           default:
 2081              		.loc 1 772 0
 2082 0d74 00BF     		nop
 2083              	.L125:
 781:build/OpenMote-CC2538_armgcc/openstack/03a-IPHC/iphc.c ****        }
 782:build/OpenMote-CC2538_armgcc/openstack/03a-IPHC/iphc.c ****        
 783:build/OpenMote-CC2538_armgcc/openstack/03a-IPHC/iphc.c ****        // flowlabel
 784:build/OpenMote-CC2538_armgcc/openstack/03a-IPHC/iphc.c ****        switch (*tf) {
 2084              		.loc 1 784 0
 2085 0d76 3B68     		ldr	r3, [r7]
 2086 0d78 1B78     		ldrb	r3, [r3]	@ zero_extendqisi2
 2087 0d7a 012B     		cmp	r3, #1
 2088 0d7c 02D0     		beq	.L127
 2089 0d7e 032B     		cmp	r3, #3
 2090 0d80 4ED0     		beq	.L128
 2091 0d82 51E0     		b	.L170
 2092              	.L127:
 785:build/OpenMote-CC2538_armgcc/openstack/03a-IPHC/iphc.c ****           case IPHC_TF_3B:
 786:build/OpenMote-CC2538_armgcc/openstack/03a-IPHC/iphc.c **** 
 787:build/OpenMote-CC2538_armgcc/openstack/03a-IPHC/iphc.c ****              ipv6_header->flow_label        = 0;
 2093              		.loc 1 787 0
 2094 0d84 3B6C     		ldr	r3, [r7, #64]
 2095 0d86 0022     		movs	r2, #0
 2096 0d88 5A60     		str	r2, [r3, #4]
 788:build/OpenMote-CC2538_armgcc/openstack/03a-IPHC/iphc.c ****              ipv6_header->flow_label       |= ((uint32_t) *((uint8_t*)(msg->payload)+ipv6_header->h
 2097              		.loc 1 788 0
 2098 0d8a 3B6C     		ldr	r3, [r7, #64]
 2099 0d8c 5B68     		ldr	r3, [r3, #4]
 2100 0d8e FA6B     		ldr	r2, [r7, #60]
 2101 0d90 5168     		ldr	r1, [r2, #4]
 2102 0d92 3A6C     		ldr	r2, [r7, #64]
 2103 0d94 92F83F20 		ldrb	r2, [r2, #63]	@ zero_extendqisi2
 2104 0d98 1046     		mov	r0, r2
 2105 0d9a 97F84420 		ldrb	r2, [r7, #68]	@ zero_extendqisi2
 2106 0d9e 0244     		add	r2, r2, r0
 2107 0da0 0A44     		add	r2, r2, r1
 2108 0da2 1278     		ldrb	r2, [r2]	@ zero_extendqisi2
 2109 0da4 1A43     		orrs	r2, r2, r3
 2110 0da6 3B6C     		ldr	r3, [r7, #64]
 2111 0da8 5A60     		str	r2, [r3, #4]
 789:build/OpenMote-CC2538_armgcc/openstack/03a-IPHC/iphc.c ****              ipv6_header->header_length    += sizeof(uint8_t);
 2112              		.loc 1 789 0
 2113 0daa 3B6C     		ldr	r3, [r7, #64]
 2114 0dac 93F83F30 		ldrb	r3, [r3, #63]	@ zero_extendqisi2
 2115 0db0 0133     		adds	r3, r3, #1
 2116 0db2 DAB2     		uxtb	r2, r3
 2117 0db4 3B6C     		ldr	r3, [r7, #64]
 2118 0db6 83F83F20 		strb	r2, [r3, #63]
 790:build/OpenMote-CC2538_armgcc/openstack/03a-IPHC/iphc.c ****              ipv6_header->flow_label       |= ((uint32_t) *((uint8_t*)(msg->payload)+ipv6_header->h
 2119              		.loc 1 790 0
 2120 0dba 3B6C     		ldr	r3, [r7, #64]
 2121 0dbc 5A68     		ldr	r2, [r3, #4]
 2122 0dbe FB6B     		ldr	r3, [r7, #60]
 2123 0dc0 5968     		ldr	r1, [r3, #4]
 2124 0dc2 3B6C     		ldr	r3, [r7, #64]
 2125 0dc4 93F83F30 		ldrb	r3, [r3, #63]	@ zero_extendqisi2
 2126 0dc8 1846     		mov	r0, r3
 2127 0dca 97F84430 		ldrb	r3, [r7, #68]	@ zero_extendqisi2
 2128 0dce 0344     		add	r3, r3, r0
 2129 0dd0 0B44     		add	r3, r3, r1
 2130 0dd2 1B78     		ldrb	r3, [r3]	@ zero_extendqisi2
 2131 0dd4 1B02     		lsls	r3, r3, #8
 2132 0dd6 1A43     		orrs	r2, r2, r3
 2133 0dd8 3B6C     		ldr	r3, [r7, #64]
 2134 0dda 5A60     		str	r2, [r3, #4]
 791:build/OpenMote-CC2538_armgcc/openstack/03a-IPHC/iphc.c ****              ipv6_header->header_length    += sizeof(uint8_t);
 2135              		.loc 1 791 0
 2136 0ddc 3B6C     		ldr	r3, [r7, #64]
 2137 0dde 93F83F30 		ldrb	r3, [r3, #63]	@ zero_extendqisi2
 2138 0de2 0133     		adds	r3, r3, #1
 2139 0de4 DAB2     		uxtb	r2, r3
 2140 0de6 3B6C     		ldr	r3, [r7, #64]
 2141 0de8 83F83F20 		strb	r2, [r3, #63]
 792:build/OpenMote-CC2538_armgcc/openstack/03a-IPHC/iphc.c ****              ipv6_header->flow_label       |= ((uint32_t) *((uint8_t*)(msg->payload)+ipv6_header->h
 2142              		.loc 1 792 0
 2143 0dec 3B6C     		ldr	r3, [r7, #64]
 2144 0dee 5A68     		ldr	r2, [r3, #4]
 2145 0df0 FB6B     		ldr	r3, [r7, #60]
 2146 0df2 5968     		ldr	r1, [r3, #4]
 2147 0df4 3B6C     		ldr	r3, [r7, #64]
 2148 0df6 93F83F30 		ldrb	r3, [r3, #63]	@ zero_extendqisi2
 2149 0dfa 1846     		mov	r0, r3
 2150 0dfc 97F84430 		ldrb	r3, [r7, #68]	@ zero_extendqisi2
 2151 0e00 0344     		add	r3, r3, r0
 2152 0e02 0B44     		add	r3, r3, r1
 2153 0e04 1B78     		ldrb	r3, [r3]	@ zero_extendqisi2
 2154 0e06 1B04     		lsls	r3, r3, #16
 2155 0e08 1A43     		orrs	r2, r2, r3
 2156 0e0a 3B6C     		ldr	r3, [r7, #64]
 2157 0e0c 5A60     		str	r2, [r3, #4]
 793:build/OpenMote-CC2538_armgcc/openstack/03a-IPHC/iphc.c ****              ipv6_header->header_length    += sizeof(uint8_t);
 2158              		.loc 1 793 0
 2159 0e0e 3B6C     		ldr	r3, [r7, #64]
 2160 0e10 93F83F30 		ldrb	r3, [r3, #63]	@ zero_extendqisi2
 2161 0e14 0133     		adds	r3, r3, #1
 2162 0e16 DAB2     		uxtb	r2, r3
 2163 0e18 3B6C     		ldr	r3, [r7, #64]
 2164 0e1a 83F83F20 		strb	r2, [r3, #63]
 794:build/OpenMote-CC2538_armgcc/openstack/03a-IPHC/iphc.c ****              break;            
 2165              		.loc 1 794 0
 2166 0e1e 0CE0     		b	.L129
 2167              	.L128:
 795:build/OpenMote-CC2538_armgcc/openstack/03a-IPHC/iphc.c ****           case IPHC_TF_ELIDED:
 796:build/OpenMote-CC2538_armgcc/openstack/03a-IPHC/iphc.c ****              ipv6_header->flow_label        = 0;
 2168              		.loc 1 796 0
 2169 0e20 3B6C     		ldr	r3, [r7, #64]
 2170 0e22 0022     		movs	r2, #0
 2171 0e24 5A60     		str	r2, [r3, #4]
 797:build/OpenMote-CC2538_armgcc/openstack/03a-IPHC/iphc.c ****              break;
 2172              		.loc 1 797 0
 2173 0e26 08E0     		b	.L129
 2174              	.L170:
 798:build/OpenMote-CC2538_armgcc/openstack/03a-IPHC/iphc.c ****           case IPHC_TF_4B:
 799:build/OpenMote-CC2538_armgcc/openstack/03a-IPHC/iphc.c ****              //unsupported
 800:build/OpenMote-CC2538_armgcc/openstack/03a-IPHC/iphc.c ****           case IPHC_TF_1B:
 801:build/OpenMote-CC2538_armgcc/openstack/03a-IPHC/iphc.c ****              //unsupported
 802:build/OpenMote-CC2538_armgcc/openstack/03a-IPHC/iphc.c ****           default:
 803:build/OpenMote-CC2538_armgcc/openstack/03a-IPHC/iphc.c ****              openserial_printError(
 804:build/OpenMote-CC2538_armgcc/openstack/03a-IPHC/iphc.c ****                 COMPONENT_IPHC,
 805:build/OpenMote-CC2538_armgcc/openstack/03a-IPHC/iphc.c ****                 ERR_6LOWPAN_UNSUPPORTED,
 806:build/OpenMote-CC2538_armgcc/openstack/03a-IPHC/iphc.c ****                 (errorparameter_t)6,
 807:build/OpenMote-CC2538_armgcc/openstack/03a-IPHC/iphc.c ****                 (errorparameter_t)(*tf)
 2175              		.loc 1 807 0
 2176 0e28 3B68     		ldr	r3, [r7]
 2177 0e2a 1B78     		ldrb	r3, [r3]	@ zero_extendqisi2
 803:build/OpenMote-CC2538_armgcc/openstack/03a-IPHC/iphc.c ****                 COMPONENT_IPHC,
 2178              		.loc 1 803 0
 2179 0e2c 9BB2     		uxth	r3, r3
 2180 0e2e 1120     		movs	r0, #17
 2181 0e30 0C21     		movs	r1, #12
 2182 0e32 0622     		movs	r2, #6
 2183 0e34 FFF7FEFF 		bl	openserial_printError
 808:build/OpenMote-CC2538_armgcc/openstack/03a-IPHC/iphc.c ****              );
 809:build/OpenMote-CC2538_armgcc/openstack/03a-IPHC/iphc.c ****              break;
 2184              		.loc 1 809 0
 2185 0e38 00BF     		nop
 2186              	.L129:
 810:build/OpenMote-CC2538_armgcc/openstack/03a-IPHC/iphc.c ****        }
 811:build/OpenMote-CC2538_armgcc/openstack/03a-IPHC/iphc.c ****        
 812:build/OpenMote-CC2538_armgcc/openstack/03a-IPHC/iphc.c ****        // next header
 813:build/OpenMote-CC2538_armgcc/openstack/03a-IPHC/iphc.c ****        switch (*nh) {
 2187              		.loc 1 813 0
 2188 0e3a BB6A     		ldr	r3, [r7, #40]
 2189 0e3c 1B78     		ldrb	r3, [r3]	@ zero_extendqisi2
 2190 0e3e 002B     		cmp	r3, #0
 2191 0e40 02D0     		beq	.L131
 2192 0e42 012B     		cmp	r3, #1
 2193 0e44 19D0     		beq	.L132
 2194 0e46 1CE0     		b	.L171
 2195              	.L131:
 814:build/OpenMote-CC2538_armgcc/openstack/03a-IPHC/iphc.c ****           case IPHC_NH_INLINE:
 815:build/OpenMote-CC2538_armgcc/openstack/03a-IPHC/iphc.c ****              // Full 8 bits for Next Header are carried in-line
 816:build/OpenMote-CC2538_armgcc/openstack/03a-IPHC/iphc.c ****              ipv6_header->next_header_compressed = FALSE;
 2196              		.loc 1 816 0
 2197 0e48 3B6C     		ldr	r3, [r7, #64]
 2198 0e4a 0022     		movs	r2, #0
 2199 0e4c 1A72     		strb	r2, [r3, #8]
 817:build/OpenMote-CC2538_armgcc/openstack/03a-IPHC/iphc.c ****              ipv6_header->next_header            = *((uint8_t*)(msg->payload)+ipv6_header->header_l
 2200              		.loc 1 817 0
 2201 0e4e FB6B     		ldr	r3, [r7, #60]
 2202 0e50 5A68     		ldr	r2, [r3, #4]
 2203 0e52 3B6C     		ldr	r3, [r7, #64]
 2204 0e54 93F83F30 		ldrb	r3, [r3, #63]	@ zero_extendqisi2
 2205 0e58 1946     		mov	r1, r3
 2206 0e5a 97F84430 		ldrb	r3, [r7, #68]	@ zero_extendqisi2
 2207 0e5e 0B44     		add	r3, r3, r1
 2208 0e60 1344     		add	r3, r3, r2
 2209 0e62 1A78     		ldrb	r2, [r3]	@ zero_extendqisi2
 2210 0e64 3B6C     		ldr	r3, [r7, #64]
 2211 0e66 5A72     		strb	r2, [r3, #9]
 818:build/OpenMote-CC2538_armgcc/openstack/03a-IPHC/iphc.c ****              ipv6_header->header_length         += sizeof(uint8_t);
 2212              		.loc 1 818 0
 2213 0e68 3B6C     		ldr	r3, [r7, #64]
 2214 0e6a 93F83F30 		ldrb	r3, [r3, #63]	@ zero_extendqisi2
 2215 0e6e 0133     		adds	r3, r3, #1
 2216 0e70 DAB2     		uxtb	r2, r3
 2217 0e72 3B6C     		ldr	r3, [r7, #64]
 2218 0e74 83F83F20 		strb	r2, [r3, #63]
 819:build/OpenMote-CC2538_armgcc/openstack/03a-IPHC/iphc.c ****           
 820:build/OpenMote-CC2538_armgcc/openstack/03a-IPHC/iphc.c ****              break;
 2219              		.loc 1 820 0
 2220 0e78 0CE0     		b	.L133
 2221              	.L132:
 821:build/OpenMote-CC2538_armgcc/openstack/03a-IPHC/iphc.c ****           case IPHC_NH_COMPRESSED:
 822:build/OpenMote-CC2538_armgcc/openstack/03a-IPHC/iphc.c ****              // the Next header field is compressed and the next header is encoded
 823:build/OpenMote-CC2538_armgcc/openstack/03a-IPHC/iphc.c ****              // using LOWPAN_NHC, which is discussed in Section 4.1 of RFC6282
 824:build/OpenMote-CC2538_armgcc/openstack/03a-IPHC/iphc.c ****              // we don't parse anything here, but will look at the (compressed)
 825:build/OpenMote-CC2538_armgcc/openstack/03a-IPHC/iphc.c ****              // next header after having parsed all address fields.
 826:build/OpenMote-CC2538_armgcc/openstack/03a-IPHC/iphc.c ****              ipv6_header->next_header_compressed = TRUE;
 2222              		.loc 1 826 0
 2223 0e7a 3B6C     		ldr	r3, [r7, #64]
 2224 0e7c 0122     		movs	r2, #1
 2225 0e7e 1A72     		strb	r2, [r3, #8]
 827:build/OpenMote-CC2538_armgcc/openstack/03a-IPHC/iphc.c ****              break;
 2226              		.loc 1 827 0
 2227 0e80 08E0     		b	.L133
 2228              	.L171:
 828:build/OpenMote-CC2538_armgcc/openstack/03a-IPHC/iphc.c ****           default:
 829:build/OpenMote-CC2538_armgcc/openstack/03a-IPHC/iphc.c ****              openserial_printError(
 830:build/OpenMote-CC2538_armgcc/openstack/03a-IPHC/iphc.c ****                 COMPONENT_IPHC,
 831:build/OpenMote-CC2538_armgcc/openstack/03a-IPHC/iphc.c ****                 ERR_6LOWPAN_UNSUPPORTED,
 832:build/OpenMote-CC2538_armgcc/openstack/03a-IPHC/iphc.c ****                 (errorparameter_t)7,
 833:build/OpenMote-CC2538_armgcc/openstack/03a-IPHC/iphc.c ****                 (errorparameter_t)(*nh)
 2229              		.loc 1 833 0
 2230 0e82 BB6A     		ldr	r3, [r7, #40]
 2231 0e84 1B78     		ldrb	r3, [r3]	@ zero_extendqisi2
 829:build/OpenMote-CC2538_armgcc/openstack/03a-IPHC/iphc.c ****                 COMPONENT_IPHC,
 2232              		.loc 1 829 0
 2233 0e86 9BB2     		uxth	r3, r3
 2234 0e88 1120     		movs	r0, #17
 2235 0e8a 0C21     		movs	r1, #12
 2236 0e8c 0722     		movs	r2, #7
 2237 0e8e FFF7FEFF 		bl	openserial_printError
 834:build/OpenMote-CC2538_armgcc/openstack/03a-IPHC/iphc.c ****              );
 835:build/OpenMote-CC2538_armgcc/openstack/03a-IPHC/iphc.c ****              break;
 2238              		.loc 1 835 0
 2239 0e92 00BF     		nop
 2240              	.L133:
 836:build/OpenMote-CC2538_armgcc/openstack/03a-IPHC/iphc.c ****        }
 837:build/OpenMote-CC2538_armgcc/openstack/03a-IPHC/iphc.c ****        
 838:build/OpenMote-CC2538_armgcc/openstack/03a-IPHC/iphc.c ****        // hop limit
 839:build/OpenMote-CC2538_armgcc/openstack/03a-IPHC/iphc.c ****        switch (*hlim) {
 2241              		.loc 1 839 0
 2242 0e94 FB6A     		ldr	r3, [r7, #44]
 2243 0e96 1B78     		ldrb	r3, [r3]	@ zero_extendqisi2
 2244 0e98 032B     		cmp	r3, #3
 2245 0e9a 2DD8     		bhi	.L134
 2246 0e9c 01A2     		adr	r2, .L136
 2247 0e9e 52F823F0 		ldr	pc, [r2, r3, lsl #2]
 2248 0ea2 00BF     		.p2align 2
 2249              	.L136:
 2250 0ea4 B50E0000 		.word	.L135+1
 2251 0ea8 E10E0000 		.word	.L137+1
 2252 0eac E90E0000 		.word	.L138+1
 2253 0eb0 F10E0000 		.word	.L139+1
 2254              		.p2align 1
 2255              	.L135:
 840:build/OpenMote-CC2538_armgcc/openstack/03a-IPHC/iphc.c ****           case IPHC_HLIM_INLINE:
 841:build/OpenMote-CC2538_armgcc/openstack/03a-IPHC/iphc.c ****              ipv6_header->hop_limit         = *((uint8_t*)(msg->payload+ipv6_header->header_length+
 2256              		.loc 1 841 0
 2257 0eb4 FB6B     		ldr	r3, [r7, #60]
 2258 0eb6 5A68     		ldr	r2, [r3, #4]
 2259 0eb8 3B6C     		ldr	r3, [r7, #64]
 2260 0eba 93F83F30 		ldrb	r3, [r3, #63]	@ zero_extendqisi2
 2261 0ebe 1946     		mov	r1, r3
 2262 0ec0 97F84430 		ldrb	r3, [r7, #68]	@ zero_extendqisi2
 2263 0ec4 0B44     		add	r3, r3, r1
 2264 0ec6 1344     		add	r3, r3, r2
 2265 0ec8 1A78     		ldrb	r2, [r3]	@ zero_extendqisi2
 2266 0eca 3B6C     		ldr	r3, [r7, #64]
 2267 0ecc 1A77     		strb	r2, [r3, #28]
 842:build/OpenMote-CC2538_armgcc/openstack/03a-IPHC/iphc.c ****              ipv6_header->header_length    += sizeof(uint8_t);
 2268              		.loc 1 842 0
 2269 0ece 3B6C     		ldr	r3, [r7, #64]
 2270 0ed0 93F83F30 		ldrb	r3, [r3, #63]	@ zero_extendqisi2
 2271 0ed4 0133     		adds	r3, r3, #1
 2272 0ed6 DAB2     		uxtb	r2, r3
 2273 0ed8 3B6C     		ldr	r3, [r7, #64]
 2274 0eda 83F83F20 		strb	r2, [r3, #63]
 843:build/OpenMote-CC2538_armgcc/openstack/03a-IPHC/iphc.c ****              break;
 2275              		.loc 1 843 0
 2276 0ede 14E0     		b	.L140
 2277              	.L137:
 844:build/OpenMote-CC2538_armgcc/openstack/03a-IPHC/iphc.c ****           case IPHC_HLIM_1:
 845:build/OpenMote-CC2538_armgcc/openstack/03a-IPHC/iphc.c ****              ipv6_header->hop_limit         = 1;
 2278              		.loc 1 845 0
 2279 0ee0 3B6C     		ldr	r3, [r7, #64]
 2280 0ee2 0122     		movs	r2, #1
 2281 0ee4 1A77     		strb	r2, [r3, #28]
 846:build/OpenMote-CC2538_armgcc/openstack/03a-IPHC/iphc.c ****              break;
 2282              		.loc 1 846 0
 2283 0ee6 10E0     		b	.L140
 2284              	.L138:
 847:build/OpenMote-CC2538_armgcc/openstack/03a-IPHC/iphc.c ****           case IPHC_HLIM_64:
 848:build/OpenMote-CC2538_armgcc/openstack/03a-IPHC/iphc.c ****              ipv6_header->hop_limit         = 64;
 2285              		.loc 1 848 0
 2286 0ee8 3B6C     		ldr	r3, [r7, #64]
 2287 0eea 4022     		movs	r2, #64
 2288 0eec 1A77     		strb	r2, [r3, #28]
 849:build/OpenMote-CC2538_armgcc/openstack/03a-IPHC/iphc.c ****              break;
 2289              		.loc 1 849 0
 2290 0eee 0CE0     		b	.L140
 2291              	.L139:
 850:build/OpenMote-CC2538_armgcc/openstack/03a-IPHC/iphc.c ****           case IPHC_HLIM_255:
 851:build/OpenMote-CC2538_armgcc/openstack/03a-IPHC/iphc.c ****              ipv6_header->hop_limit         = 255;
 2292              		.loc 1 851 0
 2293 0ef0 3B6C     		ldr	r3, [r7, #64]
 2294 0ef2 FF22     		movs	r2, #255
 2295 0ef4 1A77     		strb	r2, [r3, #28]
 852:build/OpenMote-CC2538_armgcc/openstack/03a-IPHC/iphc.c ****              break;
 2296              		.loc 1 852 0
 2297 0ef6 08E0     		b	.L140
 2298              	.L134:
 853:build/OpenMote-CC2538_armgcc/openstack/03a-IPHC/iphc.c ****           default:
 854:build/OpenMote-CC2538_armgcc/openstack/03a-IPHC/iphc.c ****              openserial_printError(
 855:build/OpenMote-CC2538_armgcc/openstack/03a-IPHC/iphc.c ****                 COMPONENT_IPHC,
 856:build/OpenMote-CC2538_armgcc/openstack/03a-IPHC/iphc.c ****                 ERR_6LOWPAN_UNSUPPORTED,
 857:build/OpenMote-CC2538_armgcc/openstack/03a-IPHC/iphc.c ****                 (errorparameter_t)8,
 858:build/OpenMote-CC2538_armgcc/openstack/03a-IPHC/iphc.c ****                 (errorparameter_t)(*hlim)
 2299              		.loc 1 858 0
 2300 0ef8 FB6A     		ldr	r3, [r7, #44]
 2301 0efa 1B78     		ldrb	r3, [r3]	@ zero_extendqisi2
 854:build/OpenMote-CC2538_armgcc/openstack/03a-IPHC/iphc.c ****                 COMPONENT_IPHC,
 2302              		.loc 1 854 0
 2303 0efc 9BB2     		uxth	r3, r3
 2304 0efe 1120     		movs	r0, #17
 2305 0f00 0C21     		movs	r1, #12
 2306 0f02 0822     		movs	r2, #8
 2307 0f04 FFF7FEFF 		bl	openserial_printError
 859:build/OpenMote-CC2538_armgcc/openstack/03a-IPHC/iphc.c ****              );
 860:build/OpenMote-CC2538_armgcc/openstack/03a-IPHC/iphc.c ****              break;
 2308              		.loc 1 860 0
 2309 0f08 00BF     		nop
 2310              	.L140:
 861:build/OpenMote-CC2538_armgcc/openstack/03a-IPHC/iphc.c ****        }
 862:build/OpenMote-CC2538_armgcc/openstack/03a-IPHC/iphc.c ****        
 863:build/OpenMote-CC2538_armgcc/openstack/03a-IPHC/iphc.c ****        // source address
 864:build/OpenMote-CC2538_armgcc/openstack/03a-IPHC/iphc.c ****        switch (*sam) {
 2311              		.loc 1 864 0
 2312 0f0a 3B6B     		ldr	r3, [r7, #48]
 2313 0f0c 1B78     		ldrb	r3, [r3]	@ zero_extendqisi2
 2314 0f0e 032B     		cmp	r3, #3
 2315 0f10 00F28280 		bhi	.L141
 2316 0f14 01A2     		adr	r2, .L143
 2317 0f16 52F823F0 		ldr	pc, [r2, r3, lsl #2]
 2318 0f1a 00BF     		.p2align 2
 2319              	.L143:
 2320 0f1c E30F0000 		.word	.L142+1
 2321 0f20 9B0F0000 		.word	.L144+1
 2322 0f24 4B0F0000 		.word	.L145+1
 2323 0f28 2D0F0000 		.word	.L146+1
 2324              		.p2align 1
 2325              	.L146:
 865:build/OpenMote-CC2538_armgcc/openstack/03a-IPHC/iphc.c ****           case IPHC_SAM_ELIDED:
 866:build/OpenMote-CC2538_armgcc/openstack/03a-IPHC/iphc.c ****              packetfunctions_mac64bToIp128b(idmanager_getMyID(ADDR_PREFIX),&(msg->l2_nextORprevious
 2326              		.loc 1 866 0
 2327 0f2c 0520     		movs	r0, #5
 2328 0f2e FFF7FEFF 		bl	idmanager_getMyID
 2329 0f32 0146     		mov	r1, r0
 2330 0f34 FB6B     		ldr	r3, [r7, #60]
 2331 0f36 03F13802 		add	r2, r3, #56
 2332 0f3a 3B6C     		ldr	r3, [r7, #64]
 2333 0f3c 1D33     		adds	r3, r3, #29
 2334 0f3e 0846     		mov	r0, r1
 2335 0f40 1146     		mov	r1, r2
 2336 0f42 1A46     		mov	r2, r3
 2337 0f44 FFF7FEFF 		bl	packetfunctions_mac64bToIp128b
 867:build/OpenMote-CC2538_armgcc/openstack/03a-IPHC/iphc.c ****              break;
 2338              		.loc 1 867 0
 2339 0f48 6FE0     		b	.L147
 2340              	.L145:
 868:build/OpenMote-CC2538_armgcc/openstack/03a-IPHC/iphc.c ****           case IPHC_SAM_16B:
 869:build/OpenMote-CC2538_armgcc/openstack/03a-IPHC/iphc.c ****              packetfunctions_readAddress(((uint8_t*)(msg->payload+ipv6_header->header_length+previo
 2341              		.loc 1 869 0
 2342 0f4a FB6B     		ldr	r3, [r7, #60]
 2343 0f4c 5A68     		ldr	r2, [r3, #4]
 2344 0f4e 3B6C     		ldr	r3, [r7, #64]
 2345 0f50 93F83F30 		ldrb	r3, [r3, #63]	@ zero_extendqisi2
 2346 0f54 1946     		mov	r1, r3
 2347 0f56 97F84430 		ldrb	r3, [r7, #68]	@ zero_extendqisi2
 2348 0f5a 0B44     		add	r3, r3, r1
 2349 0f5c 1344     		add	r3, r3, r2
 2350 0f5e 1846     		mov	r0, r3
 2351 0f60 0121     		movs	r1, #1
 2352 0f62 FA68     		ldr	r2, [r7, #12]
 2353 0f64 0023     		movs	r3, #0
 2354 0f66 FFF7FEFF 		bl	packetfunctions_readAddress
 870:build/OpenMote-CC2538_armgcc/openstack/03a-IPHC/iphc.c ****              ipv6_header->header_length += 2*sizeof(uint8_t);
 2355              		.loc 1 870 0
 2356 0f6a 3B6C     		ldr	r3, [r7, #64]
 2357 0f6c 93F83F30 		ldrb	r3, [r3, #63]	@ zero_extendqisi2
 2358 0f70 0233     		adds	r3, r3, #2
 2359 0f72 DAB2     		uxtb	r2, r3
 2360 0f74 3B6C     		ldr	r3, [r7, #64]
 2361 0f76 83F83F20 		strb	r2, [r3, #63]
 871:build/OpenMote-CC2538_armgcc/openstack/03a-IPHC/iphc.c ****              packetfunctions_mac16bToMac64b(temp_addr_16b,temp_addr_64b);
 2362              		.loc 1 871 0
 2363 0f7a F868     		ldr	r0, [r7, #12]
 2364 0f7c B968     		ldr	r1, [r7, #8]
 2365 0f7e FFF7FEFF 		bl	packetfunctions_mac16bToMac64b
 872:build/OpenMote-CC2538_armgcc/openstack/03a-IPHC/iphc.c ****              packetfunctions_mac64bToIp128b(idmanager_getMyID(ADDR_PREFIX),temp_addr_64b,&ipv6_head
 2366              		.loc 1 872 0
 2367 0f82 0520     		movs	r0, #5
 2368 0f84 FFF7FEFF 		bl	idmanager_getMyID
 2369 0f88 0246     		mov	r2, r0
 2370 0f8a 3B6C     		ldr	r3, [r7, #64]
 2371 0f8c 1D33     		adds	r3, r3, #29
 2372 0f8e 1046     		mov	r0, r2
 2373 0f90 B968     		ldr	r1, [r7, #8]
 2374 0f92 1A46     		mov	r2, r3
 2375 0f94 FFF7FEFF 		bl	packetfunctions_mac64bToIp128b
 873:build/OpenMote-CC2538_armgcc/openstack/03a-IPHC/iphc.c ****              break;
 2376              		.loc 1 873 0
 2377 0f98 47E0     		b	.L147
 2378              	.L144:
 874:build/OpenMote-CC2538_armgcc/openstack/03a-IPHC/iphc.c ****           case IPHC_SAM_64B:
 875:build/OpenMote-CC2538_armgcc/openstack/03a-IPHC/iphc.c ****              packetfunctions_readAddress(((uint8_t*)(msg->payload+ipv6_header->header_length+previo
 2379              		.loc 1 875 0
 2380 0f9a FB6B     		ldr	r3, [r7, #60]
 2381 0f9c 5A68     		ldr	r2, [r3, #4]
 2382 0f9e 3B6C     		ldr	r3, [r7, #64]
 2383 0fa0 93F83F30 		ldrb	r3, [r3, #63]	@ zero_extendqisi2
 2384 0fa4 1946     		mov	r1, r3
 2385 0fa6 97F84430 		ldrb	r3, [r7, #68]	@ zero_extendqisi2
 2386 0faa 0B44     		add	r3, r3, r1
 2387 0fac 1344     		add	r3, r3, r2
 2388 0fae 1846     		mov	r0, r3
 2389 0fb0 0221     		movs	r1, #2
 2390 0fb2 BA68     		ldr	r2, [r7, #8]
 2391 0fb4 0023     		movs	r3, #0
 2392 0fb6 FFF7FEFF 		bl	packetfunctions_readAddress
 876:build/OpenMote-CC2538_armgcc/openstack/03a-IPHC/iphc.c ****              ipv6_header->header_length += 8*sizeof(uint8_t);
 2393              		.loc 1 876 0
 2394 0fba 3B6C     		ldr	r3, [r7, #64]
 2395 0fbc 93F83F30 		ldrb	r3, [r3, #63]	@ zero_extendqisi2
 2396 0fc0 0833     		adds	r3, r3, #8
 2397 0fc2 DAB2     		uxtb	r2, r3
 2398 0fc4 3B6C     		ldr	r3, [r7, #64]
 2399 0fc6 83F83F20 		strb	r2, [r3, #63]
 877:build/OpenMote-CC2538_armgcc/openstack/03a-IPHC/iphc.c ****              packetfunctions_mac64bToIp128b(idmanager_getMyID(ADDR_PREFIX),temp_addr_64b,&ipv6_head
 2400              		.loc 1 877 0
 2401 0fca 0520     		movs	r0, #5
 2402 0fcc FFF7FEFF 		bl	idmanager_getMyID
 2403 0fd0 0246     		mov	r2, r0
 2404 0fd2 3B6C     		ldr	r3, [r7, #64]
 2405 0fd4 1D33     		adds	r3, r3, #29
 2406 0fd6 1046     		mov	r0, r2
 2407 0fd8 B968     		ldr	r1, [r7, #8]
 2408 0fda 1A46     		mov	r2, r3
 2409 0fdc FFF7FEFF 		bl	packetfunctions_mac64bToIp128b
 878:build/OpenMote-CC2538_armgcc/openstack/03a-IPHC/iphc.c ****              break;
 2410              		.loc 1 878 0
 2411 0fe0 23E0     		b	.L147
 2412              	.L142:
 879:build/OpenMote-CC2538_armgcc/openstack/03a-IPHC/iphc.c ****           case IPHC_SAM_128B:
 880:build/OpenMote-CC2538_armgcc/openstack/03a-IPHC/iphc.c ****              packetfunctions_readAddress(((uint8_t*)(msg->payload+ipv6_header->header_length+previo
 2413              		.loc 1 880 0
 2414 0fe2 FB6B     		ldr	r3, [r7, #60]
 2415 0fe4 5A68     		ldr	r2, [r3, #4]
 2416 0fe6 3B6C     		ldr	r3, [r7, #64]
 2417 0fe8 93F83F30 		ldrb	r3, [r3, #63]	@ zero_extendqisi2
 2418 0fec 1946     		mov	r1, r3
 2419 0fee 97F84430 		ldrb	r3, [r7, #68]	@ zero_extendqisi2
 2420 0ff2 0B44     		add	r3, r3, r1
 2421 0ff4 1A44     		add	r2, r2, r3
 2422 0ff6 3B6C     		ldr	r3, [r7, #64]
 2423 0ff8 1D33     		adds	r3, r3, #29
 2424 0ffa 1046     		mov	r0, r2
 2425 0ffc 0321     		movs	r1, #3
 2426 0ffe 1A46     		mov	r2, r3
 2427 1000 0023     		movs	r3, #0
 2428 1002 FFF7FEFF 		bl	packetfunctions_readAddress
 881:build/OpenMote-CC2538_armgcc/openstack/03a-IPHC/iphc.c ****              ipv6_header->header_length += 16*sizeof(uint8_t);
 2429              		.loc 1 881 0
 2430 1006 3B6C     		ldr	r3, [r7, #64]
 2431 1008 93F83F30 		ldrb	r3, [r3, #63]	@ zero_extendqisi2
 2432 100c 1033     		adds	r3, r3, #16
 2433 100e DAB2     		uxtb	r2, r3
 2434 1010 3B6C     		ldr	r3, [r7, #64]
 2435 1012 83F83F20 		strb	r2, [r3, #63]
 882:build/OpenMote-CC2538_armgcc/openstack/03a-IPHC/iphc.c ****              break;
 2436              		.loc 1 882 0
 2437 1016 08E0     		b	.L147
 2438              	.L141:
 883:build/OpenMote-CC2538_armgcc/openstack/03a-IPHC/iphc.c ****           default:
 884:build/OpenMote-CC2538_armgcc/openstack/03a-IPHC/iphc.c ****              openserial_printError(
 885:build/OpenMote-CC2538_armgcc/openstack/03a-IPHC/iphc.c ****                 COMPONENT_IPHC,
 886:build/OpenMote-CC2538_armgcc/openstack/03a-IPHC/iphc.c ****                 ERR_6LOWPAN_UNSUPPORTED,
 887:build/OpenMote-CC2538_armgcc/openstack/03a-IPHC/iphc.c ****                 (errorparameter_t)9,
 888:build/OpenMote-CC2538_armgcc/openstack/03a-IPHC/iphc.c ****                 (errorparameter_t)(*sam)
 2439              		.loc 1 888 0
 2440 1018 3B6B     		ldr	r3, [r7, #48]
 2441 101a 1B78     		ldrb	r3, [r3]	@ zero_extendqisi2
 884:build/OpenMote-CC2538_armgcc/openstack/03a-IPHC/iphc.c ****                 COMPONENT_IPHC,
 2442              		.loc 1 884 0
 2443 101c 9BB2     		uxth	r3, r3
 2444 101e 1120     		movs	r0, #17
 2445 1020 0C21     		movs	r1, #12
 2446 1022 0922     		movs	r2, #9
 2447 1024 FFF7FEFF 		bl	openserial_printError
 889:build/OpenMote-CC2538_armgcc/openstack/03a-IPHC/iphc.c ****              );
 890:build/OpenMote-CC2538_armgcc/openstack/03a-IPHC/iphc.c ****              break;
 2448              		.loc 1 890 0
 2449 1028 00BF     		nop
 2450              	.L147:
 891:build/OpenMote-CC2538_armgcc/openstack/03a-IPHC/iphc.c ****        }
 892:build/OpenMote-CC2538_armgcc/openstack/03a-IPHC/iphc.c ****        
 893:build/OpenMote-CC2538_armgcc/openstack/03a-IPHC/iphc.c ****        // destination address
 894:build/OpenMote-CC2538_armgcc/openstack/03a-IPHC/iphc.c ****        if(*m == IPHC_M_YES) {
 2451              		.loc 1 894 0
 2452 102a 7B6B     		ldr	r3, [r7, #52]
 2453 102c 1B78     		ldrb	r3, [r3]	@ zero_extendqisi2
 2454 102e 012B     		cmp	r3, #1
 2455 1030 3ED1     		bne	.L148
 895:build/OpenMote-CC2538_armgcc/openstack/03a-IPHC/iphc.c ****            switch (*dam) {
 2456              		.loc 1 895 0
 2457 1032 BB6B     		ldr	r3, [r7, #56]
 2458 1034 1B78     		ldrb	r3, [r3]	@ zero_extendqisi2
 2459 1036 032B     		cmp	r3, #3
 2460 1038 2FD8     		bhi	.L149
 2461 103a 01A2     		adr	r2, .L151
 2462 103c 52F823F0 		ldr	pc, [r2, r3, lsl #2]
 2463              		.p2align 2
 2464              	.L151:
 2465 1040 AD100000 		.word	.L174+1
 2466 1044 AD100000 		.word	.L174+1
 2467 1048 AD100000 		.word	.L174+1
 2468 104c 51100000 		.word	.L154+1
 2469              		.p2align 1
 2470              	.L154:
 896:build/OpenMote-CC2538_armgcc/openstack/03a-IPHC/iphc.c ****               case IPHC_DAM_ELIDED:
 897:build/OpenMote-CC2538_armgcc/openstack/03a-IPHC/iphc.c ****                  ipv6_header->dest.type = ADDR_128B;
 2471              		.loc 1 897 0
 2472 1050 3B6C     		ldr	r3, [r7, #64]
 2473 1052 0322     		movs	r2, #3
 2474 1054 83F82E20 		strb	r2, [r3, #46]
 898:build/OpenMote-CC2538_armgcc/openstack/03a-IPHC/iphc.c ****                  memcpy(&(ipv6_header->dest.addr_128b[0]),all_routers_multicast,sizeof(all_routers_
 2475              		.loc 1 898 0
 2476 1058 3B6C     		ldr	r3, [r7, #64]
 2477 105a 2F33     		adds	r3, r3, #47
 2478 105c C04A     		ldr	r2, .L175
 2479 105e 1C46     		mov	r4, r3
 2480 1060 1546     		mov	r5, r2
 2481 1062 0FCD     		ldmia	r5!, {r0, r1, r2, r3}
 2482 1064 2060     		str	r0, [r4]	@ unaligned
 2483 1066 6160     		str	r1, [r4, #4]	@ unaligned
 2484 1068 A260     		str	r2, [r4, #8]	@ unaligned
 2485 106a E360     		str	r3, [r4, #12]	@ unaligned
 899:build/OpenMote-CC2538_armgcc/openstack/03a-IPHC/iphc.c ****                  ipv6_header->dest.addr_128b[15] = *(msg->payload+ipv6_header->header_length+previo
 2486              		.loc 1 899 0
 2487 106c FB6B     		ldr	r3, [r7, #60]
 2488 106e 5A68     		ldr	r2, [r3, #4]
 2489 1070 3B6C     		ldr	r3, [r7, #64]
 2490 1072 93F83F30 		ldrb	r3, [r3, #63]	@ zero_extendqisi2
 2491 1076 1946     		mov	r1, r3
 2492 1078 97F84430 		ldrb	r3, [r7, #68]	@ zero_extendqisi2
 2493 107c 0B44     		add	r3, r3, r1
 2494 107e 1344     		add	r3, r3, r2
 2495 1080 1A78     		ldrb	r2, [r3]	@ zero_extendqisi2
 2496 1082 3B6C     		ldr	r3, [r7, #64]
 2497 1084 83F83E20 		strb	r2, [r3, #62]
 900:build/OpenMote-CC2538_armgcc/openstack/03a-IPHC/iphc.c ****                  ipv6_header->header_length += sizeof(uint8_t);
 2498              		.loc 1 900 0
 2499 1088 3B6C     		ldr	r3, [r7, #64]
 2500 108a 93F83F30 		ldrb	r3, [r3, #63]	@ zero_extendqisi2
 2501 108e 0133     		adds	r3, r3, #1
 2502 1090 DAB2     		uxtb	r2, r3
 2503 1092 3B6C     		ldr	r3, [r7, #64]
 2504 1094 83F83F20 		strb	r2, [r3, #63]
 901:build/OpenMote-CC2538_armgcc/openstack/03a-IPHC/iphc.c ****                  break;
 2505              		.loc 1 901 0
 2506 1098 09E0     		b	.L155
 2507              	.L149:
 902:build/OpenMote-CC2538_armgcc/openstack/03a-IPHC/iphc.c ****               case IPHC_DAM_16B:
 903:build/OpenMote-CC2538_armgcc/openstack/03a-IPHC/iphc.c ****                  // tengfei: todo
 904:build/OpenMote-CC2538_armgcc/openstack/03a-IPHC/iphc.c ****                  break;
 905:build/OpenMote-CC2538_armgcc/openstack/03a-IPHC/iphc.c ****               case IPHC_DAM_64B:
 906:build/OpenMote-CC2538_armgcc/openstack/03a-IPHC/iphc.c ****                  // tengfei: todo
 907:build/OpenMote-CC2538_armgcc/openstack/03a-IPHC/iphc.c ****                  break;
 908:build/OpenMote-CC2538_armgcc/openstack/03a-IPHC/iphc.c ****               case IPHC_DAM_128B:
 909:build/OpenMote-CC2538_armgcc/openstack/03a-IPHC/iphc.c ****                  // tengfei: todo
 910:build/OpenMote-CC2538_armgcc/openstack/03a-IPHC/iphc.c ****                  break;
 911:build/OpenMote-CC2538_armgcc/openstack/03a-IPHC/iphc.c ****               default:
 912:build/OpenMote-CC2538_armgcc/openstack/03a-IPHC/iphc.c ****                  openserial_printError(
 913:build/OpenMote-CC2538_armgcc/openstack/03a-IPHC/iphc.c ****                     COMPONENT_IPHC,
 914:build/OpenMote-CC2538_armgcc/openstack/03a-IPHC/iphc.c ****                     ERR_6LOWPAN_UNSUPPORTED,
 915:build/OpenMote-CC2538_armgcc/openstack/03a-IPHC/iphc.c ****                     (errorparameter_t)10,
 916:build/OpenMote-CC2538_armgcc/openstack/03a-IPHC/iphc.c ****                     (errorparameter_t)(*dam)
 2508              		.loc 1 916 0
 2509 109a BB6B     		ldr	r3, [r7, #56]
 2510 109c 1B78     		ldrb	r3, [r3]	@ zero_extendqisi2
 912:build/OpenMote-CC2538_armgcc/openstack/03a-IPHC/iphc.c ****                     COMPONENT_IPHC,
 2511              		.loc 1 912 0
 2512 109e 9BB2     		uxth	r3, r3
 2513 10a0 1120     		movs	r0, #17
 2514 10a2 0C21     		movs	r1, #12
 2515 10a4 0A22     		movs	r2, #10
 2516 10a6 FFF7FEFF 		bl	openserial_printError
 917:build/OpenMote-CC2538_armgcc/openstack/03a-IPHC/iphc.c ****                  );
 918:build/OpenMote-CC2538_armgcc/openstack/03a-IPHC/iphc.c ****                  break;
 2517              		.loc 1 918 0
 2518 10aa 00E0     		b	.L155
 2519              	.L174:
 910:build/OpenMote-CC2538_armgcc/openstack/03a-IPHC/iphc.c ****               default:
 2520              		.loc 1 910 0
 2521 10ac 00BF     		nop
 2522              	.L155:
 2523 10ae 8FE0     		b	.L156
 2524              	.L148:
 919:build/OpenMote-CC2538_armgcc/openstack/03a-IPHC/iphc.c ****            }
 920:build/OpenMote-CC2538_armgcc/openstack/03a-IPHC/iphc.c ****        } else {
 921:build/OpenMote-CC2538_armgcc/openstack/03a-IPHC/iphc.c ****            switch (*dam) {
 2525              		.loc 1 921 0
 2526 10b0 BB6B     		ldr	r3, [r7, #56]
 2527 10b2 1B78     		ldrb	r3, [r3]	@ zero_extendqisi2
 2528 10b4 032B     		cmp	r3, #3
 2529 10b6 00F28280 		bhi	.L157
 2530 10ba 01A2     		adr	r2, .L159
 2531 10bc 52F823F0 		ldr	pc, [r2, r3, lsl #2]
 2532              		.p2align 2
 2533              	.L159:
 2534 10c0 89110000 		.word	.L158+1
 2535 10c4 41110000 		.word	.L160+1
 2536 10c8 F1100000 		.word	.L161+1
 2537 10cc D1100000 		.word	.L162+1
 2538              		.p2align 1
 2539              	.L162:
 922:build/OpenMote-CC2538_armgcc/openstack/03a-IPHC/iphc.c ****               case IPHC_DAM_ELIDED:
 923:build/OpenMote-CC2538_armgcc/openstack/03a-IPHC/iphc.c ****                  packetfunctions_mac64bToIp128b(idmanager_getMyID(ADDR_PREFIX),idmanager_getMyID(AD
 2540              		.loc 1 923 0
 2541 10d0 0520     		movs	r0, #5
 2542 10d2 FFF7FEFF 		bl	idmanager_getMyID
 2543 10d6 0446     		mov	r4, r0
 2544 10d8 0220     		movs	r0, #2
 2545 10da FFF7FEFF 		bl	idmanager_getMyID
 2546 10de 0246     		mov	r2, r0
 2547 10e0 3B6C     		ldr	r3, [r7, #64]
 2548 10e2 2E33     		adds	r3, r3, #46
 2549 10e4 2046     		mov	r0, r4
 2550 10e6 1146     		mov	r1, r2
 2551 10e8 1A46     		mov	r2, r3
 2552 10ea FFF7FEFF 		bl	packetfunctions_mac64bToIp128b
 924:build/OpenMote-CC2538_armgcc/openstack/03a-IPHC/iphc.c ****                  break;
 2553              		.loc 1 924 0
 2554 10ee 6FE0     		b	.L156
 2555              	.L161:
 925:build/OpenMote-CC2538_armgcc/openstack/03a-IPHC/iphc.c ****               case IPHC_DAM_16B:
 926:build/OpenMote-CC2538_armgcc/openstack/03a-IPHC/iphc.c ****                  packetfunctions_readAddress(((uint8_t*)(msg->payload+ipv6_header->header_length+pr
 2556              		.loc 1 926 0
 2557 10f0 FB6B     		ldr	r3, [r7, #60]
 2558 10f2 5A68     		ldr	r2, [r3, #4]
 2559 10f4 3B6C     		ldr	r3, [r7, #64]
 2560 10f6 93F83F30 		ldrb	r3, [r3, #63]	@ zero_extendqisi2
 2561 10fa 1946     		mov	r1, r3
 2562 10fc 97F84430 		ldrb	r3, [r7, #68]	@ zero_extendqisi2
 2563 1100 0B44     		add	r3, r3, r1
 2564 1102 1344     		add	r3, r3, r2
 2565 1104 1846     		mov	r0, r3
 2566 1106 0121     		movs	r1, #1
 2567 1108 FA68     		ldr	r2, [r7, #12]
 2568 110a 0023     		movs	r3, #0
 2569 110c FFF7FEFF 		bl	packetfunctions_readAddress
 927:build/OpenMote-CC2538_armgcc/openstack/03a-IPHC/iphc.c ****                  ipv6_header->header_length += 2*sizeof(uint8_t);
 2570              		.loc 1 927 0
 2571 1110 3B6C     		ldr	r3, [r7, #64]
 2572 1112 93F83F30 		ldrb	r3, [r3, #63]	@ zero_extendqisi2
 2573 1116 0233     		adds	r3, r3, #2
 2574 1118 DAB2     		uxtb	r2, r3
 2575 111a 3B6C     		ldr	r3, [r7, #64]
 2576 111c 83F83F20 		strb	r2, [r3, #63]
 928:build/OpenMote-CC2538_armgcc/openstack/03a-IPHC/iphc.c ****                  packetfunctions_mac16bToMac64b(temp_addr_16b,temp_addr_64b);
 2577              		.loc 1 928 0
 2578 1120 F868     		ldr	r0, [r7, #12]
 2579 1122 B968     		ldr	r1, [r7, #8]
 2580 1124 FFF7FEFF 		bl	packetfunctions_mac16bToMac64b
 929:build/OpenMote-CC2538_armgcc/openstack/03a-IPHC/iphc.c ****                  packetfunctions_mac64bToIp128b(idmanager_getMyID(ADDR_PREFIX),temp_addr_64b,&ipv6_
 2581              		.loc 1 929 0
 2582 1128 0520     		movs	r0, #5
 2583 112a FFF7FEFF 		bl	idmanager_getMyID
 2584 112e 0246     		mov	r2, r0
 2585 1130 3B6C     		ldr	r3, [r7, #64]
 2586 1132 2E33     		adds	r3, r3, #46
 2587 1134 1046     		mov	r0, r2
 2588 1136 B968     		ldr	r1, [r7, #8]
 2589 1138 1A46     		mov	r2, r3
 2590 113a FFF7FEFF 		bl	packetfunctions_mac64bToIp128b
 930:build/OpenMote-CC2538_armgcc/openstack/03a-IPHC/iphc.c ****                  break;
 2591              		.loc 1 930 0
 2592 113e 47E0     		b	.L156
 2593              	.L160:
 931:build/OpenMote-CC2538_armgcc/openstack/03a-IPHC/iphc.c ****               case IPHC_DAM_64B:
 932:build/OpenMote-CC2538_armgcc/openstack/03a-IPHC/iphc.c ****                  packetfunctions_readAddress(((uint8_t*)(msg->payload+ipv6_header->header_length+pr
 2594              		.loc 1 932 0
 2595 1140 FB6B     		ldr	r3, [r7, #60]
 2596 1142 5A68     		ldr	r2, [r3, #4]
 2597 1144 3B6C     		ldr	r3, [r7, #64]
 2598 1146 93F83F30 		ldrb	r3, [r3, #63]	@ zero_extendqisi2
 2599 114a 1946     		mov	r1, r3
 2600 114c 97F84430 		ldrb	r3, [r7, #68]	@ zero_extendqisi2
 2601 1150 0B44     		add	r3, r3, r1
 2602 1152 1344     		add	r3, r3, r2
 2603 1154 1846     		mov	r0, r3
 2604 1156 0221     		movs	r1, #2
 2605 1158 BA68     		ldr	r2, [r7, #8]
 2606 115a 0023     		movs	r3, #0
 2607 115c FFF7FEFF 		bl	packetfunctions_readAddress
 933:build/OpenMote-CC2538_armgcc/openstack/03a-IPHC/iphc.c ****                  ipv6_header->header_length += 8*sizeof(uint8_t);
 2608              		.loc 1 933 0
 2609 1160 3B6C     		ldr	r3, [r7, #64]
 2610 1162 93F83F30 		ldrb	r3, [r3, #63]	@ zero_extendqisi2
 2611 1166 0833     		adds	r3, r3, #8
 2612 1168 DAB2     		uxtb	r2, r3
 2613 116a 3B6C     		ldr	r3, [r7, #64]
 2614 116c 83F83F20 		strb	r2, [r3, #63]
 934:build/OpenMote-CC2538_armgcc/openstack/03a-IPHC/iphc.c ****                  packetfunctions_mac64bToIp128b(idmanager_getMyID(ADDR_PREFIX),temp_addr_64b,&ipv6_
 2615              		.loc 1 934 0
 2616 1170 0520     		movs	r0, #5
 2617 1172 FFF7FEFF 		bl	idmanager_getMyID
 2618 1176 0246     		mov	r2, r0
 2619 1178 3B6C     		ldr	r3, [r7, #64]
 2620 117a 2E33     		adds	r3, r3, #46
 2621 117c 1046     		mov	r0, r2
 2622 117e B968     		ldr	r1, [r7, #8]
 2623 1180 1A46     		mov	r2, r3
 2624 1182 FFF7FEFF 		bl	packetfunctions_mac64bToIp128b
 935:build/OpenMote-CC2538_armgcc/openstack/03a-IPHC/iphc.c ****                  break;
 2625              		.loc 1 935 0
 2626 1186 23E0     		b	.L156
 2627              	.L158:
 936:build/OpenMote-CC2538_armgcc/openstack/03a-IPHC/iphc.c ****               case IPHC_DAM_128B:
 937:build/OpenMote-CC2538_armgcc/openstack/03a-IPHC/iphc.c ****                  packetfunctions_readAddress(((uint8_t*)(msg->payload+ipv6_header->header_length+pr
 2628              		.loc 1 937 0
 2629 1188 FB6B     		ldr	r3, [r7, #60]
 2630 118a 5A68     		ldr	r2, [r3, #4]
 2631 118c 3B6C     		ldr	r3, [r7, #64]
 2632 118e 93F83F30 		ldrb	r3, [r3, #63]	@ zero_extendqisi2
 2633 1192 1946     		mov	r1, r3
 2634 1194 97F84430 		ldrb	r3, [r7, #68]	@ zero_extendqisi2
 2635 1198 0B44     		add	r3, r3, r1
 2636 119a 1A44     		add	r2, r2, r3
 2637 119c 3B6C     		ldr	r3, [r7, #64]
 2638 119e 2E33     		adds	r3, r3, #46
 2639 11a0 1046     		mov	r0, r2
 2640 11a2 0321     		movs	r1, #3
 2641 11a4 1A46     		mov	r2, r3
 2642 11a6 0023     		movs	r3, #0
 2643 11a8 FFF7FEFF 		bl	packetfunctions_readAddress
 938:build/OpenMote-CC2538_armgcc/openstack/03a-IPHC/iphc.c ****                  ipv6_header->header_length += 16*sizeof(uint8_t);
 2644              		.loc 1 938 0
 2645 11ac 3B6C     		ldr	r3, [r7, #64]
 2646 11ae 93F83F30 		ldrb	r3, [r3, #63]	@ zero_extendqisi2
 2647 11b2 1033     		adds	r3, r3, #16
 2648 11b4 DAB2     		uxtb	r2, r3
 2649 11b6 3B6C     		ldr	r3, [r7, #64]
 2650 11b8 83F83F20 		strb	r2, [r3, #63]
 939:build/OpenMote-CC2538_armgcc/openstack/03a-IPHC/iphc.c ****                  break;
 2651              		.loc 1 939 0
 2652 11bc 08E0     		b	.L156
 2653              	.L157:
 940:build/OpenMote-CC2538_armgcc/openstack/03a-IPHC/iphc.c ****               default:
 941:build/OpenMote-CC2538_armgcc/openstack/03a-IPHC/iphc.c ****                  openserial_printError(
 942:build/OpenMote-CC2538_armgcc/openstack/03a-IPHC/iphc.c ****                     COMPONENT_IPHC,
 943:build/OpenMote-CC2538_armgcc/openstack/03a-IPHC/iphc.c ****                     ERR_6LOWPAN_UNSUPPORTED,
 944:build/OpenMote-CC2538_armgcc/openstack/03a-IPHC/iphc.c ****                     (errorparameter_t)10,
 945:build/OpenMote-CC2538_armgcc/openstack/03a-IPHC/iphc.c ****                     (errorparameter_t)(*dam)
 2654              		.loc 1 945 0
 2655 11be BB6B     		ldr	r3, [r7, #56]
 2656 11c0 1B78     		ldrb	r3, [r3]	@ zero_extendqisi2
 941:build/OpenMote-CC2538_armgcc/openstack/03a-IPHC/iphc.c ****                     COMPONENT_IPHC,
 2657              		.loc 1 941 0
 2658 11c2 9BB2     		uxth	r3, r3
 2659 11c4 1120     		movs	r0, #17
 2660 11c6 0C21     		movs	r1, #12
 2661 11c8 0A22     		movs	r2, #10
 2662 11ca FFF7FEFF 		bl	openserial_printError
 946:build/OpenMote-CC2538_armgcc/openstack/03a-IPHC/iphc.c ****                  );
 947:build/OpenMote-CC2538_armgcc/openstack/03a-IPHC/iphc.c ****                  break;
 2663              		.loc 1 947 0
 2664 11ce 00BF     		nop
 2665              	.L156:
 894:build/OpenMote-CC2538_armgcc/openstack/03a-IPHC/iphc.c ****            switch (*dam) {
 2666              		.loc 1 894 0 discriminator 4
 2667 11d0 C0E0     		b	.L163
 2668              	.L122:
 948:build/OpenMote-CC2538_armgcc/openstack/03a-IPHC/iphc.c ****            }
 949:build/OpenMote-CC2538_armgcc/openstack/03a-IPHC/iphc.c ****        }
 950:build/OpenMote-CC2538_armgcc/openstack/03a-IPHC/iphc.c ****     } else {
 951:build/OpenMote-CC2538_armgcc/openstack/03a-IPHC/iphc.c ****         // we are in 6LoRH now
 952:build/OpenMote-CC2538_armgcc/openstack/03a-IPHC/iphc.c ****         if (page == 1){
 2669              		.loc 1 952 0
 2670 11d2 FB7D     		ldrb	r3, [r7, #23]	@ zero_extendqisi2
 2671 11d4 012B     		cmp	r3, #1
 2672 11d6 40F0BD80 		bne	.L163
 953:build/OpenMote-CC2538_armgcc/openstack/03a-IPHC/iphc.c ****             temp_8b = *(uint8_t*)(msg->payload+ipv6_header->header_length+previousLen);
 2673              		.loc 1 953 0
 2674 11da FB6B     		ldr	r3, [r7, #60]
 2675 11dc 5A68     		ldr	r2, [r3, #4]
 2676 11de 3B6C     		ldr	r3, [r7, #64]
 2677 11e0 93F83F30 		ldrb	r3, [r3, #63]	@ zero_extendqisi2
 2678 11e4 1946     		mov	r1, r3
 2679 11e6 97F84430 		ldrb	r3, [r7, #68]	@ zero_extendqisi2
 2680 11ea 0B44     		add	r3, r3, r1
 2681 11ec 1344     		add	r3, r3, r2
 2682 11ee 1B78     		ldrb	r3, [r3]
 2683 11f0 BB75     		strb	r3, [r7, #22]
 954:build/OpenMote-CC2538_armgcc/openstack/03a-IPHC/iphc.c ****             if ((temp_8b & FORMAT_6LORH_MASK) == ELECTIVE_6LoRH){
 2684              		.loc 1 954 0
 2685 11f2 BB7D     		ldrb	r3, [r7, #22]	@ zero_extendqisi2
 2686 11f4 03F0E003 		and	r3, r3, #224
 2687 11f8 A02B     		cmp	r3, #160
 2688 11fa 40F0AB80 		bne	.L163
 955:build/OpenMote-CC2538_armgcc/openstack/03a-IPHC/iphc.c ****                 // this is an elective 6LoRH
 956:build/OpenMote-CC2538_armgcc/openstack/03a-IPHC/iphc.c ****                 ipinip_length = temp_8b & IPINIP_LEN_6LORH_MASK;
 2689              		.loc 1 956 0
 2690 11fe BB7D     		ldrb	r3, [r7, #22]
 2691 1200 03F01F03 		and	r3, r3, #31
 2692 1204 7B75     		strb	r3, [r7, #21]
 957:build/OpenMote-CC2538_armgcc/openstack/03a-IPHC/iphc.c ****                 ipv6_header->header_length += 1;
 2693              		.loc 1 957 0
 2694 1206 3B6C     		ldr	r3, [r7, #64]
 2695 1208 93F83F30 		ldrb	r3, [r3, #63]	@ zero_extendqisi2
 2696 120c 0133     		adds	r3, r3, #1
 2697 120e DAB2     		uxtb	r2, r3
 2698 1210 3B6C     		ldr	r3, [r7, #64]
 2699 1212 83F83F20 		strb	r2, [r3, #63]
 958:build/OpenMote-CC2538_armgcc/openstack/03a-IPHC/iphc.c ****                 temp_8b = *(uint8_t*)(msg->payload+ipv6_header->header_length+previousLen);
 2700              		.loc 1 958 0
 2701 1216 FB6B     		ldr	r3, [r7, #60]
 2702 1218 5A68     		ldr	r2, [r3, #4]
 2703 121a 3B6C     		ldr	r3, [r7, #64]
 2704 121c 93F83F30 		ldrb	r3, [r3, #63]	@ zero_extendqisi2
 2705 1220 1946     		mov	r1, r3
 2706 1222 97F84430 		ldrb	r3, [r7, #68]	@ zero_extendqisi2
 2707 1226 0B44     		add	r3, r3, r1
 2708 1228 1344     		add	r3, r3, r2
 2709 122a 1B78     		ldrb	r3, [r3]
 2710 122c BB75     		strb	r3, [r7, #22]
 959:build/OpenMote-CC2538_armgcc/openstack/03a-IPHC/iphc.c ****                 if (temp_8b == IPINIP_TYPE_6LORH){
 2711              		.loc 1 959 0
 2712 122e BB7D     		ldrb	r3, [r7, #22]	@ zero_extendqisi2
 2713 1230 062B     		cmp	r3, #6
 2714 1232 40F08F80 		bne	.L163
 960:build/OpenMote-CC2538_armgcc/openstack/03a-IPHC/iphc.c ****                     // this is IpinIP 6LoRH
 961:build/OpenMote-CC2538_armgcc/openstack/03a-IPHC/iphc.c ****                     ipv6_header->header_length += 1;
 2715              		.loc 1 961 0
 2716 1236 3B6C     		ldr	r3, [r7, #64]
 2717 1238 93F83F30 		ldrb	r3, [r3, #63]	@ zero_extendqisi2
 2718 123c 0133     		adds	r3, r3, #1
 2719 123e DAB2     		uxtb	r2, r3
 2720 1240 3B6C     		ldr	r3, [r7, #64]
 2721 1242 83F83F20 		strb	r2, [r3, #63]
 962:build/OpenMote-CC2538_armgcc/openstack/03a-IPHC/iphc.c ****                     ipv6_header->hop_limit = *(uint8_t*)(msg->payload+ipv6_header->header_length+pr
 2722              		.loc 1 962 0
 2723 1246 FB6B     		ldr	r3, [r7, #60]
 2724 1248 5A68     		ldr	r2, [r3, #4]
 2725 124a 3B6C     		ldr	r3, [r7, #64]
 2726 124c 93F83F30 		ldrb	r3, [r3, #63]	@ zero_extendqisi2
 2727 1250 1946     		mov	r1, r3
 2728 1252 97F84430 		ldrb	r3, [r7, #68]	@ zero_extendqisi2
 2729 1256 0B44     		add	r3, r3, r1
 2730 1258 1344     		add	r3, r3, r2
 2731 125a 1A78     		ldrb	r2, [r3]	@ zero_extendqisi2
 2732 125c 3B6C     		ldr	r3, [r7, #64]
 2733 125e 1A77     		strb	r2, [r3, #28]
 963:build/OpenMote-CC2538_armgcc/openstack/03a-IPHC/iphc.c ****                     ipv6_header->header_length += 1;
 2734              		.loc 1 963 0
 2735 1260 3B6C     		ldr	r3, [r7, #64]
 2736 1262 93F83F30 		ldrb	r3, [r3, #63]	@ zero_extendqisi2
 2737 1266 0133     		adds	r3, r3, #1
 2738 1268 DAB2     		uxtb	r2, r3
 2739 126a 3B6C     		ldr	r3, [r7, #64]
 2740 126c 83F83F20 		strb	r2, [r3, #63]
 964:build/OpenMote-CC2538_armgcc/openstack/03a-IPHC/iphc.c ****                     // destination address maybe is the first address in RH3 6LoRH OR dest adress i
 965:build/OpenMote-CC2538_armgcc/openstack/03a-IPHC/iphc.c ****                     // update destination address if necessary after the processing
 966:build/OpenMote-CC2538_armgcc/openstack/03a-IPHC/iphc.c ****                     ipv6_header->dest.type = ADDR_NONE;
 2741              		.loc 1 966 0
 2742 1270 3B6C     		ldr	r3, [r7, #64]
 2743 1272 0022     		movs	r2, #0
 2744 1274 83F82E20 		strb	r2, [r3, #46]
 967:build/OpenMote-CC2538_armgcc/openstack/03a-IPHC/iphc.c ****                     memset(&(ipv6_header->dest.addr_128b[0]),0,16);
 2745              		.loc 1 967 0
 2746 1278 3B6C     		ldr	r3, [r7, #64]
 2747 127a 2F33     		adds	r3, r3, #47
 2748 127c 1846     		mov	r0, r3
 2749 127e 0021     		movs	r1, #0
 2750 1280 1022     		movs	r2, #16
 2751 1282 FFF7FEFF 		bl	memset
 968:build/OpenMote-CC2538_armgcc/openstack/03a-IPHC/iphc.c ****                     if (ipinip_length == 1){
 2752              		.loc 1 968 0
 2753 1286 7B7D     		ldrb	r3, [r7, #21]	@ zero_extendqisi2
 2754 1288 012B     		cmp	r3, #1
 2755 128a 14D1     		bne	.L165
 969:build/OpenMote-CC2538_armgcc/openstack/03a-IPHC/iphc.c ****                         // source address is root
 970:build/OpenMote-CC2538_armgcc/openstack/03a-IPHC/iphc.c ****                         memset(&(ipv6_header->src),0,sizeof(open_addr_t));
 2756              		.loc 1 970 0
 2757 128c 3B6C     		ldr	r3, [r7, #64]
 2758 128e 1D33     		adds	r3, r3, #29
 2759 1290 1846     		mov	r0, r3
 2760 1292 0021     		movs	r1, #0
 2761 1294 1122     		movs	r2, #17
 2762 1296 FFF7FEFF 		bl	memset
 971:build/OpenMote-CC2538_armgcc/openstack/03a-IPHC/iphc.c ****                         ipv6_header->src.type = ADDR_128B;
 2763              		.loc 1 971 0
 2764 129a 3B6C     		ldr	r3, [r7, #64]
 2765 129c 0322     		movs	r2, #3
 2766 129e 5A77     		strb	r2, [r3, #29]
 972:build/OpenMote-CC2538_armgcc/openstack/03a-IPHC/iphc.c ****                         ipv6_header->src.addr_128b[0]  = 0xbb;
 2767              		.loc 1 972 0
 2768 12a0 3B6C     		ldr	r3, [r7, #64]
 2769 12a2 BB22     		movs	r2, #187
 2770 12a4 9A77     		strb	r2, [r3, #30]
 973:build/OpenMote-CC2538_armgcc/openstack/03a-IPHC/iphc.c ****                         ipv6_header->src.addr_128b[1]  = 0xbb;
 2771              		.loc 1 973 0
 2772 12a6 3B6C     		ldr	r3, [r7, #64]
 2773 12a8 BB22     		movs	r2, #187
 2774 12aa DA77     		strb	r2, [r3, #31]
 974:build/OpenMote-CC2538_armgcc/openstack/03a-IPHC/iphc.c ****                         ipv6_header->src.addr_128b[15] = 0x01;
 2775              		.loc 1 974 0
 2776 12ac 3B6C     		ldr	r3, [r7, #64]
 2777 12ae 0122     		movs	r2, #1
 2778 12b0 83F82D20 		strb	r2, [r3, #45]
 2779 12b4 4EE0     		b	.L163
 2780              	.L165:
 975:build/OpenMote-CC2538_armgcc/openstack/03a-IPHC/iphc.c ****                         // destination address is the first address in RH3 6LoRH OR dest adress in 
 976:build/OpenMote-CC2538_armgcc/openstack/03a-IPHC/iphc.c ****                     } else{
 977:build/OpenMote-CC2538_armgcc/openstack/03a-IPHC/iphc.c ****                         switch(ipinip_length-1){
 2781              		.loc 1 977 0
 2782 12b6 7B7D     		ldrb	r3, [r7, #21]	@ zero_extendqisi2
 2783 12b8 013B     		subs	r3, r3, #1
 2784 12ba 082B     		cmp	r3, #8
 2785 12bc 1CD0     		beq	.L167
 2786 12be 102B     		cmp	r3, #16
 2787 12c0 3ED1     		bne	.L172
 978:build/OpenMote-CC2538_armgcc/openstack/03a-IPHC/iphc.c ****                         case 16:
 979:build/OpenMote-CC2538_armgcc/openstack/03a-IPHC/iphc.c ****                              // this is source address 
 980:build/OpenMote-CC2538_armgcc/openstack/03a-IPHC/iphc.c ****                              packetfunctions_readAddress(((uint8_t*)(msg->payload+ipv6_header->head
 2788              		.loc 1 980 0
 2789 12c2 FB6B     		ldr	r3, [r7, #60]
 2790 12c4 5A68     		ldr	r2, [r3, #4]
 2791 12c6 3B6C     		ldr	r3, [r7, #64]
 2792 12c8 93F83F30 		ldrb	r3, [r3, #63]	@ zero_extendqisi2
 2793 12cc 1946     		mov	r1, r3
 2794 12ce 97F84430 		ldrb	r3, [r7, #68]	@ zero_extendqisi2
 2795 12d2 0B44     		add	r3, r3, r1
 2796 12d4 1A44     		add	r2, r2, r3
 2797 12d6 3B6C     		ldr	r3, [r7, #64]
 2798 12d8 1D33     		adds	r3, r3, #29
 2799 12da 1046     		mov	r0, r2
 2800 12dc 0321     		movs	r1, #3
 2801 12de 1A46     		mov	r2, r3
 2802 12e0 0023     		movs	r3, #0
 2803 12e2 FFF7FEFF 		bl	packetfunctions_readAddress
 981:build/OpenMote-CC2538_armgcc/openstack/03a-IPHC/iphc.c ****                              ipv6_header->header_length += 16*sizeof(uint8_t);
 2804              		.loc 1 981 0
 2805 12e6 3B6C     		ldr	r3, [r7, #64]
 2806 12e8 93F83F30 		ldrb	r3, [r3, #63]	@ zero_extendqisi2
 2807 12ec 1033     		adds	r3, r3, #16
 2808 12ee DAB2     		uxtb	r2, r3
 2809 12f0 3B6C     		ldr	r3, [r7, #64]
 2810 12f2 83F83F20 		strb	r2, [r3, #63]
 982:build/OpenMote-CC2538_armgcc/openstack/03a-IPHC/iphc.c ****                              break;
 2811              		.loc 1 982 0
 2812 12f6 2DE0     		b	.L164
 2813              	.L167:
 983:build/OpenMote-CC2538_armgcc/openstack/03a-IPHC/iphc.c ****                         case 8:
 984:build/OpenMote-CC2538_armgcc/openstack/03a-IPHC/iphc.c ****                              // this is source address 
 985:build/OpenMote-CC2538_armgcc/openstack/03a-IPHC/iphc.c ****                              packetfunctions_readAddress(((uint8_t*)(msg->payload+ipv6_header->head
 2814              		.loc 1 985 0
 2815 12f8 FB6B     		ldr	r3, [r7, #60]
 2816 12fa 5A68     		ldr	r2, [r3, #4]
 2817 12fc 3B6C     		ldr	r3, [r7, #64]
 2818 12fe 93F83F30 		ldrb	r3, [r3, #63]	@ zero_extendqisi2
 2819 1302 1946     		mov	r1, r3
 2820 1304 97F84430 		ldrb	r3, [r7, #68]	@ zero_extendqisi2
 2821 1308 0B44     		add	r3, r3, r1
 2822 130a 1344     		add	r3, r3, r2
 2823 130c 1846     		mov	r0, r3
 2824 130e 0221     		movs	r1, #2
 2825 1310 BA68     		ldr	r2, [r7, #8]
 2826 1312 0023     		movs	r3, #0
 2827 1314 FFF7FEFF 		bl	packetfunctions_readAddress
 986:build/OpenMote-CC2538_armgcc/openstack/03a-IPHC/iphc.c ****                              ipv6_header->header_length += 8*sizeof(uint8_t);
 2828              		.loc 1 986 0
 2829 1318 3B6C     		ldr	r3, [r7, #64]
 2830 131a 93F83F30 		ldrb	r3, [r3, #63]	@ zero_extendqisi2
 2831 131e 0833     		adds	r3, r3, #8
 2832 1320 DAB2     		uxtb	r2, r3
 2833 1322 3B6C     		ldr	r3, [r7, #64]
 2834 1324 83F83F20 		strb	r2, [r3, #63]
 987:build/OpenMote-CC2538_armgcc/openstack/03a-IPHC/iphc.c ****                              packetfunctions_mac64bToIp128b(idmanager_getMyID(ADDR_PREFIX),temp_add
 2835              		.loc 1 987 0
 2836 1328 0520     		movs	r0, #5
 2837 132a FFF7FEFF 		bl	idmanager_getMyID
 2838 132e 0246     		mov	r2, r0
 2839 1330 3B6C     		ldr	r3, [r7, #64]
 2840 1332 1D33     		adds	r3, r3, #29
 2841 1334 1046     		mov	r0, r2
 2842 1336 B968     		ldr	r1, [r7, #8]
 2843 1338 1A46     		mov	r2, r3
 2844 133a FFF7FEFF 		bl	packetfunctions_mac64bToIp128b
 988:build/OpenMote-CC2538_armgcc/openstack/03a-IPHC/iphc.c ****                              break;
 2845              		.loc 1 988 0
 2846 133e 09E0     		b	.L164
 2847              	.L172:
 989:build/OpenMote-CC2538_armgcc/openstack/03a-IPHC/iphc.c ****                         default:
 990:build/OpenMote-CC2538_armgcc/openstack/03a-IPHC/iphc.c ****                              // do not support other length yet and destination address will be in 
 991:build/OpenMote-CC2538_armgcc/openstack/03a-IPHC/iphc.c ****                              openserial_printError(
 2848              		.loc 1 991 0
 2849 1340 7B7D     		ldrb	r3, [r7, #21]	@ zero_extendqisi2
 2850 1342 9BB2     		uxth	r3, r3
 2851 1344 013B     		subs	r3, r3, #1
 2852 1346 9BB2     		uxth	r3, r3
 2853 1348 1120     		movs	r0, #17
 2854 134a 0C21     		movs	r1, #12
 2855 134c 0C22     		movs	r2, #12
 2856 134e FFF7FEFF 		bl	openserial_printError
 2857 1352 FFE7     		b	.L163
 2858              	.L164:
 2859              	.L163:
 992:build/OpenMote-CC2538_armgcc/openstack/03a-IPHC/iphc.c ****                                 COMPONENT_IPHC,
 993:build/OpenMote-CC2538_armgcc/openstack/03a-IPHC/iphc.c ****                                 ERR_6LOWPAN_UNSUPPORTED,
 994:build/OpenMote-CC2538_armgcc/openstack/03a-IPHC/iphc.c ****                                 (errorparameter_t)12,
 995:build/OpenMote-CC2538_armgcc/openstack/03a-IPHC/iphc.c ****                                 (errorparameter_t)(ipinip_length-1)
 996:build/OpenMote-CC2538_armgcc/openstack/03a-IPHC/iphc.c ****                              );
 997:build/OpenMote-CC2538_armgcc/openstack/03a-IPHC/iphc.c ****                         }
 998:build/OpenMote-CC2538_armgcc/openstack/03a-IPHC/iphc.c ****                     }
 999:build/OpenMote-CC2538_armgcc/openstack/03a-IPHC/iphc.c ****                 }
1000:build/OpenMote-CC2538_armgcc/openstack/03a-IPHC/iphc.c **** 
1001:build/OpenMote-CC2538_armgcc/openstack/03a-IPHC/iphc.c ****             } else {
1002:build/OpenMote-CC2538_armgcc/openstack/03a-IPHC/iphc.c ****                 // ip in ip is elided: the followig is a critical 6lorh
1003:build/OpenMote-CC2538_armgcc/openstack/03a-IPHC/iphc.c ****                 // finish the ip header compression
1004:build/OpenMote-CC2538_armgcc/openstack/03a-IPHC/iphc.c ****             }
1005:build/OpenMote-CC2538_armgcc/openstack/03a-IPHC/iphc.c ****         }
1006:build/OpenMote-CC2538_armgcc/openstack/03a-IPHC/iphc.c ****     }
1007:build/OpenMote-CC2538_armgcc/openstack/03a-IPHC/iphc.c ****     return page;
 2860              		.loc 1 1007 0
 2861 1354 FB7D     		ldrb	r3, [r7, #23]	@ zero_extendqisi2
1008:build/OpenMote-CC2538_armgcc/openstack/03a-IPHC/iphc.c **** }
 2862              		.loc 1 1008 0
 2863 1356 1846     		mov	r0, r3
 2864 1358 1837     		adds	r7, r7, #24
 2865              		.cfi_def_cfa_offset 16
 2866 135a BD46     		mov	sp, r7
 2867              		.cfi_def_cfa_register 13
 2868              		@ sp needed
 2869 135c B0BD     		pop	{r4, r5, r7, pc}
 2870              	.L176:
 2871 135e 00BF     		.align	2
 2872              	.L175:
 2873 1360 30000000 		.word	all_routers_multicast
 2874              		.cfi_endproc
 2875              	.LFE7:
 2877              		.align	2
 2878              		.global	iphc_prependIPv6HopByHopHeader
 2879              		.thumb
 2880              		.thumb_func
 2882              	iphc_prependIPv6HopByHopHeader:
 2883              	.LFB8:
1009:build/OpenMote-CC2538_armgcc/openstack/03a-IPHC/iphc.c **** 
1010:build/OpenMote-CC2538_armgcc/openstack/03a-IPHC/iphc.c **** //===== IPv6 hop-by-hop header
1011:build/OpenMote-CC2538_armgcc/openstack/03a-IPHC/iphc.c **** 
1012:build/OpenMote-CC2538_armgcc/openstack/03a-IPHC/iphc.c **** /**
1013:build/OpenMote-CC2538_armgcc/openstack/03a-IPHC/iphc.c **** \brief Prepend an IPv6 hop-by-hop header to a message.
1014:build/OpenMote-CC2538_armgcc/openstack/03a-IPHC/iphc.c **** 
1015:build/OpenMote-CC2538_armgcc/openstack/03a-IPHC/iphc.c **** \note The field are written in reverse order.
1016:build/OpenMote-CC2538_armgcc/openstack/03a-IPHC/iphc.c **** 
1017:build/OpenMote-CC2538_armgcc/openstack/03a-IPHC/iphc.c **** \param[in,out] msg             The message to prepend the header to.
1018:build/OpenMote-CC2538_armgcc/openstack/03a-IPHC/iphc.c **** \param[in]     nextheader      The next header value to use.
1019:build/OpenMote-CC2538_armgcc/openstack/03a-IPHC/iphc.c **** \param[in]     nh              Whether the next header is inline or compressed.
1020:build/OpenMote-CC2538_armgcc/openstack/03a-IPHC/iphc.c **** \param[in]     rpl_option      The RPL option to include.
1021:build/OpenMote-CC2538_armgcc/openstack/03a-IPHC/iphc.c **** */
1022:build/OpenMote-CC2538_armgcc/openstack/03a-IPHC/iphc.c **** void iphc_prependIPv6HopByHopHeader(
1023:build/OpenMote-CC2538_armgcc/openstack/03a-IPHC/iphc.c ****       OpenQueueEntry_t* msg,
1024:build/OpenMote-CC2538_armgcc/openstack/03a-IPHC/iphc.c ****       uint8_t           nextheader,
1025:build/OpenMote-CC2538_armgcc/openstack/03a-IPHC/iphc.c ****       rpl_option_ht*    rpl_option
1026:build/OpenMote-CC2538_armgcc/openstack/03a-IPHC/iphc.c ****    ){
 2884              		.loc 1 1026 0
 2885              		.cfi_startproc
 2886              		@ args = 0, pretend = 0, frame = 24
 2887              		@ frame_needed = 1, uses_anonymous_args = 0
 2888 1364 80B5     		push	{r7, lr}
 2889              		.cfi_def_cfa_offset 8
 2890              		.cfi_offset 7, -8
 2891              		.cfi_offset 14, -4
 2892 1366 86B0     		sub	sp, sp, #24
 2893              		.cfi_def_cfa_offset 32
 2894 1368 00AF     		add	r7, sp, #0
 2895              		.cfi_def_cfa_register 7
 2896 136a F860     		str	r0, [r7, #12]
 2897 136c 0B46     		mov	r3, r1
 2898 136e 7A60     		str	r2, [r7, #4]
 2899 1370 FB72     		strb	r3, [r7, #11]
1027:build/OpenMote-CC2538_armgcc/openstack/03a-IPHC/iphc.c ****    uint8_t temp_8b;
1028:build/OpenMote-CC2538_armgcc/openstack/03a-IPHC/iphc.c ****    
1029:build/OpenMote-CC2538_armgcc/openstack/03a-IPHC/iphc.c ****    if ((rpl_option->flags & K_FLAG) == 0){
 2900              		.loc 1 1029 0
 2901 1372 7B68     		ldr	r3, [r7, #4]
 2902 1374 5B78     		ldrb	r3, [r3, #1]	@ zero_extendqisi2
 2903 1376 03F00103 		and	r3, r3, #1
 2904 137a 002B     		cmp	r3, #0
 2905 137c 17D1     		bne	.L178
1030:build/OpenMote-CC2538_armgcc/openstack/03a-IPHC/iphc.c ****       packetfunctions_reserveHeaderSize(msg,sizeof(uint16_t));
 2906              		.loc 1 1030 0
 2907 137e F868     		ldr	r0, [r7, #12]
 2908 1380 0221     		movs	r1, #2
 2909 1382 FFF7FEFF 		bl	packetfunctions_reserveHeaderSize
1031:build/OpenMote-CC2538_armgcc/openstack/03a-IPHC/iphc.c ****       msg->payload[0] = (uint8_t)((rpl_option->senderRank&0xFF00)>>8);
 2910              		.loc 1 1031 0
 2911 1386 FB68     		ldr	r3, [r7, #12]
 2912 1388 5B68     		ldr	r3, [r3, #4]
 2913 138a 7A68     		ldr	r2, [r7, #4]
 2914 138c B2F80320 		ldrh	r2, [r2, #3]	@ unaligned
 2915 1390 92B2     		uxth	r2, r2
 2916 1392 120A     		lsrs	r2, r2, #8
 2917 1394 92B2     		uxth	r2, r2
 2918 1396 D2B2     		uxtb	r2, r2
 2919 1398 1A70     		strb	r2, [r3]
1032:build/OpenMote-CC2538_armgcc/openstack/03a-IPHC/iphc.c ****       msg->payload[1] = (uint8_t)(rpl_option->senderRank&0x00FF);
 2920              		.loc 1 1032 0
 2921 139a FB68     		ldr	r3, [r7, #12]
 2922 139c 5B68     		ldr	r3, [r3, #4]
 2923 139e 0133     		adds	r3, r3, #1
 2924 13a0 7A68     		ldr	r2, [r7, #4]
 2925 13a2 B2F80320 		ldrh	r2, [r2, #3]	@ unaligned
 2926 13a6 92B2     		uxth	r2, r2
 2927 13a8 D2B2     		uxtb	r2, r2
 2928 13aa 1A70     		strb	r2, [r3]
 2929 13ac 0DE0     		b	.L179
 2930              	.L178:
1033:build/OpenMote-CC2538_armgcc/openstack/03a-IPHC/iphc.c ****    } else {
1034:build/OpenMote-CC2538_armgcc/openstack/03a-IPHC/iphc.c ****       packetfunctions_reserveHeaderSize(msg,sizeof(uint8_t));
 2931              		.loc 1 1034 0
 2932 13ae F868     		ldr	r0, [r7, #12]
 2933 13b0 0121     		movs	r1, #1
 2934 13b2 FFF7FEFF 		bl	packetfunctions_reserveHeaderSize
1035:build/OpenMote-CC2538_armgcc/openstack/03a-IPHC/iphc.c ****       *((uint8_t*)(msg->payload)) = (uint8_t)((rpl_option->senderRank&0xFF00)>>8);
 2935              		.loc 1 1035 0
 2936 13b6 FB68     		ldr	r3, [r7, #12]
 2937 13b8 5B68     		ldr	r3, [r3, #4]
 2938 13ba 7A68     		ldr	r2, [r7, #4]
 2939 13bc B2F80320 		ldrh	r2, [r2, #3]	@ unaligned
 2940 13c0 92B2     		uxth	r2, r2
 2941 13c2 120A     		lsrs	r2, r2, #8
 2942 13c4 92B2     		uxth	r2, r2
 2943 13c6 D2B2     		uxtb	r2, r2
 2944 13c8 1A70     		strb	r2, [r3]
 2945              	.L179:
1036:build/OpenMote-CC2538_armgcc/openstack/03a-IPHC/iphc.c ****    }
1037:build/OpenMote-CC2538_armgcc/openstack/03a-IPHC/iphc.c ****    
1038:build/OpenMote-CC2538_armgcc/openstack/03a-IPHC/iphc.c ****    if ((rpl_option->flags & I_FLAG) == 0){
 2946              		.loc 1 1038 0
 2947 13ca 7B68     		ldr	r3, [r7, #4]
 2948 13cc 5B78     		ldrb	r3, [r3, #1]	@ zero_extendqisi2
 2949 13ce 03F00203 		and	r3, r3, #2
 2950 13d2 002B     		cmp	r3, #0
 2951 13d4 08D1     		bne	.L180
1039:build/OpenMote-CC2538_armgcc/openstack/03a-IPHC/iphc.c ****       packetfunctions_reserveHeaderSize(msg,sizeof(uint8_t));
 2952              		.loc 1 1039 0
 2953 13d6 F868     		ldr	r0, [r7, #12]
 2954 13d8 0121     		movs	r1, #1
 2955 13da FFF7FEFF 		bl	packetfunctions_reserveHeaderSize
1040:build/OpenMote-CC2538_armgcc/openstack/03a-IPHC/iphc.c ****       *((uint8_t*)(msg->payload)) = rpl_option->rplInstanceID;  
 2956              		.loc 1 1040 0
 2957 13de FB68     		ldr	r3, [r7, #12]
 2958 13e0 5B68     		ldr	r3, [r3, #4]
 2959 13e2 7A68     		ldr	r2, [r7, #4]
 2960 13e4 9278     		ldrb	r2, [r2, #2]	@ zero_extendqisi2
 2961 13e6 1A70     		strb	r2, [r3]
 2962              	.L180:
1041:build/OpenMote-CC2538_armgcc/openstack/03a-IPHC/iphc.c ****    }
1042:build/OpenMote-CC2538_armgcc/openstack/03a-IPHC/iphc.c ****    
1043:build/OpenMote-CC2538_armgcc/openstack/03a-IPHC/iphc.c ****    packetfunctions_reserveHeaderSize(msg,sizeof(uint8_t));
 2963              		.loc 1 1043 0
 2964 13e8 F868     		ldr	r0, [r7, #12]
 2965 13ea 0121     		movs	r1, #1
 2966 13ec FFF7FEFF 		bl	packetfunctions_reserveHeaderSize
1044:build/OpenMote-CC2538_armgcc/openstack/03a-IPHC/iphc.c ****    *((uint8_t*)(msg->payload)) = RPI_6LOTH_TYPE;
 2967              		.loc 1 1044 0
 2968 13f0 FB68     		ldr	r3, [r7, #12]
 2969 13f2 5B68     		ldr	r3, [r3, #4]
 2970 13f4 0522     		movs	r2, #5
 2971 13f6 1A70     		strb	r2, [r3]
1045:build/OpenMote-CC2538_armgcc/openstack/03a-IPHC/iphc.c ****        
1046:build/OpenMote-CC2538_armgcc/openstack/03a-IPHC/iphc.c ****    temp_8b = CRITICAL_6LORH | rpl_option->flags; 
 2972              		.loc 1 1046 0
 2973 13f8 7B68     		ldr	r3, [r7, #4]
 2974 13fa 5B78     		ldrb	r3, [r3, #1]	@ zero_extendqisi2
 2975 13fc 63F07F03 		orn	r3, r3, #127
 2976 1400 FB75     		strb	r3, [r7, #23]
1047:build/OpenMote-CC2538_armgcc/openstack/03a-IPHC/iphc.c ****    packetfunctions_reserveHeaderSize(msg,sizeof(uint8_t));
 2977              		.loc 1 1047 0
 2978 1402 F868     		ldr	r0, [r7, #12]
 2979 1404 0121     		movs	r1, #1
 2980 1406 FFF7FEFF 		bl	packetfunctions_reserveHeaderSize
1048:build/OpenMote-CC2538_armgcc/openstack/03a-IPHC/iphc.c ****    *((uint8_t*)(msg->payload)) = temp_8b;
 2981              		.loc 1 1048 0
 2982 140a FB68     		ldr	r3, [r7, #12]
 2983 140c 5B68     		ldr	r3, [r3, #4]
 2984 140e FA7D     		ldrb	r2, [r7, #23]
 2985 1410 1A70     		strb	r2, [r3]
1049:build/OpenMote-CC2538_armgcc/openstack/03a-IPHC/iphc.c **** }
 2986              		.loc 1 1049 0
 2987 1412 1837     		adds	r7, r7, #24
 2988              		.cfi_def_cfa_offset 8
 2989 1414 BD46     		mov	sp, r7
 2990              		.cfi_def_cfa_register 13
 2991              		@ sp needed
 2992 1416 80BD     		pop	{r7, pc}
 2993              		.cfi_endproc
 2994              	.LFE8:
 2996              		.align	2
 2997              		.global	iphc_retrieveIPv6HopByHopHeader
 2998              		.thumb
 2999              		.thumb_func
 3001              	iphc_retrieveIPv6HopByHopHeader:
 3002              	.LFB9:
1050:build/OpenMote-CC2538_armgcc/openstack/03a-IPHC/iphc.c **** 
1051:build/OpenMote-CC2538_armgcc/openstack/03a-IPHC/iphc.c **** /**
1052:build/OpenMote-CC2538_armgcc/openstack/03a-IPHC/iphc.c **** \brief Retrieve an IPv6 hop-by-hop header from a message.
1053:build/OpenMote-CC2538_armgcc/openstack/03a-IPHC/iphc.c **** 
1054:build/OpenMote-CC2538_armgcc/openstack/03a-IPHC/iphc.c **** \param[in,out] msg             The message to retrieve the header from.
1055:build/OpenMote-CC2538_armgcc/openstack/03a-IPHC/iphc.c **** \param[out]    hopbyhop_header Pointer to the structure to hold the retrieved
1056:build/OpenMote-CC2538_armgcc/openstack/03a-IPHC/iphc.c ****    hop-by-hop option.
1057:build/OpenMote-CC2538_armgcc/openstack/03a-IPHC/iphc.c **** \param[out]    rpl_option      Pointer to the structure to hold the retrieved
1058:build/OpenMote-CC2538_armgcc/openstack/03a-IPHC/iphc.c ****    RPL option.
1059:build/OpenMote-CC2538_armgcc/openstack/03a-IPHC/iphc.c **** */
1060:build/OpenMote-CC2538_armgcc/openstack/03a-IPHC/iphc.c **** uint8_t iphc_retrieveIPv6HopByHopHeader(
1061:build/OpenMote-CC2538_armgcc/openstack/03a-IPHC/iphc.c ****       OpenQueueEntry_t*      msg,
1062:build/OpenMote-CC2538_armgcc/openstack/03a-IPHC/iphc.c ****       rpl_option_ht*         rpl_option
1063:build/OpenMote-CC2538_armgcc/openstack/03a-IPHC/iphc.c ****    ){
 3003              		.loc 1 1063 0
 3004              		.cfi_startproc
 3005              		@ args = 0, pretend = 0, frame = 16
 3006              		@ frame_needed = 1, uses_anonymous_args = 0
 3007 1418 80B5     		push	{r7, lr}
 3008              		.cfi_def_cfa_offset 8
 3009              		.cfi_offset 7, -8
 3010              		.cfi_offset 14, -4
 3011 141a 84B0     		sub	sp, sp, #16
 3012              		.cfi_def_cfa_offset 24
 3013 141c 00AF     		add	r7, sp, #0
 3014              		.cfi_def_cfa_register 7
 3015 141e 7860     		str	r0, [r7, #4]
 3016 1420 3960     		str	r1, [r7]
1064:build/OpenMote-CC2538_armgcc/openstack/03a-IPHC/iphc.c ****    uint8_t temp_8b;
1065:build/OpenMote-CC2538_armgcc/openstack/03a-IPHC/iphc.c ****    uint8_t type;
1066:build/OpenMote-CC2538_armgcc/openstack/03a-IPHC/iphc.c ****    uint8_t length;
1067:build/OpenMote-CC2538_armgcc/openstack/03a-IPHC/iphc.c ****    
1068:build/OpenMote-CC2538_armgcc/openstack/03a-IPHC/iphc.c ****    // initialize the header length (will increment at each field)
1069:build/OpenMote-CC2538_armgcc/openstack/03a-IPHC/iphc.c ****    length = 0;
 3017              		.loc 1 1069 0
 3018 1422 0023     		movs	r3, #0
 3019 1424 FB73     		strb	r3, [r7, #15]
1070:build/OpenMote-CC2538_armgcc/openstack/03a-IPHC/iphc.c ****    
1071:build/OpenMote-CC2538_armgcc/openstack/03a-IPHC/iphc.c ****    temp_8b = *((uint8_t*)(msg->payload)+length);
 3020              		.loc 1 1071 0
 3021 1426 7B68     		ldr	r3, [r7, #4]
 3022 1428 5A68     		ldr	r2, [r3, #4]
 3023 142a FB7B     		ldrb	r3, [r7, #15]	@ zero_extendqisi2
 3024 142c 1344     		add	r3, r3, r2
 3025 142e 1B78     		ldrb	r3, [r3]
 3026 1430 BB73     		strb	r3, [r7, #14]
1072:build/OpenMote-CC2538_armgcc/openstack/03a-IPHC/iphc.c ****    type    = *((uint8_t*)(msg->payload)+length+1);
 3027              		.loc 1 1072 0
 3028 1432 7B68     		ldr	r3, [r7, #4]
 3029 1434 5A68     		ldr	r2, [r3, #4]
 3030 1436 FB7B     		ldrb	r3, [r7, #15]	@ zero_extendqisi2
 3031 1438 0133     		adds	r3, r3, #1
 3032 143a 1344     		add	r3, r3, r2
 3033 143c 1B78     		ldrb	r3, [r3]
 3034 143e 7B73     		strb	r3, [r7, #13]
1073:build/OpenMote-CC2538_armgcc/openstack/03a-IPHC/iphc.c ****    
1074:build/OpenMote-CC2538_armgcc/openstack/03a-IPHC/iphc.c ****    if (
1075:build/OpenMote-CC2538_armgcc/openstack/03a-IPHC/iphc.c ****        (temp_8b & FORMAT_6LORH_MASK) == CRITICAL_6LORH &&
 3035              		.loc 1 1075 0
 3036 1440 BB7B     		ldrb	r3, [r7, #14]	@ zero_extendqisi2
 3037 1442 03F0E003 		and	r3, r3, #224
1074:build/OpenMote-CC2538_armgcc/openstack/03a-IPHC/iphc.c ****        (temp_8b & FORMAT_6LORH_MASK) == CRITICAL_6LORH &&
 3038              		.loc 1 1074 0
 3039 1446 802B     		cmp	r3, #128
 3040 1448 58D1     		bne	.L182
 3041              		.loc 1 1075 0
 3042 144a 7B7B     		ldrb	r3, [r7, #13]	@ zero_extendqisi2
 3043 144c 052B     		cmp	r3, #5
 3044 144e 55D1     		bne	.L182
1076:build/OpenMote-CC2538_armgcc/openstack/03a-IPHC/iphc.c ****        type == RPI_6LOTH_TYPE
1077:build/OpenMote-CC2538_armgcc/openstack/03a-IPHC/iphc.c ****    ){
1078:build/OpenMote-CC2538_armgcc/openstack/03a-IPHC/iphc.c ****        // this is 6LoRH RPI, move pointer to compressed field
1079:build/OpenMote-CC2538_armgcc/openstack/03a-IPHC/iphc.c ****        length += sizeof(uint16_t);
 3045              		.loc 1 1079 0
 3046 1450 FB7B     		ldrb	r3, [r7, #15]
 3047 1452 0233     		adds	r3, r3, #2
 3048 1454 FB73     		strb	r3, [r7, #15]
1080:build/OpenMote-CC2538_armgcc/openstack/03a-IPHC/iphc.c ****        // get the O, R, F I and K value
1081:build/OpenMote-CC2538_armgcc/openstack/03a-IPHC/iphc.c ****        rpl_option->flags = (uint8_t)(temp_8b & FLAG_MASK);
 3049              		.loc 1 1081 0
 3050 1456 BB7B     		ldrb	r3, [r7, #14]
 3051 1458 03F01F03 		and	r3, r3, #31
 3052 145c DAB2     		uxtb	r2, r3
 3053 145e 3B68     		ldr	r3, [r7]
 3054 1460 5A70     		strb	r2, [r3, #1]
1082:build/OpenMote-CC2538_armgcc/openstack/03a-IPHC/iphc.c ****        // check FLAG I to get rplinstance ID
1083:build/OpenMote-CC2538_armgcc/openstack/03a-IPHC/iphc.c ****        if ((temp_8b & I_FLAG)==0){
 3055              		.loc 1 1083 0
 3056 1462 BB7B     		ldrb	r3, [r7, #14]	@ zero_extendqisi2
 3057 1464 03F00203 		and	r3, r3, #2
 3058 1468 002B     		cmp	r3, #0
 3059 146a 0AD1     		bne	.L183
1084:build/OpenMote-CC2538_armgcc/openstack/03a-IPHC/iphc.c ****            rpl_option->rplInstanceID = *((uint8_t*)(msg->payload)+length);
 3060              		.loc 1 1084 0
 3061 146c 7B68     		ldr	r3, [r7, #4]
 3062 146e 5A68     		ldr	r2, [r3, #4]
 3063 1470 FB7B     		ldrb	r3, [r7, #15]	@ zero_extendqisi2
 3064 1472 1344     		add	r3, r3, r2
 3065 1474 1A78     		ldrb	r2, [r3]	@ zero_extendqisi2
 3066 1476 3B68     		ldr	r3, [r7]
 3067 1478 9A70     		strb	r2, [r3, #2]
1085:build/OpenMote-CC2538_armgcc/openstack/03a-IPHC/iphc.c ****            length += sizeof(uint8_t);
 3068              		.loc 1 1085 0
 3069 147a FB7B     		ldrb	r3, [r7, #15]
 3070 147c 0133     		adds	r3, r3, #1
 3071 147e FB73     		strb	r3, [r7, #15]
 3072 1480 02E0     		b	.L184
 3073              	.L183:
1086:build/OpenMote-CC2538_armgcc/openstack/03a-IPHC/iphc.c ****        } else {
1087:build/OpenMote-CC2538_armgcc/openstack/03a-IPHC/iphc.c ****            // Global RPLInstanceID
1088:build/OpenMote-CC2538_armgcc/openstack/03a-IPHC/iphc.c ****            rpl_option->rplInstanceID = 0;
 3074              		.loc 1 1088 0
 3075 1482 3B68     		ldr	r3, [r7]
 3076 1484 0022     		movs	r2, #0
 3077 1486 9A70     		strb	r2, [r3, #2]
 3078              	.L184:
1089:build/OpenMote-CC2538_armgcc/openstack/03a-IPHC/iphc.c ****        }
1090:build/OpenMote-CC2538_armgcc/openstack/03a-IPHC/iphc.c ****        // check FLAG K to get senderRannk
1091:build/OpenMote-CC2538_armgcc/openstack/03a-IPHC/iphc.c ****        if ((temp_8b & K_FLAG)==0){
 3079              		.loc 1 1091 0
 3080 1488 BB7B     		ldrb	r3, [r7, #14]	@ zero_extendqisi2
 3081 148a 03F00103 		and	r3, r3, #1
 3082 148e 002B     		cmp	r3, #0
 3083 1490 1ED1     		bne	.L185
1092:build/OpenMote-CC2538_armgcc/openstack/03a-IPHC/iphc.c ****            rpl_option->senderRank = *((uint8_t*)(msg->payload)+length);
 3084              		.loc 1 1092 0
 3085 1492 7B68     		ldr	r3, [r7, #4]
 3086 1494 5A68     		ldr	r2, [r3, #4]
 3087 1496 FB7B     		ldrb	r3, [r7, #15]	@ zero_extendqisi2
 3088 1498 1344     		add	r3, r3, r2
 3089 149a 1B78     		ldrb	r3, [r3]	@ zero_extendqisi2
 3090 149c 9AB2     		uxth	r2, r3
 3091 149e 3B68     		ldr	r3, [r7]
 3092 14a0 A3F80320 		strh	r2, [r3, #3]	@ unaligned
1093:build/OpenMote-CC2538_armgcc/openstack/03a-IPHC/iphc.c ****            rpl_option->senderRank = ((rpl_option->senderRank)<<8)+*((uint8_t*)(msg->payload)+length
 3093              		.loc 1 1093 0
 3094 14a4 3B68     		ldr	r3, [r7]
 3095 14a6 B3F80330 		ldrh	r3, [r3, #3]	@ unaligned
 3096 14aa 9BB2     		uxth	r3, r3
 3097 14ac 1B02     		lsls	r3, r3, #8
 3098 14ae 9AB2     		uxth	r2, r3
 3099 14b0 7B68     		ldr	r3, [r7, #4]
 3100 14b2 5968     		ldr	r1, [r3, #4]
 3101 14b4 FB7B     		ldrb	r3, [r7, #15]	@ zero_extendqisi2
 3102 14b6 0133     		adds	r3, r3, #1
 3103 14b8 0B44     		add	r3, r3, r1
 3104 14ba 1B78     		ldrb	r3, [r3]	@ zero_extendqisi2
 3105 14bc 9BB2     		uxth	r3, r3
 3106 14be 1344     		add	r3, r3, r2
 3107 14c0 9AB2     		uxth	r2, r3
 3108 14c2 3B68     		ldr	r3, [r7]
 3109 14c4 A3F80320 		strh	r2, [r3, #3]	@ unaligned
1094:build/OpenMote-CC2538_armgcc/openstack/03a-IPHC/iphc.c ****            length += sizeof(uint16_t);
 3110              		.loc 1 1094 0
 3111 14c8 FB7B     		ldrb	r3, [r7, #15]
 3112 14ca 0233     		adds	r3, r3, #2
 3113 14cc FB73     		strb	r3, [r7, #15]
1091:build/OpenMote-CC2538_armgcc/openstack/03a-IPHC/iphc.c ****            rpl_option->senderRank = *((uint8_t*)(msg->payload)+length);
 3114              		.loc 1 1091 0
 3115 14ce 1CE0     		b	.L187
 3116              	.L185:
1095:build/OpenMote-CC2538_armgcc/openstack/03a-IPHC/iphc.c ****        } else{
1096:build/OpenMote-CC2538_armgcc/openstack/03a-IPHC/iphc.c ****            rpl_option->senderRank = *((uint8_t*)(msg->payload)+length);
 3117              		.loc 1 1096 0
 3118 14d0 7B68     		ldr	r3, [r7, #4]
 3119 14d2 5A68     		ldr	r2, [r3, #4]
 3120 14d4 FB7B     		ldrb	r3, [r7, #15]	@ zero_extendqisi2
 3121 14d6 1344     		add	r3, r3, r2
 3122 14d8 1B78     		ldrb	r3, [r3]	@ zero_extendqisi2
 3123 14da 9AB2     		uxth	r2, r3
 3124 14dc 3B68     		ldr	r3, [r7]
 3125 14de A3F80320 		strh	r2, [r3, #3]	@ unaligned
1097:build/OpenMote-CC2538_armgcc/openstack/03a-IPHC/iphc.c ****            rpl_option->senderRank = rpl_option->senderRank*256;
 3126              		.loc 1 1097 0
 3127 14e2 3B68     		ldr	r3, [r7]
 3128 14e4 B3F80330 		ldrh	r3, [r3, #3]	@ unaligned
 3129 14e8 9BB2     		uxth	r3, r3
 3130 14ea 1B02     		lsls	r3, r3, #8
 3131 14ec 9AB2     		uxth	r2, r3
 3132 14ee 3B68     		ldr	r3, [r7]
 3133 14f0 A3F80320 		strh	r2, [r3, #3]	@ unaligned
1098:build/OpenMote-CC2538_armgcc/openstack/03a-IPHC/iphc.c ****            length  += sizeof(uint8_t);
 3134              		.loc 1 1098 0
 3135 14f4 FB7B     		ldrb	r3, [r7, #15]
 3136 14f6 0133     		adds	r3, r3, #1
 3137 14f8 FB73     		strb	r3, [r7, #15]
1091:build/OpenMote-CC2538_armgcc/openstack/03a-IPHC/iphc.c ****            rpl_option->senderRank = *((uint8_t*)(msg->payload)+length);
 3138              		.loc 1 1091 0
 3139 14fa 06E0     		b	.L187
 3140              	.L182:
1099:build/OpenMote-CC2538_armgcc/openstack/03a-IPHC/iphc.c ****        }
1100:build/OpenMote-CC2538_armgcc/openstack/03a-IPHC/iphc.c ****    } else {
1101:build/OpenMote-CC2538_armgcc/openstack/03a-IPHC/iphc.c ****        openserial_printError(
 3141              		.loc 1 1101 0
 3142 14fc 7B7B     		ldrb	r3, [r7, #13]	@ zero_extendqisi2
 3143 14fe 9BB2     		uxth	r3, r3
 3144 1500 1120     		movs	r0, #17
 3145 1502 0C21     		movs	r1, #12
 3146 1504 0E22     		movs	r2, #14
 3147 1506 FFF7FEFF 		bl	openserial_printError
 3148              	.L187:
1102:build/OpenMote-CC2538_armgcc/openstack/03a-IPHC/iphc.c ****           COMPONENT_IPHC,
1103:build/OpenMote-CC2538_armgcc/openstack/03a-IPHC/iphc.c ****           ERR_6LOWPAN_UNSUPPORTED,
1104:build/OpenMote-CC2538_armgcc/openstack/03a-IPHC/iphc.c ****           (errorparameter_t)14,
1105:build/OpenMote-CC2538_armgcc/openstack/03a-IPHC/iphc.c ****           (errorparameter_t)type
1106:build/OpenMote-CC2538_armgcc/openstack/03a-IPHC/iphc.c ****        );
1107:build/OpenMote-CC2538_armgcc/openstack/03a-IPHC/iphc.c ****    }
1108:build/OpenMote-CC2538_armgcc/openstack/03a-IPHC/iphc.c ****    return length;
 3149              		.loc 1 1108 0
 3150 150a FB7B     		ldrb	r3, [r7, #15]	@ zero_extendqisi2
1109:build/OpenMote-CC2538_armgcc/openstack/03a-IPHC/iphc.c **** }
 3151              		.loc 1 1109 0
 3152 150c 1846     		mov	r0, r3
 3153 150e 1037     		adds	r7, r7, #16
 3154              		.cfi_def_cfa_offset 8
 3155 1510 BD46     		mov	sp, r7
 3156              		.cfi_def_cfa_register 13
 3157              		@ sp needed
 3158 1512 80BD     		pop	{r7, pc}
 3159              		.cfi_endproc
 3160              	.LFE9:
 3162              	.Letext0:
 3163              		.file 2 "/usr/arm-none-eabi/include/machine/_default_types.h"
 3164              		.file 3 "/usr/arm-none-eabi/include/sys/_stdint.h"
 3165              		.file 4 "inc/opendefs.h"
 3166              		.file 5 "build/OpenMote-CC2538_armgcc/openstack/03a-IPHC/iphc.h"
 3167              		.file 6 "openstack/03b-IPv6/forwarding.h"
 3168              		.file 7 "bsp/boards/OpenMote-CC2538/board_info.h"
 3169              		.file 8 "openstack/03b-IPv6/icmpv6rpl.h"