   1              		.syntax unified
   2              		.cpu cortex-m3
   3              		.fpu softvfp
   4              		.eabi_attribute 20, 1
   5              		.eabi_attribute 21, 1
   6              		.eabi_attribute 23, 3
   7              		.eabi_attribute 24, 1
   8              		.eabi_attribute 25, 1
   9              		.eabi_attribute 26, 1
  10              		.eabi_attribute 30, 6
  11              		.eabi_attribute 34, 1
  12              		.eabi_attribute 18, 4
  13              		.thumb
  14              		.file	"uecho.c"
  15              		.text
  16              	.Ltext0:
  17              		.cfi_sections	.debug_frame
  18              		.section	.rodata
  19              		.align	2
  22              	rreg_uriquery:
  23 0000 683D7563 		.ascii	"h=ucb\000"
  23      6200
  24 0006 0000     		.align	2
  27              	infoBoardname:
  28 0008 43433235 		.ascii	"CC2538\000"
  28      333800
  29 000f 00       		.align	2
  32              	infouCName:
  33 0010 43433235 		.ascii	"CC2538\000"
  33      333800
  34 0017 00       		.align	2
  37              	infoRadioName:
  38 0018 43433235 		.ascii	"CC2538 SoC\000"
  38      33382053 
  38      6F4300
  39 0023 00       		.align	2
  42              	infoStackName:
  43 0024 4F70656E 		.ascii	"OpenWSN \000"
  43      57534E20 
  43      00
  44              		.text
  45              		.align	2
  46              		.global	uecho_init
  47              		.thumb
  48              		.thumb_func
  50              	uecho_init:
  51              	.LFB0:
  52              		.file 1 "build/OpenMote-CC2538_armgcc/openapps/uecho/uecho.c"
   1:build/OpenMote-CC2538_armgcc/openapps/uecho/uecho.c **** #include "opendefs.h"
   2:build/OpenMote-CC2538_armgcc/openapps/uecho/uecho.c **** #include "uecho.h"
   3:build/OpenMote-CC2538_armgcc/openapps/uecho/uecho.c **** #include "openudp.h"
   4:build/OpenMote-CC2538_armgcc/openapps/uecho/uecho.c **** #include "openqueue.h"
   5:build/OpenMote-CC2538_armgcc/openapps/uecho/uecho.c **** #include "openserial.h"
   6:build/OpenMote-CC2538_armgcc/openapps/uecho/uecho.c **** #include "packetfunctions.h"
   7:build/OpenMote-CC2538_armgcc/openapps/uecho/uecho.c **** 
   8:build/OpenMote-CC2538_armgcc/openapps/uecho/uecho.c **** //=========================== variables =======================================
   9:build/OpenMote-CC2538_armgcc/openapps/uecho/uecho.c **** 
  10:build/OpenMote-CC2538_armgcc/openapps/uecho/uecho.c **** //=========================== prototypes ======================================
  11:build/OpenMote-CC2538_armgcc/openapps/uecho/uecho.c **** 
  12:build/OpenMote-CC2538_armgcc/openapps/uecho/uecho.c **** //=========================== public ==========================================
  13:build/OpenMote-CC2538_armgcc/openapps/uecho/uecho.c **** 
  14:build/OpenMote-CC2538_armgcc/openapps/uecho/uecho.c **** void uecho_init() {
  53              		.loc 1 14 0
  54              		.cfi_startproc
  55              		@ args = 0, pretend = 0, frame = 0
  56              		@ frame_needed = 1, uses_anonymous_args = 0
  57              		@ link register save eliminated.
  58 0000 80B4     		push	{r7}
  59              		.cfi_def_cfa_offset 4
  60              		.cfi_offset 7, -4
  61 0002 00AF     		add	r7, sp, #0
  62              		.cfi_def_cfa_register 7
  15:build/OpenMote-CC2538_armgcc/openapps/uecho/uecho.c **** }
  63              		.loc 1 15 0
  64 0004 BD46     		mov	sp, r7
  65              		.cfi_def_cfa_register 13
  66              		@ sp needed
  67 0006 5DF8047B 		ldr	r7, [sp], #4
  68              		.cfi_restore 7
  69              		.cfi_def_cfa_offset 0
  70 000a 7047     		bx	lr
  71              		.cfi_endproc
  72              	.LFE0:
  74              		.align	2
  75              		.global	uecho_receive
  76              		.thumb
  77              		.thumb_func
  79              	uecho_receive:
  80              	.LFB1:
  16:build/OpenMote-CC2538_armgcc/openapps/uecho/uecho.c **** 
  17:build/OpenMote-CC2538_armgcc/openapps/uecho/uecho.c **** void uecho_receive(OpenQueueEntry_t* request) {
  81              		.loc 1 17 0
  82              		.cfi_startproc
  83              		@ args = 0, pretend = 0, frame = 16
  84              		@ frame_needed = 1, uses_anonymous_args = 0
  85 000c 80B5     		push	{r7, lr}
  86              		.cfi_def_cfa_offset 8
  87              		.cfi_offset 7, -8
  88              		.cfi_offset 14, -4
  89 000e 84B0     		sub	sp, sp, #16
  90              		.cfi_def_cfa_offset 24
  91 0010 00AF     		add	r7, sp, #0
  92              		.cfi_def_cfa_register 7
  93 0012 7860     		str	r0, [r7, #4]
  18:build/OpenMote-CC2538_armgcc/openapps/uecho/uecho.c ****    uint16_t          temp_l4_destination_port;
  19:build/OpenMote-CC2538_armgcc/openapps/uecho/uecho.c ****    OpenQueueEntry_t* reply;
  20:build/OpenMote-CC2538_armgcc/openapps/uecho/uecho.c ****    
  21:build/OpenMote-CC2538_armgcc/openapps/uecho/uecho.c ****    reply = openqueue_getFreePacketBuffer(COMPONENT_UECHO);
  94              		.loc 1 21 0
  95 0014 2320     		movs	r0, #35
  96 0016 FFF7FEFF 		bl	openqueue_getFreePacketBuffer
  97 001a F860     		str	r0, [r7, #12]
  22:build/OpenMote-CC2538_armgcc/openapps/uecho/uecho.c ****    if (reply==NULL) {
  98              		.loc 1 22 0
  99 001c FB68     		ldr	r3, [r7, #12]
 100 001e 002B     		cmp	r3, #0
 101 0020 09D1     		bne	.L3
  23:build/OpenMote-CC2538_armgcc/openapps/uecho/uecho.c ****       openserial_printError(
 102              		.loc 1 23 0
 103 0022 2320     		movs	r0, #35
 104 0024 2C21     		movs	r1, #44
 105 0026 0022     		movs	r2, #0
 106 0028 0023     		movs	r3, #0
 107 002a FFF7FEFF 		bl	openserial_printError
  24:build/OpenMote-CC2538_armgcc/openapps/uecho/uecho.c ****          COMPONENT_UECHO,
  25:build/OpenMote-CC2538_armgcc/openapps/uecho/uecho.c ****          ERR_NO_FREE_PACKET_BUFFER,
  26:build/OpenMote-CC2538_armgcc/openapps/uecho/uecho.c ****          (errorparameter_t)0,
  27:build/OpenMote-CC2538_armgcc/openapps/uecho/uecho.c ****          (errorparameter_t)0
  28:build/OpenMote-CC2538_armgcc/openapps/uecho/uecho.c ****       );
  29:build/OpenMote-CC2538_armgcc/openapps/uecho/uecho.c ****       openqueue_freePacketBuffer(request); //clear the request packet as well
 108              		.loc 1 29 0
 109 002e 7868     		ldr	r0, [r7, #4]
 110 0030 FFF7FEFF 		bl	openqueue_freePacketBuffer
  30:build/OpenMote-CC2538_armgcc/openapps/uecho/uecho.c ****       return;
 111              		.loc 1 30 0
 112 0034 3CE0     		b	.L2
 113              	.L3:
  31:build/OpenMote-CC2538_armgcc/openapps/uecho/uecho.c ****    }
  32:build/OpenMote-CC2538_armgcc/openapps/uecho/uecho.c ****    
  33:build/OpenMote-CC2538_armgcc/openapps/uecho/uecho.c ****    reply->owner                         = COMPONENT_UECHO;
 114              		.loc 1 33 0
 115 0036 FB68     		ldr	r3, [r7, #12]
 116 0038 2322     		movs	r2, #35
 117 003a 5A70     		strb	r2, [r3, #1]
  34:build/OpenMote-CC2538_armgcc/openapps/uecho/uecho.c ****    
  35:build/OpenMote-CC2538_armgcc/openapps/uecho/uecho.c ****    // reply with the same OpenQueueEntry_t
  36:build/OpenMote-CC2538_armgcc/openapps/uecho/uecho.c ****    reply->creator                       = COMPONENT_UECHO;
 118              		.loc 1 36 0
 119 003c FB68     		ldr	r3, [r7, #12]
 120 003e 2322     		movs	r2, #35
 121 0040 1A70     		strb	r2, [r3]
  37:build/OpenMote-CC2538_armgcc/openapps/uecho/uecho.c ****    reply->l4_protocol                   = IANA_UDP;
 122              		.loc 1 37 0
 123 0042 FB68     		ldr	r3, [r7, #12]
 124 0044 1122     		movs	r2, #17
 125 0046 5A72     		strb	r2, [r3, #9]
  38:build/OpenMote-CC2538_armgcc/openapps/uecho/uecho.c ****    temp_l4_destination_port           = request->l4_destination_port;
 126              		.loc 1 38 0
 127 0048 7B68     		ldr	r3, [r7, #4]
 128 004a DB89     		ldrh	r3, [r3, #14]	@ movhi
 129 004c 7B81     		strh	r3, [r7, #10]	@ movhi
  39:build/OpenMote-CC2538_armgcc/openapps/uecho/uecho.c ****    reply->l4_destination_port           = request->l4_sourcePortORicmpv6Type;
 130              		.loc 1 39 0
 131 004e 7B68     		ldr	r3, [r7, #4]
 132 0050 9A89     		ldrh	r2, [r3, #12]
 133 0052 FB68     		ldr	r3, [r7, #12]
 134 0054 DA81     		strh	r2, [r3, #14]	@ movhi
  40:build/OpenMote-CC2538_armgcc/openapps/uecho/uecho.c ****    reply->l4_sourcePortORicmpv6Type     = temp_l4_destination_port;
 135              		.loc 1 40 0
 136 0056 FB68     		ldr	r3, [r7, #12]
 137 0058 7A89     		ldrh	r2, [r7, #10]	@ movhi
 138 005a 9A81     		strh	r2, [r3, #12]	@ movhi
  41:build/OpenMote-CC2538_armgcc/openapps/uecho/uecho.c ****    reply->l3_destinationAdd.type        = ADDR_128B;
 139              		.loc 1 41 0
 140 005c FB68     		ldr	r3, [r7, #12]
 141 005e 0322     		movs	r2, #3
 142 0060 5A75     		strb	r2, [r3, #21]
  42:build/OpenMote-CC2538_armgcc/openapps/uecho/uecho.c ****    
  43:build/OpenMote-CC2538_armgcc/openapps/uecho/uecho.c ****    // copy source to destination to echo.
  44:build/OpenMote-CC2538_armgcc/openapps/uecho/uecho.c ****    memcpy(&reply->l3_destinationAdd.addr_128b[0],&request->l3_sourceAdd.addr_128b[0],16);
 143              		.loc 1 44 0
 144 0062 FB68     		ldr	r3, [r7, #12]
 145 0064 03F11602 		add	r2, r3, #22
 146 0068 7B68     		ldr	r3, [r7, #4]
 147 006a 2733     		adds	r3, r3, #39
 148 006c 1046     		mov	r0, r2
 149 006e 1946     		mov	r1, r3
 150 0070 1022     		movs	r2, #16
 151 0072 FFF7FEFF 		bl	memcpy
  45:build/OpenMote-CC2538_armgcc/openapps/uecho/uecho.c ****    
  46:build/OpenMote-CC2538_armgcc/openapps/uecho/uecho.c ****    packetfunctions_reserveHeaderSize(reply,request->length);
 152              		.loc 1 46 0
 153 0076 7B68     		ldr	r3, [r7, #4]
 154 0078 1B7A     		ldrb	r3, [r3, #8]	@ zero_extendqisi2
 155 007a F868     		ldr	r0, [r7, #12]
 156 007c 1946     		mov	r1, r3
 157 007e FFF7FEFF 		bl	packetfunctions_reserveHeaderSize
  47:build/OpenMote-CC2538_armgcc/openapps/uecho/uecho.c ****    memcpy(&reply->payload[0],&request->payload[0],request->length);
 158              		.loc 1 47 0
 159 0082 FB68     		ldr	r3, [r7, #12]
 160 0084 5968     		ldr	r1, [r3, #4]
 161 0086 7B68     		ldr	r3, [r7, #4]
 162 0088 5A68     		ldr	r2, [r3, #4]
 163 008a 7B68     		ldr	r3, [r7, #4]
 164 008c 1B7A     		ldrb	r3, [r3, #8]	@ zero_extendqisi2
 165 008e 0846     		mov	r0, r1
 166 0090 1146     		mov	r1, r2
 167 0092 1A46     		mov	r2, r3
 168 0094 FFF7FEFF 		bl	memcpy
  48:build/OpenMote-CC2538_armgcc/openapps/uecho/uecho.c ****    openqueue_freePacketBuffer(request);
 169              		.loc 1 48 0
 170 0098 7868     		ldr	r0, [r7, #4]
 171 009a FFF7FEFF 		bl	openqueue_freePacketBuffer
  49:build/OpenMote-CC2538_armgcc/openapps/uecho/uecho.c ****    
  50:build/OpenMote-CC2538_armgcc/openapps/uecho/uecho.c ****    if ((openudp_send(reply))==E_FAIL) {
 172              		.loc 1 50 0
 173 009e F868     		ldr	r0, [r7, #12]
 174 00a0 FFF7FEFF 		bl	openudp_send
 175 00a4 0346     		mov	r3, r0
 176 00a6 012B     		cmp	r3, #1
 177 00a8 02D1     		bne	.L2
  51:build/OpenMote-CC2538_armgcc/openapps/uecho/uecho.c ****       openqueue_freePacketBuffer(reply);
 178              		.loc 1 51 0
 179 00aa F868     		ldr	r0, [r7, #12]
 180 00ac FFF7FEFF 		bl	openqueue_freePacketBuffer
 181              	.L2:
  52:build/OpenMote-CC2538_armgcc/openapps/uecho/uecho.c ****    }
  53:build/OpenMote-CC2538_armgcc/openapps/uecho/uecho.c **** }
 182              		.loc 1 53 0
 183 00b0 1037     		adds	r7, r7, #16
 184              		.cfi_def_cfa_offset 8
 185 00b2 BD46     		mov	sp, r7
 186              		.cfi_def_cfa_register 13
 187              		@ sp needed
 188 00b4 80BD     		pop	{r7, pc}
 189              		.cfi_endproc
 190              	.LFE1:
 192 00b6 00BF     		.align	2
 193              		.global	uecho_sendDone
 194              		.thumb
 195              		.thumb_func
 197              	uecho_sendDone:
 198              	.LFB2:
  54:build/OpenMote-CC2538_armgcc/openapps/uecho/uecho.c **** 
  55:build/OpenMote-CC2538_armgcc/openapps/uecho/uecho.c **** void uecho_sendDone(OpenQueueEntry_t* msg, owerror_t error) {
 199              		.loc 1 55 0
 200              		.cfi_startproc
 201              		@ args = 0, pretend = 0, frame = 8
 202              		@ frame_needed = 1, uses_anonymous_args = 0
 203 00b8 80B5     		push	{r7, lr}
 204              		.cfi_def_cfa_offset 8
 205              		.cfi_offset 7, -8
 206              		.cfi_offset 14, -4
 207 00ba 82B0     		sub	sp, sp, #8
 208              		.cfi_def_cfa_offset 16
 209 00bc 00AF     		add	r7, sp, #0
 210              		.cfi_def_cfa_register 7
 211 00be 7860     		str	r0, [r7, #4]
 212 00c0 0B46     		mov	r3, r1
 213 00c2 FB70     		strb	r3, [r7, #3]
  56:build/OpenMote-CC2538_armgcc/openapps/uecho/uecho.c ****    openqueue_freePacketBuffer(msg);
 214              		.loc 1 56 0
 215 00c4 7868     		ldr	r0, [r7, #4]
 216 00c6 FFF7FEFF 		bl	openqueue_freePacketBuffer
  57:build/OpenMote-CC2538_armgcc/openapps/uecho/uecho.c **** }
 217              		.loc 1 57 0
 218 00ca 0837     		adds	r7, r7, #8
 219              		.cfi_def_cfa_offset 8
 220 00cc BD46     		mov	sp, r7
 221              		.cfi_def_cfa_register 13
 222              		@ sp needed
 223 00ce 80BD     		pop	{r7, pc}
 224              		.cfi_endproc
 225              	.LFE2:
 227              		.align	2
 228              		.global	uecho_debugPrint
 229              		.thumb
 230              		.thumb_func
 232              	uecho_debugPrint:
 233              	.LFB3:
  58:build/OpenMote-CC2538_armgcc/openapps/uecho/uecho.c **** 
  59:build/OpenMote-CC2538_armgcc/openapps/uecho/uecho.c **** bool uecho_debugPrint() {
 234              		.loc 1 59 0
 235              		.cfi_startproc
 236              		@ args = 0, pretend = 0, frame = 0
 237              		@ frame_needed = 1, uses_anonymous_args = 0
 238              		@ link register save eliminated.
 239 00d0 80B4     		push	{r7}
 240              		.cfi_def_cfa_offset 4
 241              		.cfi_offset 7, -4
 242 00d2 00AF     		add	r7, sp, #0
 243              		.cfi_def_cfa_register 7
  60:build/OpenMote-CC2538_armgcc/openapps/uecho/uecho.c ****    return FALSE;
 244              		.loc 1 60 0
 245 00d4 0023     		movs	r3, #0
  61:build/OpenMote-CC2538_armgcc/openapps/uecho/uecho.c **** }
 246              		.loc 1 61 0
 247 00d6 1846     		mov	r0, r3
 248 00d8 BD46     		mov	sp, r7
 249              		.cfi_def_cfa_register 13
 250              		@ sp needed
 251 00da 5DF8047B 		ldr	r7, [sp], #4
 252              		.cfi_restore 7
 253              		.cfi_def_cfa_offset 0
 254 00de 7047     		bx	lr
 255              		.cfi_endproc
 256              	.LFE3:
 258              	.Letext0:
 259              		.file 2 "/usr/arm-none-eabi/include/machine/_default_types.h"
 260              		.file 3 "/usr/arm-none-eabi/include/sys/_stdint.h"
 261              		.file 4 "inc/opendefs.h"
 262              		.file 5 "bsp/boards/OpenMote-CC2538/board_info.h"