   1              		.syntax unified
   2              		.cpu cortex-m3
   3              		.fpu softvfp
   4              		.eabi_attribute 20, 1
   5              		.eabi_attribute 21, 1
   6              		.eabi_attribute 23, 3
   7              		.eabi_attribute 24, 1
   8              		.eabi_attribute 25, 1
   9              		.eabi_attribute 26, 1
  10              		.eabi_attribute 30, 6
  11              		.eabi_attribute 34, 1
  12              		.eabi_attribute 18, 4
  13              		.thumb
  14              		.file	"neighbors.c"
  15              		.text
  16              	.Ltext0:
  17              		.cfi_sections	.debug_frame
  18              		.section	.rodata
  19              		.align	2
  22              	rreg_uriquery:
  23 0000 683D7563 		.ascii	"h=ucb\000"
  23      6200
  24 0006 0000     		.align	2
  27              	infoBoardname:
  28 0008 43433235 		.ascii	"CC2538\000"
  28      333800
  29 000f 00       		.align	2
  32              	infouCName:
  33 0010 43433235 		.ascii	"CC2538\000"
  33      333800
  34 0017 00       		.align	2
  37              	infoRadioName:
  38 0018 43433235 		.ascii	"CC2538 SoC\000"
  38      33382053 
  38      6F4300
  39 0023 00       		.align	2
  42              	infoStackName:
  43 0024 4F70656E 		.ascii	"OpenWSN \000"
  43      57534E20 
  43      00
  44 002d 000000   		.align	2
  47              	all_routers_multicast:
  48 0030 FF       		.byte	-1
  49 0031 02       		.byte	2
  50 0032 00       		.byte	0
  51 0033 00       		.byte	0
  52 0034 00       		.byte	0
  53 0035 00       		.byte	0
  54 0036 00       		.byte	0
  55 0037 00       		.byte	0
  56 0038 00       		.byte	0
  57 0039 00       		.byte	0
  58 003a 00       		.byte	0
  59 003b 00       		.byte	0
  60 003c 00       		.byte	0
  61 003d 00       		.byte	0
  62 003e 00       		.byte	0
  63 003f 1A       		.byte	26
  64              		.align	2
  67              	chTemplate_default:
  68 0040 05       		.byte	5
  69 0041 06       		.byte	6
  70 0042 0C       		.byte	12
  71 0043 07       		.byte	7
  72 0044 0F       		.byte	15
  73 0045 04       		.byte	4
  74 0046 0E       		.byte	14
  75 0047 0B       		.byte	11
  76 0048 08       		.byte	8
  77 0049 00       		.byte	0
  78 004a 01       		.byte	1
  79 004b 02       		.byte	2
  80 004c 0D       		.byte	13
  81 004d 03       		.byte	3
  82 004e 09       		.byte	9
  83 004f 0A       		.byte	10
  84              		.comm	neighbors_vars,348,4
  85              		.text
  86              		.align	2
  87              		.global	neighbors_init
  88              		.thumb
  89              		.thumb_func
  91              	neighbors_init:
  92              	.LFB0:
  93              		.file 1 "build/OpenMote-CC2538_armgcc/openstack/02b-MAChigh/neighbors.c"
   1:build/OpenMote-CC2538_armgcc/openstack/02b-MAChigh/neighbors.c **** #include "opendefs.h"
   2:build/OpenMote-CC2538_armgcc/openstack/02b-MAChigh/neighbors.c **** #include "neighbors.h"
   3:build/OpenMote-CC2538_armgcc/openstack/02b-MAChigh/neighbors.c **** #include "openqueue.h"
   4:build/OpenMote-CC2538_armgcc/openstack/02b-MAChigh/neighbors.c **** #include "packetfunctions.h"
   5:build/OpenMote-CC2538_armgcc/openstack/02b-MAChigh/neighbors.c **** #include "idmanager.h"
   6:build/OpenMote-CC2538_armgcc/openstack/02b-MAChigh/neighbors.c **** #include "openserial.h"
   7:build/OpenMote-CC2538_armgcc/openstack/02b-MAChigh/neighbors.c **** #include "IEEE802154E.h"
   8:build/OpenMote-CC2538_armgcc/openstack/02b-MAChigh/neighbors.c **** 
   9:build/OpenMote-CC2538_armgcc/openstack/02b-MAChigh/neighbors.c **** //=========================== variables =======================================
  10:build/OpenMote-CC2538_armgcc/openstack/02b-MAChigh/neighbors.c **** 
  11:build/OpenMote-CC2538_armgcc/openstack/02b-MAChigh/neighbors.c **** neighbors_vars_t neighbors_vars;
  12:build/OpenMote-CC2538_armgcc/openstack/02b-MAChigh/neighbors.c **** 
  13:build/OpenMote-CC2538_armgcc/openstack/02b-MAChigh/neighbors.c **** //=========================== prototypes ======================================
  14:build/OpenMote-CC2538_armgcc/openstack/02b-MAChigh/neighbors.c **** 
  15:build/OpenMote-CC2538_armgcc/openstack/02b-MAChigh/neighbors.c **** void registerNewNeighbor(
  16:build/OpenMote-CC2538_armgcc/openstack/02b-MAChigh/neighbors.c ****         open_addr_t* neighborID,
  17:build/OpenMote-CC2538_armgcc/openstack/02b-MAChigh/neighbors.c ****         int8_t       rssi,
  18:build/OpenMote-CC2538_armgcc/openstack/02b-MAChigh/neighbors.c ****         asn_t*       asnTimestamp,
  19:build/OpenMote-CC2538_armgcc/openstack/02b-MAChigh/neighbors.c ****         bool         joinPrioPresent,
  20:build/OpenMote-CC2538_armgcc/openstack/02b-MAChigh/neighbors.c ****         uint8_t      joinPrio
  21:build/OpenMote-CC2538_armgcc/openstack/02b-MAChigh/neighbors.c ****      );
  22:build/OpenMote-CC2538_armgcc/openstack/02b-MAChigh/neighbors.c **** bool isNeighbor(open_addr_t* neighbor);
  23:build/OpenMote-CC2538_armgcc/openstack/02b-MAChigh/neighbors.c **** void removeNeighbor(uint8_t neighborIndex);
  24:build/OpenMote-CC2538_armgcc/openstack/02b-MAChigh/neighbors.c **** bool isThisRowMatching(
  25:build/OpenMote-CC2538_armgcc/openstack/02b-MAChigh/neighbors.c ****         open_addr_t* address,
  26:build/OpenMote-CC2538_armgcc/openstack/02b-MAChigh/neighbors.c ****         uint8_t      rowNumber
  27:build/OpenMote-CC2538_armgcc/openstack/02b-MAChigh/neighbors.c ****      );
  28:build/OpenMote-CC2538_armgcc/openstack/02b-MAChigh/neighbors.c **** 
  29:build/OpenMote-CC2538_armgcc/openstack/02b-MAChigh/neighbors.c **** //=========================== public ==========================================
  30:build/OpenMote-CC2538_armgcc/openstack/02b-MAChigh/neighbors.c **** 
  31:build/OpenMote-CC2538_armgcc/openstack/02b-MAChigh/neighbors.c **** /**
  32:build/OpenMote-CC2538_armgcc/openstack/02b-MAChigh/neighbors.c **** \brief Initializes this module.
  33:build/OpenMote-CC2538_armgcc/openstack/02b-MAChigh/neighbors.c **** */
  34:build/OpenMote-CC2538_armgcc/openstack/02b-MAChigh/neighbors.c **** void neighbors_init() {
  94              		.loc 1 34 0
  95              		.cfi_startproc
  96              		@ args = 0, pretend = 0, frame = 0
  97              		@ frame_needed = 1, uses_anonymous_args = 0
  98 0000 80B5     		push	{r7, lr}
  99              		.cfi_def_cfa_offset 8
 100              		.cfi_offset 7, -8
 101              		.cfi_offset 14, -4
 102 0002 00AF     		add	r7, sp, #0
 103              		.cfi_def_cfa_register 7
  35:build/OpenMote-CC2538_armgcc/openstack/02b-MAChigh/neighbors.c ****    
  36:build/OpenMote-CC2538_armgcc/openstack/02b-MAChigh/neighbors.c ****    // clear module variables
  37:build/OpenMote-CC2538_armgcc/openstack/02b-MAChigh/neighbors.c ****    memset(&neighbors_vars,0,sizeof(neighbors_vars_t));
 104              		.loc 1 37 0
 105 0004 0B48     		ldr	r0, .L4
 106 0006 0021     		movs	r1, #0
 107 0008 4FF4AE72 		mov	r2, #348
 108 000c FFF7FEFF 		bl	memset
  38:build/OpenMote-CC2538_armgcc/openstack/02b-MAChigh/neighbors.c ****    
  39:build/OpenMote-CC2538_armgcc/openstack/02b-MAChigh/neighbors.c ****    // set myDAGrank
  40:build/OpenMote-CC2538_armgcc/openstack/02b-MAChigh/neighbors.c ****    if (idmanager_getIsDAGroot()==TRUE) {
 109              		.loc 1 40 0
 110 0010 FFF7FEFF 		bl	idmanager_getIsDAGroot
 111 0014 0346     		mov	r3, r0
 112 0016 002B     		cmp	r3, #0
 113 0018 05D0     		beq	.L2
  41:build/OpenMote-CC2538_armgcc/openstack/02b-MAChigh/neighbors.c ****       neighbors_vars.myDAGrank=MINHOPRANKINCREASE;
 114              		.loc 1 41 0
 115 001a 064B     		ldr	r3, .L4
 116 001c 4FF48072 		mov	r2, #256
 117 0020 A3F85421 		strh	r2, [r3, #340]	@ movhi
 118 0024 04E0     		b	.L1
 119              	.L2:
  42:build/OpenMote-CC2538_armgcc/openstack/02b-MAChigh/neighbors.c ****    } else {
  43:build/OpenMote-CC2538_armgcc/openstack/02b-MAChigh/neighbors.c ****       neighbors_vars.myDAGrank=DEFAULTDAGRANK;
 120              		.loc 1 43 0
 121 0026 034B     		ldr	r3, .L4
 122 0028 4FF6FF72 		movw	r2, #65535
 123 002c A3F85421 		strh	r2, [r3, #340]	@ movhi
 124              	.L1:
  44:build/OpenMote-CC2538_armgcc/openstack/02b-MAChigh/neighbors.c ****    }
  45:build/OpenMote-CC2538_armgcc/openstack/02b-MAChigh/neighbors.c **** }
 125              		.loc 1 45 0
 126 0030 80BD     		pop	{r7, pc}
 127              	.L5:
 128 0032 00BF     		.align	2
 129              	.L4:
 130 0034 00000000 		.word	neighbors_vars
 131              		.cfi_endproc
 132              	.LFE0:
 134              		.align	2
 135              		.global	neighbors_getMyDAGrank
 136              		.thumb
 137              		.thumb_func
 139              	neighbors_getMyDAGrank:
 140              	.LFB1:
  46:build/OpenMote-CC2538_armgcc/openstack/02b-MAChigh/neighbors.c **** 
  47:build/OpenMote-CC2538_armgcc/openstack/02b-MAChigh/neighbors.c **** //===== getters
  48:build/OpenMote-CC2538_armgcc/openstack/02b-MAChigh/neighbors.c **** 
  49:build/OpenMote-CC2538_armgcc/openstack/02b-MAChigh/neighbors.c **** /**
  50:build/OpenMote-CC2538_armgcc/openstack/02b-MAChigh/neighbors.c **** \brief Retrieve this mote's current DAG rank.
  51:build/OpenMote-CC2538_armgcc/openstack/02b-MAChigh/neighbors.c **** 
  52:build/OpenMote-CC2538_armgcc/openstack/02b-MAChigh/neighbors.c **** \returns This mote's current DAG rank.
  53:build/OpenMote-CC2538_armgcc/openstack/02b-MAChigh/neighbors.c **** */
  54:build/OpenMote-CC2538_armgcc/openstack/02b-MAChigh/neighbors.c **** dagrank_t neighbors_getMyDAGrank() {
 141              		.loc 1 54 0
 142              		.cfi_startproc
 143              		@ args = 0, pretend = 0, frame = 0
 144              		@ frame_needed = 1, uses_anonymous_args = 0
 145              		@ link register save eliminated.
 146 0038 80B4     		push	{r7}
 147              		.cfi_def_cfa_offset 4
 148              		.cfi_offset 7, -4
 149 003a 00AF     		add	r7, sp, #0
 150              		.cfi_def_cfa_register 7
  55:build/OpenMote-CC2538_armgcc/openstack/02b-MAChigh/neighbors.c ****    return neighbors_vars.myDAGrank;
 151              		.loc 1 55 0
 152 003c 034B     		ldr	r3, .L8
 153 003e B3F85431 		ldrh	r3, [r3, #340]
  56:build/OpenMote-CC2538_armgcc/openstack/02b-MAChigh/neighbors.c **** }
 154              		.loc 1 56 0
 155 0042 1846     		mov	r0, r3
 156 0044 BD46     		mov	sp, r7
 157              		.cfi_def_cfa_register 13
 158              		@ sp needed
 159 0046 5DF8047B 		ldr	r7, [sp], #4
 160              		.cfi_restore 7
 161              		.cfi_def_cfa_offset 0
 162 004a 7047     		bx	lr
 163              	.L9:
 164              		.align	2
 165              	.L8:
 166 004c 00000000 		.word	neighbors_vars
 167              		.cfi_endproc
 168              	.LFE1:
 170              		.align	2
 171              		.global	neighbors_getNumNeighbors
 172              		.thumb
 173              		.thumb_func
 175              	neighbors_getNumNeighbors:
 176              	.LFB2:
  57:build/OpenMote-CC2538_armgcc/openstack/02b-MAChigh/neighbors.c **** 
  58:build/OpenMote-CC2538_armgcc/openstack/02b-MAChigh/neighbors.c **** /**
  59:build/OpenMote-CC2538_armgcc/openstack/02b-MAChigh/neighbors.c **** \brief Retrieve the number of neighbors this mote's currently knows of.
  60:build/OpenMote-CC2538_armgcc/openstack/02b-MAChigh/neighbors.c **** 
  61:build/OpenMote-CC2538_armgcc/openstack/02b-MAChigh/neighbors.c **** \returns The number of neighbors this mote's currently knows of.
  62:build/OpenMote-CC2538_armgcc/openstack/02b-MAChigh/neighbors.c **** */
  63:build/OpenMote-CC2538_armgcc/openstack/02b-MAChigh/neighbors.c **** uint8_t neighbors_getNumNeighbors() {
 177              		.loc 1 63 0
 178              		.cfi_startproc
 179              		@ args = 0, pretend = 0, frame = 8
 180              		@ frame_needed = 1, uses_anonymous_args = 0
 181              		@ link register save eliminated.
 182 0050 80B4     		push	{r7}
 183              		.cfi_def_cfa_offset 4
 184              		.cfi_offset 7, -4
 185 0052 83B0     		sub	sp, sp, #12
 186              		.cfi_def_cfa_offset 16
 187 0054 00AF     		add	r7, sp, #0
 188              		.cfi_def_cfa_register 7
  64:build/OpenMote-CC2538_armgcc/openstack/02b-MAChigh/neighbors.c ****    uint8_t i;
  65:build/OpenMote-CC2538_armgcc/openstack/02b-MAChigh/neighbors.c ****    uint8_t returnVal;
  66:build/OpenMote-CC2538_armgcc/openstack/02b-MAChigh/neighbors.c ****    
  67:build/OpenMote-CC2538_armgcc/openstack/02b-MAChigh/neighbors.c ****    returnVal=0;
 189              		.loc 1 67 0
 190 0056 0023     		movs	r3, #0
 191 0058 BB71     		strb	r3, [r7, #6]
  68:build/OpenMote-CC2538_armgcc/openstack/02b-MAChigh/neighbors.c ****    for (i=0;i<MAXNUMNEIGHBORS;i++) {
 192              		.loc 1 68 0
 193 005a 0023     		movs	r3, #0
 194 005c FB71     		strb	r3, [r7, #7]
 195 005e 0FE0     		b	.L11
 196              	.L13:
  69:build/OpenMote-CC2538_armgcc/openstack/02b-MAChigh/neighbors.c ****       if (neighbors_vars.neighbors[i].used==TRUE) {
 197              		.loc 1 69 0
 198 0060 FA79     		ldrb	r2, [r7, #7]	@ zero_extendqisi2
 199 0062 0C49     		ldr	r1, .L15
 200 0064 1346     		mov	r3, r2
 201 0066 1B01     		lsls	r3, r3, #4
 202 0068 1344     		add	r3, r3, r2
 203 006a 5B00     		lsls	r3, r3, #1
 204 006c 0B44     		add	r3, r3, r1
 205 006e 1B78     		ldrb	r3, [r3]	@ zero_extendqisi2
 206 0070 002B     		cmp	r3, #0
 207 0072 02D0     		beq	.L12
  70:build/OpenMote-CC2538_armgcc/openstack/02b-MAChigh/neighbors.c ****          returnVal++;
 208              		.loc 1 70 0
 209 0074 BB79     		ldrb	r3, [r7, #6]	@ zero_extendqisi2
 210 0076 0133     		adds	r3, r3, #1
 211 0078 BB71     		strb	r3, [r7, #6]
 212              	.L12:
  68:build/OpenMote-CC2538_armgcc/openstack/02b-MAChigh/neighbors.c ****    for (i=0;i<MAXNUMNEIGHBORS;i++) {
 213              		.loc 1 68 0 discriminator 2
 214 007a FB79     		ldrb	r3, [r7, #7]	@ zero_extendqisi2
 215 007c 0133     		adds	r3, r3, #1
 216 007e FB71     		strb	r3, [r7, #7]
 217              	.L11:
  68:build/OpenMote-CC2538_armgcc/openstack/02b-MAChigh/neighbors.c ****    for (i=0;i<MAXNUMNEIGHBORS;i++) {
 218              		.loc 1 68 0 is_stmt 0 discriminator 1
 219 0080 FB79     		ldrb	r3, [r7, #7]	@ zero_extendqisi2
 220 0082 092B     		cmp	r3, #9
 221 0084 ECD9     		bls	.L13
  71:build/OpenMote-CC2538_armgcc/openstack/02b-MAChigh/neighbors.c ****       }
  72:build/OpenMote-CC2538_armgcc/openstack/02b-MAChigh/neighbors.c ****    }
  73:build/OpenMote-CC2538_armgcc/openstack/02b-MAChigh/neighbors.c ****    return returnVal;
 222              		.loc 1 73 0 is_stmt 1
 223 0086 BB79     		ldrb	r3, [r7, #6]	@ zero_extendqisi2
  74:build/OpenMote-CC2538_armgcc/openstack/02b-MAChigh/neighbors.c **** }
 224              		.loc 1 74 0
 225 0088 1846     		mov	r0, r3
 226 008a 0C37     		adds	r7, r7, #12
 227              		.cfi_def_cfa_offset 4
 228 008c BD46     		mov	sp, r7
 229              		.cfi_def_cfa_register 13
 230              		@ sp needed
 231 008e 5DF8047B 		ldr	r7, [sp], #4
 232              		.cfi_restore 7
 233              		.cfi_def_cfa_offset 0
 234 0092 7047     		bx	lr
 235              	.L16:
 236              		.align	2
 237              	.L15:
 238 0094 00000000 		.word	neighbors_vars
 239              		.cfi_endproc
 240              	.LFE2:
 242              		.align	2
 243              		.global	neighbors_getPreferredParentEui64
 244              		.thumb
 245              		.thumb_func
 247              	neighbors_getPreferredParentEui64:
 248              	.LFB3:
  75:build/OpenMote-CC2538_armgcc/openstack/02b-MAChigh/neighbors.c **** 
  76:build/OpenMote-CC2538_armgcc/openstack/02b-MAChigh/neighbors.c **** /**
  77:build/OpenMote-CC2538_armgcc/openstack/02b-MAChigh/neighbors.c **** \brief Retrieve my preferred parent's EUI64 address.
  78:build/OpenMote-CC2538_armgcc/openstack/02b-MAChigh/neighbors.c **** 
  79:build/OpenMote-CC2538_armgcc/openstack/02b-MAChigh/neighbors.c **** \param[out] addressToWrite Where to write the preferred parent's address to.
  80:build/OpenMote-CC2538_armgcc/openstack/02b-MAChigh/neighbors.c **** */
  81:build/OpenMote-CC2538_armgcc/openstack/02b-MAChigh/neighbors.c **** bool neighbors_getPreferredParentEui64(open_addr_t* addressToWrite) {
 249              		.loc 1 81 0
 250              		.cfi_startproc
 251              		@ args = 0, pretend = 0, frame = 16
 252              		@ frame_needed = 1, uses_anonymous_args = 0
 253              		@ link register save eliminated.
 254 0098 B0B4     		push	{r4, r5, r7}
 255              		.cfi_def_cfa_offset 12
 256              		.cfi_offset 4, -12
 257              		.cfi_offset 5, -8
 258              		.cfi_offset 7, -4
 259 009a 85B0     		sub	sp, sp, #20
 260              		.cfi_def_cfa_offset 32
 261 009c 00AF     		add	r7, sp, #0
 262              		.cfi_def_cfa_register 7
 263 009e 7860     		str	r0, [r7, #4]
  82:build/OpenMote-CC2538_armgcc/openstack/02b-MAChigh/neighbors.c ****    uint8_t   i;
  83:build/OpenMote-CC2538_armgcc/openstack/02b-MAChigh/neighbors.c ****    bool      foundPreferred;
  84:build/OpenMote-CC2538_armgcc/openstack/02b-MAChigh/neighbors.c ****    uint8_t   numNeighbors;
  85:build/OpenMote-CC2538_armgcc/openstack/02b-MAChigh/neighbors.c ****    dagrank_t minRankVal;
  86:build/OpenMote-CC2538_armgcc/openstack/02b-MAChigh/neighbors.c ****    uint8_t   minRankIdx;
  87:build/OpenMote-CC2538_armgcc/openstack/02b-MAChigh/neighbors.c ****    
  88:build/OpenMote-CC2538_armgcc/openstack/02b-MAChigh/neighbors.c ****    addressToWrite->type = ADDR_NONE;
 264              		.loc 1 88 0
 265 00a0 7B68     		ldr	r3, [r7, #4]
 266 00a2 0022     		movs	r2, #0
 267 00a4 1A70     		strb	r2, [r3]
  89:build/OpenMote-CC2538_armgcc/openstack/02b-MAChigh/neighbors.c ****    
  90:build/OpenMote-CC2538_armgcc/openstack/02b-MAChigh/neighbors.c ****    foundPreferred       = FALSE;
 268              		.loc 1 90 0
 269 00a6 0023     		movs	r3, #0
 270 00a8 BB73     		strb	r3, [r7, #14]
  91:build/OpenMote-CC2538_armgcc/openstack/02b-MAChigh/neighbors.c ****    numNeighbors         = 0;
 271              		.loc 1 91 0
 272 00aa 0023     		movs	r3, #0
 273 00ac 7B73     		strb	r3, [r7, #13]
  92:build/OpenMote-CC2538_armgcc/openstack/02b-MAChigh/neighbors.c ****    minRankVal           = MAXDAGRANK;
 274              		.loc 1 92 0
 275 00ae 4FF6FF73 		movw	r3, #65535
 276 00b2 7B81     		strh	r3, [r7, #10]	@ movhi
  93:build/OpenMote-CC2538_armgcc/openstack/02b-MAChigh/neighbors.c ****    minRankIdx           = MAXNUMNEIGHBORS+1;
 277              		.loc 1 93 0
 278 00b4 0B23     		movs	r3, #11
 279 00b6 7B72     		strb	r3, [r7, #9]
  94:build/OpenMote-CC2538_armgcc/openstack/02b-MAChigh/neighbors.c ****    
  95:build/OpenMote-CC2538_armgcc/openstack/02b-MAChigh/neighbors.c ****    //===== step 1. Try to find preferred parent
  96:build/OpenMote-CC2538_armgcc/openstack/02b-MAChigh/neighbors.c ****    for (i=0; i<MAXNUMNEIGHBORS; i++) {
 280              		.loc 1 96 0
 281 00b8 0023     		movs	r3, #0
 282 00ba FB73     		strb	r3, [r7, #15]
 283 00bc 4EE0     		b	.L18
 284              	.L22:
  97:build/OpenMote-CC2538_armgcc/openstack/02b-MAChigh/neighbors.c ****       if (neighbors_vars.neighbors[i].used==TRUE){
 285              		.loc 1 97 0
 286 00be FA7B     		ldrb	r2, [r7, #15]	@ zero_extendqisi2
 287 00c0 4949     		ldr	r1, .L25
 288 00c2 1346     		mov	r3, r2
 289 00c4 1B01     		lsls	r3, r3, #4
 290 00c6 1344     		add	r3, r3, r2
 291 00c8 5B00     		lsls	r3, r3, #1
 292 00ca 0B44     		add	r3, r3, r1
 293 00cc 1B78     		ldrb	r3, [r3]	@ zero_extendqisi2
 294 00ce 002B     		cmp	r3, #0
 295 00d0 41D0     		beq	.L19
  98:build/OpenMote-CC2538_armgcc/openstack/02b-MAChigh/neighbors.c ****          if (neighbors_vars.neighbors[i].parentPreference==MAXPREFERENCE) {
 296              		.loc 1 98 0
 297 00d2 FA7B     		ldrb	r2, [r7, #15]	@ zero_extendqisi2
 298 00d4 4449     		ldr	r1, .L25
 299 00d6 1346     		mov	r3, r2
 300 00d8 1B01     		lsls	r3, r3, #4
 301 00da 1344     		add	r3, r3, r2
 302 00dc 5B00     		lsls	r3, r3, #1
 303 00de 0B44     		add	r3, r3, r1
 304 00e0 5B78     		ldrb	r3, [r3, #1]	@ zero_extendqisi2
 305 00e2 022B     		cmp	r3, #2
 306 00e4 17D1     		bne	.L20
  99:build/OpenMote-CC2538_armgcc/openstack/02b-MAChigh/neighbors.c ****             memcpy(addressToWrite,&(neighbors_vars.neighbors[i].addr_64b),sizeof(open_addr_t));
 307              		.loc 1 99 0
 308 00e6 FA7B     		ldrb	r2, [r7, #15]	@ zero_extendqisi2
 309 00e8 1346     		mov	r3, r2
 310 00ea 1B01     		lsls	r3, r3, #4
 311 00ec 1344     		add	r3, r3, r2
 312 00ee 5B00     		lsls	r3, r3, #1
 313 00f0 3D4A     		ldr	r2, .L25
 314 00f2 1344     		add	r3, r3, r2
 315 00f4 1A1D     		adds	r2, r3, #4
 316 00f6 7B68     		ldr	r3, [r7, #4]
 317 00f8 1568     		ldr	r5, [r2]	@ unaligned
 318 00fa 5468     		ldr	r4, [r2, #4]	@ unaligned
 319 00fc 9068     		ldr	r0, [r2, #8]	@ unaligned
 320 00fe D168     		ldr	r1, [r2, #12]	@ unaligned
 321 0100 1D60     		str	r5, [r3]	@ unaligned
 322 0102 5C60     		str	r4, [r3, #4]	@ unaligned
 323 0104 9860     		str	r0, [r3, #8]	@ unaligned
 324 0106 D960     		str	r1, [r3, #12]	@ unaligned
 325 0108 127C     		ldrb	r2, [r2, #16]
 326 010a 1A74     		strb	r2, [r3, #16]
 100:build/OpenMote-CC2538_armgcc/openstack/02b-MAChigh/neighbors.c ****             addressToWrite->type=ADDR_64B;
 327              		.loc 1 100 0
 328 010c 7B68     		ldr	r3, [r7, #4]
 329 010e 0222     		movs	r2, #2
 330 0110 1A70     		strb	r2, [r3]
 101:build/OpenMote-CC2538_armgcc/openstack/02b-MAChigh/neighbors.c ****             foundPreferred=TRUE;
 331              		.loc 1 101 0
 332 0112 0123     		movs	r3, #1
 333 0114 BB73     		strb	r3, [r7, #14]
 334              	.L20:
 102:build/OpenMote-CC2538_armgcc/openstack/02b-MAChigh/neighbors.c ****          }
 103:build/OpenMote-CC2538_armgcc/openstack/02b-MAChigh/neighbors.c ****          // identify neighbor with lowest rank
 104:build/OpenMote-CC2538_armgcc/openstack/02b-MAChigh/neighbors.c ****          if (neighbors_vars.neighbors[i].DAGrank < minRankVal) {
 335              		.loc 1 104 0
 336 0116 FA7B     		ldrb	r2, [r7, #15]	@ zero_extendqisi2
 337 0118 3349     		ldr	r1, .L25
 338 011a 1346     		mov	r3, r2
 339 011c 1B01     		lsls	r3, r3, #4
 340 011e 1344     		add	r3, r3, r2
 341 0120 5B00     		lsls	r3, r3, #1
 342 0122 0B44     		add	r3, r3, r1
 343 0124 1033     		adds	r3, r3, #16
 344 0126 B3F80530 		ldrh	r3, [r3, #5]	@ unaligned
 345 012a 9BB2     		uxth	r3, r3
 346 012c 7A89     		ldrh	r2, [r7, #10]
 347 012e 9A42     		cmp	r2, r3
 348 0130 0ED9     		bls	.L21
 105:build/OpenMote-CC2538_armgcc/openstack/02b-MAChigh/neighbors.c ****             minRankVal=neighbors_vars.neighbors[i].DAGrank;
 349              		.loc 1 105 0
 350 0132 FA7B     		ldrb	r2, [r7, #15]	@ zero_extendqisi2
 351 0134 2C49     		ldr	r1, .L25
 352 0136 1346     		mov	r3, r2
 353 0138 1B01     		lsls	r3, r3, #4
 354 013a 1344     		add	r3, r3, r2
 355 013c 5B00     		lsls	r3, r3, #1
 356 013e 0B44     		add	r3, r3, r1
 357 0140 1033     		adds	r3, r3, #16
 358 0142 5A79     		ldrb	r2, [r3, #5]	@ zero_extendqisi2
 359 0144 9B79     		ldrb	r3, [r3, #6]	@ zero_extendqisi2
 360 0146 1B02     		lsls	r3, r3, #8
 361 0148 1343     		orrs	r3, r3, r2
 362 014a 7B81     		strh	r3, [r7, #10]	@ movhi
 106:build/OpenMote-CC2538_armgcc/openstack/02b-MAChigh/neighbors.c ****             minRankIdx=i;
 363              		.loc 1 106 0
 364 014c FB7B     		ldrb	r3, [r7, #15]
 365 014e 7B72     		strb	r3, [r7, #9]
 366              	.L21:
 107:build/OpenMote-CC2538_armgcc/openstack/02b-MAChigh/neighbors.c ****          }
 108:build/OpenMote-CC2538_armgcc/openstack/02b-MAChigh/neighbors.c ****          numNeighbors++;
 367              		.loc 1 108 0
 368 0150 7B7B     		ldrb	r3, [r7, #13]	@ zero_extendqisi2
 369 0152 0133     		adds	r3, r3, #1
 370 0154 7B73     		strb	r3, [r7, #13]
 371              	.L19:
  96:build/OpenMote-CC2538_armgcc/openstack/02b-MAChigh/neighbors.c ****       if (neighbors_vars.neighbors[i].used==TRUE){
 372              		.loc 1 96 0 discriminator 2
 373 0156 FB7B     		ldrb	r3, [r7, #15]	@ zero_extendqisi2
 374 0158 0133     		adds	r3, r3, #1
 375 015a FB73     		strb	r3, [r7, #15]
 376              	.L18:
  96:build/OpenMote-CC2538_armgcc/openstack/02b-MAChigh/neighbors.c ****       if (neighbors_vars.neighbors[i].used==TRUE){
 377              		.loc 1 96 0 is_stmt 0 discriminator 1
 378 015c FB7B     		ldrb	r3, [r7, #15]	@ zero_extendqisi2
 379 015e 092B     		cmp	r3, #9
 380 0160 ADD9     		bls	.L22
 109:build/OpenMote-CC2538_armgcc/openstack/02b-MAChigh/neighbors.c ****       }
 110:build/OpenMote-CC2538_armgcc/openstack/02b-MAChigh/neighbors.c ****    }
 111:build/OpenMote-CC2538_armgcc/openstack/02b-MAChigh/neighbors.c ****    
 112:build/OpenMote-CC2538_armgcc/openstack/02b-MAChigh/neighbors.c ****    //===== step 2. (backup) Promote neighbor with min rank to preferred parent
 113:build/OpenMote-CC2538_armgcc/openstack/02b-MAChigh/neighbors.c ****    if (foundPreferred==FALSE && numNeighbors > 0){
 381              		.loc 1 113 0 is_stmt 1
 382 0162 BB7B     		ldrb	r3, [r7, #14]
 383 0164 83F00103 		eor	r3, r3, #1
 384 0168 DBB2     		uxtb	r3, r3
 385 016a 002B     		cmp	r3, #0
 386 016c 35D0     		beq	.L23
 387              		.loc 1 113 0 is_stmt 0 discriminator 1
 388 016e 7B7B     		ldrb	r3, [r7, #13]	@ zero_extendqisi2
 389 0170 002B     		cmp	r3, #0
 390 0172 32D0     		beq	.L23
 114:build/OpenMote-CC2538_armgcc/openstack/02b-MAChigh/neighbors.c ****       // promote neighbor
 115:build/OpenMote-CC2538_armgcc/openstack/02b-MAChigh/neighbors.c ****       neighbors_vars.neighbors[minRankIdx].parentPreference       = MAXPREFERENCE;
 391              		.loc 1 115 0 is_stmt 1
 392 0174 7A7A     		ldrb	r2, [r7, #9]	@ zero_extendqisi2
 393 0176 1C49     		ldr	r1, .L25
 394 0178 1346     		mov	r3, r2
 395 017a 1B01     		lsls	r3, r3, #4
 396 017c 1344     		add	r3, r3, r2
 397 017e 5B00     		lsls	r3, r3, #1
 398 0180 0B44     		add	r3, r3, r1
 399 0182 0222     		movs	r2, #2
 400 0184 5A70     		strb	r2, [r3, #1]
 116:build/OpenMote-CC2538_armgcc/openstack/02b-MAChigh/neighbors.c ****       neighbors_vars.neighbors[minRankIdx].stableNeighbor         = TRUE;
 401              		.loc 1 116 0
 402 0186 7A7A     		ldrb	r2, [r7, #9]	@ zero_extendqisi2
 403 0188 1749     		ldr	r1, .L25
 404 018a 1346     		mov	r3, r2
 405 018c 1B01     		lsls	r3, r3, #4
 406 018e 1344     		add	r3, r3, r2
 407 0190 5B00     		lsls	r3, r3, #1
 408 0192 0B44     		add	r3, r3, r1
 409 0194 0122     		movs	r2, #1
 410 0196 9A70     		strb	r2, [r3, #2]
 117:build/OpenMote-CC2538_armgcc/openstack/02b-MAChigh/neighbors.c ****       neighbors_vars.neighbors[minRankIdx].switchStabilityCounter = 0;
 411              		.loc 1 117 0
 412 0198 7A7A     		ldrb	r2, [r7, #9]	@ zero_extendqisi2
 413 019a 1349     		ldr	r1, .L25
 414 019c 1346     		mov	r3, r2
 415 019e 1B01     		lsls	r3, r3, #4
 416 01a0 1344     		add	r3, r3, r2
 417 01a2 5B00     		lsls	r3, r3, #1
 418 01a4 0B44     		add	r3, r3, r1
 419 01a6 0022     		movs	r2, #0
 420 01a8 DA70     		strb	r2, [r3, #3]
 118:build/OpenMote-CC2538_armgcc/openstack/02b-MAChigh/neighbors.c ****       // return its address
 119:build/OpenMote-CC2538_armgcc/openstack/02b-MAChigh/neighbors.c ****       memcpy(addressToWrite,&(neighbors_vars.neighbors[minRankIdx].addr_64b),sizeof(open_addr_t));
 421              		.loc 1 119 0
 422 01aa 7A7A     		ldrb	r2, [r7, #9]	@ zero_extendqisi2
 423 01ac 1346     		mov	r3, r2
 424 01ae 1B01     		lsls	r3, r3, #4
 425 01b0 1344     		add	r3, r3, r2
 426 01b2 5B00     		lsls	r3, r3, #1
 427 01b4 0C4A     		ldr	r2, .L25
 428 01b6 1344     		add	r3, r3, r2
 429 01b8 1A1D     		adds	r2, r3, #4
 430 01ba 7B68     		ldr	r3, [r7, #4]
 431 01bc 1568     		ldr	r5, [r2]	@ unaligned
 432 01be 5468     		ldr	r4, [r2, #4]	@ unaligned
 433 01c0 9068     		ldr	r0, [r2, #8]	@ unaligned
 434 01c2 D168     		ldr	r1, [r2, #12]	@ unaligned
 435 01c4 1D60     		str	r5, [r3]	@ unaligned
 436 01c6 5C60     		str	r4, [r3, #4]	@ unaligned
 437 01c8 9860     		str	r0, [r3, #8]	@ unaligned
 438 01ca D960     		str	r1, [r3, #12]	@ unaligned
 439 01cc 127C     		ldrb	r2, [r2, #16]
 440 01ce 1A74     		strb	r2, [r3, #16]
 120:build/OpenMote-CC2538_armgcc/openstack/02b-MAChigh/neighbors.c ****       addressToWrite->type=ADDR_64B;
 441              		.loc 1 120 0
 442 01d0 7B68     		ldr	r3, [r7, #4]
 443 01d2 0222     		movs	r2, #2
 444 01d4 1A70     		strb	r2, [r3]
 121:build/OpenMote-CC2538_armgcc/openstack/02b-MAChigh/neighbors.c ****       foundPreferred=TRUE;         
 445              		.loc 1 121 0
 446 01d6 0123     		movs	r3, #1
 447 01d8 BB73     		strb	r3, [r7, #14]
 448              	.L23:
 122:build/OpenMote-CC2538_armgcc/openstack/02b-MAChigh/neighbors.c ****    }
 123:build/OpenMote-CC2538_armgcc/openstack/02b-MAChigh/neighbors.c ****    
 124:build/OpenMote-CC2538_armgcc/openstack/02b-MAChigh/neighbors.c ****    return foundPreferred;
 449              		.loc 1 124 0
 450 01da BB7B     		ldrb	r3, [r7, #14]	@ zero_extendqisi2
 125:build/OpenMote-CC2538_armgcc/openstack/02b-MAChigh/neighbors.c **** }
 451              		.loc 1 125 0
 452 01dc 1846     		mov	r0, r3
 453 01de 1437     		adds	r7, r7, #20
 454              		.cfi_def_cfa_offset 12
 455 01e0 BD46     		mov	sp, r7
 456              		.cfi_def_cfa_register 13
 457              		@ sp needed
 458 01e2 B0BC     		pop	{r4, r5, r7}
 459              		.cfi_restore 7
 460              		.cfi_restore 5
 461              		.cfi_restore 4
 462              		.cfi_def_cfa_offset 0
 463 01e4 7047     		bx	lr
 464              	.L26:
 465 01e6 00BF     		.align	2
 466              	.L25:
 467 01e8 00000000 		.word	neighbors_vars
 468              		.cfi_endproc
 469              	.LFE3:
 471              		.align	2
 472              		.global	neighbors_getKANeighbor
 473              		.thumb
 474              		.thumb_func
 476              	neighbors_getKANeighbor:
 477              	.LFB4:
 126:build/OpenMote-CC2538_armgcc/openstack/02b-MAChigh/neighbors.c **** 
 127:build/OpenMote-CC2538_armgcc/openstack/02b-MAChigh/neighbors.c **** /**
 128:build/OpenMote-CC2538_armgcc/openstack/02b-MAChigh/neighbors.c **** \brief Find neighbor to which to send KA.
 129:build/OpenMote-CC2538_armgcc/openstack/02b-MAChigh/neighbors.c **** 
 130:build/OpenMote-CC2538_armgcc/openstack/02b-MAChigh/neighbors.c **** This function iterates through the neighbor table and identifies the neighbor
 131:build/OpenMote-CC2538_armgcc/openstack/02b-MAChigh/neighbors.c **** we need to send a KA to, if any. This neighbor satisfies the following
 132:build/OpenMote-CC2538_armgcc/openstack/02b-MAChigh/neighbors.c **** conditions:
 133:build/OpenMote-CC2538_armgcc/openstack/02b-MAChigh/neighbors.c **** - it is one of our preferred parents
 134:build/OpenMote-CC2538_armgcc/openstack/02b-MAChigh/neighbors.c **** - we haven't heard it for over kaPeriod
 135:build/OpenMote-CC2538_armgcc/openstack/02b-MAChigh/neighbors.c **** 
 136:build/OpenMote-CC2538_armgcc/openstack/02b-MAChigh/neighbors.c **** \param[in] kaPeriod The maximum number of slots I'm allowed not to have heard
 137:build/OpenMote-CC2538_armgcc/openstack/02b-MAChigh/neighbors.c ****    it.
 138:build/OpenMote-CC2538_armgcc/openstack/02b-MAChigh/neighbors.c **** 
 139:build/OpenMote-CC2538_armgcc/openstack/02b-MAChigh/neighbors.c **** \returns A pointer to the neighbor's address, or NULL if no KA is needed.
 140:build/OpenMote-CC2538_armgcc/openstack/02b-MAChigh/neighbors.c **** */
 141:build/OpenMote-CC2538_armgcc/openstack/02b-MAChigh/neighbors.c **** open_addr_t* neighbors_getKANeighbor(uint16_t kaPeriod) {
 478              		.loc 1 141 0
 479              		.cfi_startproc
 480              		@ args = 0, pretend = 0, frame = 24
 481              		@ frame_needed = 1, uses_anonymous_args = 0
 482 01ec 80B5     		push	{r7, lr}
 483              		.cfi_def_cfa_offset 8
 484              		.cfi_offset 7, -8
 485              		.cfi_offset 14, -4
 486 01ee 86B0     		sub	sp, sp, #24
 487              		.cfi_def_cfa_offset 32
 488 01f0 00AF     		add	r7, sp, #0
 489              		.cfi_def_cfa_register 7
 490 01f2 0346     		mov	r3, r0
 491 01f4 FB80     		strh	r3, [r7, #6]	@ movhi
 142:build/OpenMote-CC2538_armgcc/openstack/02b-MAChigh/neighbors.c ****    uint8_t         i;
 143:build/OpenMote-CC2538_armgcc/openstack/02b-MAChigh/neighbors.c ****    uint16_t        timeSinceHeard;
 144:build/OpenMote-CC2538_armgcc/openstack/02b-MAChigh/neighbors.c ****    open_addr_t*    addrPreferred;
 145:build/OpenMote-CC2538_armgcc/openstack/02b-MAChigh/neighbors.c ****    open_addr_t*    addrOther;
 146:build/OpenMote-CC2538_armgcc/openstack/02b-MAChigh/neighbors.c ****    
 147:build/OpenMote-CC2538_armgcc/openstack/02b-MAChigh/neighbors.c ****    // initialize
 148:build/OpenMote-CC2538_armgcc/openstack/02b-MAChigh/neighbors.c ****    addrPreferred = NULL;
 492              		.loc 1 148 0
 493 01f6 0023     		movs	r3, #0
 494 01f8 3B61     		str	r3, [r7, #16]
 149:build/OpenMote-CC2538_armgcc/openstack/02b-MAChigh/neighbors.c ****    addrOther     = NULL;
 495              		.loc 1 149 0
 496 01fa 0023     		movs	r3, #0
 497 01fc FB60     		str	r3, [r7, #12]
 150:build/OpenMote-CC2538_armgcc/openstack/02b-MAChigh/neighbors.c ****    
 151:build/OpenMote-CC2538_armgcc/openstack/02b-MAChigh/neighbors.c ****    // scan through the neighbor table, and populate addrPreferred and addrOther
 152:build/OpenMote-CC2538_armgcc/openstack/02b-MAChigh/neighbors.c ****    for (i=0;i<MAXNUMNEIGHBORS;i++) {
 498              		.loc 1 152 0
 499 01fe 0023     		movs	r3, #0
 500 0200 FB75     		strb	r3, [r7, #23]
 501 0202 31E0     		b	.L28
 502              	.L30:
 153:build/OpenMote-CC2538_armgcc/openstack/02b-MAChigh/neighbors.c ****       if (neighbors_vars.neighbors[i].used==1) {
 503              		.loc 1 153 0
 504 0204 FA7D     		ldrb	r2, [r7, #23]	@ zero_extendqisi2
 505 0206 2149     		ldr	r1, .L34
 506 0208 1346     		mov	r3, r2
 507 020a 1B01     		lsls	r3, r3, #4
 508 020c 1344     		add	r3, r3, r2
 509 020e 5B00     		lsls	r3, r3, #1
 510 0210 0B44     		add	r3, r3, r1
 511 0212 1B78     		ldrb	r3, [r3]	@ zero_extendqisi2
 512 0214 002B     		cmp	r3, #0
 513 0216 24D0     		beq	.L29
 154:build/OpenMote-CC2538_armgcc/openstack/02b-MAChigh/neighbors.c ****          timeSinceHeard = ieee154e_asnDiff(&neighbors_vars.neighbors[i].asn);
 514              		.loc 1 154 0
 515 0218 FA7D     		ldrb	r2, [r7, #23]	@ zero_extendqisi2
 516 021a 1346     		mov	r3, r2
 517 021c 1B01     		lsls	r3, r3, #4
 518 021e 1344     		add	r3, r3, r2
 519 0220 5B00     		lsls	r3, r3, #1
 520 0222 1833     		adds	r3, r3, #24
 521 0224 194A     		ldr	r2, .L34
 522 0226 1344     		add	r3, r3, r2
 523 0228 0433     		adds	r3, r3, #4
 524 022a 1846     		mov	r0, r3
 525 022c FFF7FEFF 		bl	ieee154e_asnDiff
 526 0230 0346     		mov	r3, r0
 527 0232 7B81     		strh	r3, [r7, #10]	@ movhi
 155:build/OpenMote-CC2538_armgcc/openstack/02b-MAChigh/neighbors.c ****          if (timeSinceHeard>kaPeriod) {
 528              		.loc 1 155 0
 529 0234 7A89     		ldrh	r2, [r7, #10]
 530 0236 FB88     		ldrh	r3, [r7, #6]
 531 0238 9A42     		cmp	r2, r3
 532 023a 12D9     		bls	.L29
 156:build/OpenMote-CC2538_armgcc/openstack/02b-MAChigh/neighbors.c ****             // this neighbor needs to be KA'ed to
 157:build/OpenMote-CC2538_armgcc/openstack/02b-MAChigh/neighbors.c ****             if (neighbors_vars.neighbors[i].parentPreference==MAXPREFERENCE) {
 533              		.loc 1 157 0
 534 023c FA7D     		ldrb	r2, [r7, #23]	@ zero_extendqisi2
 535 023e 1349     		ldr	r1, .L34
 536 0240 1346     		mov	r3, r2
 537 0242 1B01     		lsls	r3, r3, #4
 538 0244 1344     		add	r3, r3, r2
 539 0246 5B00     		lsls	r3, r3, #1
 540 0248 0B44     		add	r3, r3, r1
 541 024a 5B78     		ldrb	r3, [r3, #1]	@ zero_extendqisi2
 542 024c 022B     		cmp	r3, #2
 543 024e 08D1     		bne	.L29
 158:build/OpenMote-CC2538_armgcc/openstack/02b-MAChigh/neighbors.c ****                // its a preferred parent
 159:build/OpenMote-CC2538_armgcc/openstack/02b-MAChigh/neighbors.c ****                addrPreferred = &(neighbors_vars.neighbors[i].addr_64b);
 544              		.loc 1 159 0
 545 0250 FA7D     		ldrb	r2, [r7, #23]	@ zero_extendqisi2
 546 0252 1346     		mov	r3, r2
 547 0254 1B01     		lsls	r3, r3, #4
 548 0256 1344     		add	r3, r3, r2
 549 0258 5B00     		lsls	r3, r3, #1
 550 025a 0C4A     		ldr	r2, .L34
 551 025c 1344     		add	r3, r3, r2
 552 025e 0433     		adds	r3, r3, #4
 553 0260 3B61     		str	r3, [r7, #16]
 554              	.L29:
 152:build/OpenMote-CC2538_armgcc/openstack/02b-MAChigh/neighbors.c ****       if (neighbors_vars.neighbors[i].used==1) {
 555              		.loc 1 152 0 discriminator 2
 556 0262 FB7D     		ldrb	r3, [r7, #23]	@ zero_extendqisi2
 557 0264 0133     		adds	r3, r3, #1
 558 0266 FB75     		strb	r3, [r7, #23]
 559              	.L28:
 152:build/OpenMote-CC2538_armgcc/openstack/02b-MAChigh/neighbors.c ****       if (neighbors_vars.neighbors[i].used==1) {
 560              		.loc 1 152 0 is_stmt 0 discriminator 1
 561 0268 FB7D     		ldrb	r3, [r7, #23]	@ zero_extendqisi2
 562 026a 092B     		cmp	r3, #9
 563 026c CAD9     		bls	.L30
 160:build/OpenMote-CC2538_armgcc/openstack/02b-MAChigh/neighbors.c ****             } else {
 161:build/OpenMote-CC2538_armgcc/openstack/02b-MAChigh/neighbors.c ****                // its not a preferred parent
 162:build/OpenMote-CC2538_armgcc/openstack/02b-MAChigh/neighbors.c ****                // Note: commented out since policy is not to KA to non-preferred parents
 163:build/OpenMote-CC2538_armgcc/openstack/02b-MAChigh/neighbors.c ****                // addrOther =     &(neighbors_vars.neighbors[i].addr_64b);
 164:build/OpenMote-CC2538_armgcc/openstack/02b-MAChigh/neighbors.c ****             }
 165:build/OpenMote-CC2538_armgcc/openstack/02b-MAChigh/neighbors.c ****          }
 166:build/OpenMote-CC2538_armgcc/openstack/02b-MAChigh/neighbors.c ****       }
 167:build/OpenMote-CC2538_armgcc/openstack/02b-MAChigh/neighbors.c ****    }
 168:build/OpenMote-CC2538_armgcc/openstack/02b-MAChigh/neighbors.c ****    
 169:build/OpenMote-CC2538_armgcc/openstack/02b-MAChigh/neighbors.c ****    // return the EUI64 of the most urgent KA to send:
 170:build/OpenMote-CC2538_armgcc/openstack/02b-MAChigh/neighbors.c ****    // - if available, preferred parent
 171:build/OpenMote-CC2538_armgcc/openstack/02b-MAChigh/neighbors.c ****    // - if not, non-preferred parent
 172:build/OpenMote-CC2538_armgcc/openstack/02b-MAChigh/neighbors.c ****    if        (addrPreferred!=NULL) {
 564              		.loc 1 172 0 is_stmt 1
 565 026e 3B69     		ldr	r3, [r7, #16]
 566 0270 002B     		cmp	r3, #0
 567 0272 01D0     		beq	.L31
 173:build/OpenMote-CC2538_armgcc/openstack/02b-MAChigh/neighbors.c ****       return addrPreferred;
 568              		.loc 1 173 0
 569 0274 3B69     		ldr	r3, [r7, #16]
 570 0276 05E0     		b	.L32
 571              	.L31:
 174:build/OpenMote-CC2538_armgcc/openstack/02b-MAChigh/neighbors.c ****    } else if (addrOther!=NULL) {
 572              		.loc 1 174 0
 573 0278 FB68     		ldr	r3, [r7, #12]
 574 027a 002B     		cmp	r3, #0
 575 027c 01D0     		beq	.L33
 175:build/OpenMote-CC2538_armgcc/openstack/02b-MAChigh/neighbors.c ****       return addrOther;
 576              		.loc 1 175 0
 577 027e FB68     		ldr	r3, [r7, #12]
 578 0280 00E0     		b	.L32
 579              	.L33:
 176:build/OpenMote-CC2538_armgcc/openstack/02b-MAChigh/neighbors.c ****    } else {
 177:build/OpenMote-CC2538_armgcc/openstack/02b-MAChigh/neighbors.c ****       return NULL;
 580              		.loc 1 177 0
 581 0282 0023     		movs	r3, #0
 582              	.L32:
 178:build/OpenMote-CC2538_armgcc/openstack/02b-MAChigh/neighbors.c ****    }
 179:build/OpenMote-CC2538_armgcc/openstack/02b-MAChigh/neighbors.c **** }
 583              		.loc 1 179 0
 584 0284 1846     		mov	r0, r3
 585 0286 1837     		adds	r7, r7, #24
 586              		.cfi_def_cfa_offset 8
 587 0288 BD46     		mov	sp, r7
 588              		.cfi_def_cfa_register 13
 589              		@ sp needed
 590 028a 80BD     		pop	{r7, pc}
 591              	.L35:
 592              		.align	2
 593              	.L34:
 594 028c 00000000 		.word	neighbors_vars
 595              		.cfi_endproc
 596              	.LFE4:
 598              		.align	2
 599              		.global	neighbors_isStableNeighbor
 600              		.thumb
 601              		.thumb_func
 603              	neighbors_isStableNeighbor:
 604              	.LFB5:
 180:build/OpenMote-CC2538_armgcc/openstack/02b-MAChigh/neighbors.c **** 
 181:build/OpenMote-CC2538_armgcc/openstack/02b-MAChigh/neighbors.c **** //===== interrogators
 182:build/OpenMote-CC2538_armgcc/openstack/02b-MAChigh/neighbors.c **** 
 183:build/OpenMote-CC2538_armgcc/openstack/02b-MAChigh/neighbors.c **** /**
 184:build/OpenMote-CC2538_armgcc/openstack/02b-MAChigh/neighbors.c **** \brief Indicate whether some neighbor is a stable neighbor
 185:build/OpenMote-CC2538_armgcc/openstack/02b-MAChigh/neighbors.c **** 
 186:build/OpenMote-CC2538_armgcc/openstack/02b-MAChigh/neighbors.c **** \param[in] address The address of the neighbor, a full 128-bit IPv6 addres.
 187:build/OpenMote-CC2538_armgcc/openstack/02b-MAChigh/neighbors.c **** 
 188:build/OpenMote-CC2538_armgcc/openstack/02b-MAChigh/neighbors.c **** \returns TRUE if that neighbor is stable, FALSE otherwise.
 189:build/OpenMote-CC2538_armgcc/openstack/02b-MAChigh/neighbors.c **** */
 190:build/OpenMote-CC2538_armgcc/openstack/02b-MAChigh/neighbors.c **** bool neighbors_isStableNeighbor(open_addr_t* address) {
 605              		.loc 1 190 0
 606              		.cfi_startproc
 607              		@ args = 0, pretend = 0, frame = 48
 608              		@ frame_needed = 1, uses_anonymous_args = 0
 609 0290 80B5     		push	{r7, lr}
 610              		.cfi_def_cfa_offset 8
 611              		.cfi_offset 7, -8
 612              		.cfi_offset 14, -4
 613 0292 8CB0     		sub	sp, sp, #48
 614              		.cfi_def_cfa_offset 56
 615 0294 00AF     		add	r7, sp, #0
 616              		.cfi_def_cfa_register 7
 617 0296 7860     		str	r0, [r7, #4]
 191:build/OpenMote-CC2538_armgcc/openstack/02b-MAChigh/neighbors.c ****    uint8_t     i;
 192:build/OpenMote-CC2538_armgcc/openstack/02b-MAChigh/neighbors.c ****    open_addr_t temp_addr_64b;
 193:build/OpenMote-CC2538_armgcc/openstack/02b-MAChigh/neighbors.c ****    open_addr_t temp_prefix;
 194:build/OpenMote-CC2538_armgcc/openstack/02b-MAChigh/neighbors.c ****    bool        returnVal;
 195:build/OpenMote-CC2538_armgcc/openstack/02b-MAChigh/neighbors.c ****    
 196:build/OpenMote-CC2538_armgcc/openstack/02b-MAChigh/neighbors.c ****    // by default, not stable
 197:build/OpenMote-CC2538_armgcc/openstack/02b-MAChigh/neighbors.c ****    returnVal  = FALSE;
 618              		.loc 1 197 0
 619 0298 0023     		movs	r3, #0
 620 029a 87F82E30 		strb	r3, [r7, #46]
 198:build/OpenMote-CC2538_armgcc/openstack/02b-MAChigh/neighbors.c ****    
 199:build/OpenMote-CC2538_armgcc/openstack/02b-MAChigh/neighbors.c ****    // but neighbor's IPv6 address in prefix and EUI64
 200:build/OpenMote-CC2538_armgcc/openstack/02b-MAChigh/neighbors.c ****    switch (address->type) {
 621              		.loc 1 200 0
 622 029e 7B68     		ldr	r3, [r7, #4]
 623 02a0 1B78     		ldrb	r3, [r3]	@ zero_extendqisi2
 624 02a2 032B     		cmp	r3, #3
 625 02a4 0DD1     		bne	.L46
 201:build/OpenMote-CC2538_armgcc/openstack/02b-MAChigh/neighbors.c ****       case ADDR_128B:
 202:build/OpenMote-CC2538_armgcc/openstack/02b-MAChigh/neighbors.c ****          packetfunctions_ip128bToMac64b(address,&temp_prefix,&temp_addr_64b);
 626              		.loc 1 202 0
 627 02a6 07F10802 		add	r2, r7, #8
 628 02aa 07F11C03 		add	r3, r7, #28
 629 02ae 7868     		ldr	r0, [r7, #4]
 630 02b0 1146     		mov	r1, r2
 631 02b2 1A46     		mov	r2, r3
 632 02b4 FFF7FEFF 		bl	packetfunctions_ip128bToMac64b
 203:build/OpenMote-CC2538_armgcc/openstack/02b-MAChigh/neighbors.c ****          break;
 633              		.loc 1 203 0
 634 02b8 00BF     		nop
 204:build/OpenMote-CC2538_armgcc/openstack/02b-MAChigh/neighbors.c ****       default:
 205:build/OpenMote-CC2538_armgcc/openstack/02b-MAChigh/neighbors.c ****          openserial_printCritical(COMPONENT_NEIGHBORS,ERR_WRONG_ADDR_TYPE,
 206:build/OpenMote-CC2538_armgcc/openstack/02b-MAChigh/neighbors.c ****                                (errorparameter_t)address->type,
 207:build/OpenMote-CC2538_armgcc/openstack/02b-MAChigh/neighbors.c ****                                (errorparameter_t)0);
 208:build/OpenMote-CC2538_armgcc/openstack/02b-MAChigh/neighbors.c ****          return returnVal;
 209:build/OpenMote-CC2538_armgcc/openstack/02b-MAChigh/neighbors.c ****    }
 210:build/OpenMote-CC2538_armgcc/openstack/02b-MAChigh/neighbors.c ****    
 211:build/OpenMote-CC2538_armgcc/openstack/02b-MAChigh/neighbors.c ****    // iterate through neighbor table
 212:build/OpenMote-CC2538_armgcc/openstack/02b-MAChigh/neighbors.c ****    for (i=0;i<MAXNUMNEIGHBORS;i++) {
 635              		.loc 1 212 0
 636 02ba 0023     		movs	r3, #0
 637 02bc 87F82F30 		strb	r3, [r7, #47]
 638 02c0 2AE0     		b	.L41
 639              	.L46:
 206:build/OpenMote-CC2538_armgcc/openstack/02b-MAChigh/neighbors.c ****                                (errorparameter_t)0);
 640              		.loc 1 206 0
 641 02c2 7B68     		ldr	r3, [r7, #4]
 642 02c4 1B78     		ldrb	r3, [r3]	@ zero_extendqisi2
 205:build/OpenMote-CC2538_armgcc/openstack/02b-MAChigh/neighbors.c ****                                (errorparameter_t)address->type,
 643              		.loc 1 205 0
 644 02c6 9BB2     		uxth	r3, r3
 645 02c8 0D20     		movs	r0, #13
 646 02ca 3121     		movs	r1, #49
 647 02cc 1A46     		mov	r2, r3
 648 02ce 0023     		movs	r3, #0
 649 02d0 FFF7FEFF 		bl	openserial_printCritical
 208:build/OpenMote-CC2538_armgcc/openstack/02b-MAChigh/neighbors.c ****    }
 650              		.loc 1 208 0
 651 02d4 97F82E30 		ldrb	r3, [r7, #46]	@ zero_extendqisi2
 652 02d8 24E0     		b	.L45
 653              	.L44:
 213:build/OpenMote-CC2538_armgcc/openstack/02b-MAChigh/neighbors.c ****       if (isThisRowMatching(&temp_addr_64b,i) && neighbors_vars.neighbors[i].stableNeighbor==TRUE) 
 654              		.loc 1 213 0
 655 02da 07F11C02 		add	r2, r7, #28
 656 02de 97F82F30 		ldrb	r3, [r7, #47]	@ zero_extendqisi2
 657 02e2 1046     		mov	r0, r2
 658 02e4 1946     		mov	r1, r3
 659 02e6 FFF7FEFF 		bl	isThisRowMatching
 660 02ea 0346     		mov	r3, r0
 661 02ec 002B     		cmp	r3, #0
 662 02ee 0ED0     		beq	.L42
 663              		.loc 1 213 0 is_stmt 0 discriminator 1
 664 02f0 97F82F20 		ldrb	r2, [r7, #47]	@ zero_extendqisi2
 665 02f4 0D49     		ldr	r1, .L47
 666 02f6 1346     		mov	r3, r2
 667 02f8 1B01     		lsls	r3, r3, #4
 668 02fa 1344     		add	r3, r3, r2
 669 02fc 5B00     		lsls	r3, r3, #1
 670 02fe 0B44     		add	r3, r3, r1
 671 0300 9B78     		ldrb	r3, [r3, #2]	@ zero_extendqisi2
 672 0302 002B     		cmp	r3, #0
 673 0304 03D0     		beq	.L42
 214:build/OpenMote-CC2538_armgcc/openstack/02b-MAChigh/neighbors.c ****          returnVal  = TRUE;
 674              		.loc 1 214 0 is_stmt 1
 675 0306 0123     		movs	r3, #1
 676 0308 87F82E30 		strb	r3, [r7, #46]
 215:build/OpenMote-CC2538_armgcc/openstack/02b-MAChigh/neighbors.c ****          break;
 677              		.loc 1 215 0
 678 030c 08E0     		b	.L43
 679              	.L42:
 212:build/OpenMote-CC2538_armgcc/openstack/02b-MAChigh/neighbors.c ****       if (isThisRowMatching(&temp_addr_64b,i) && neighbors_vars.neighbors[i].stableNeighbor==TRUE) 
 680              		.loc 1 212 0 discriminator 2
 681 030e 97F82F30 		ldrb	r3, [r7, #47]	@ zero_extendqisi2
 682 0312 0133     		adds	r3, r3, #1
 683 0314 87F82F30 		strb	r3, [r7, #47]
 684              	.L41:
 212:build/OpenMote-CC2538_armgcc/openstack/02b-MAChigh/neighbors.c ****       if (isThisRowMatching(&temp_addr_64b,i) && neighbors_vars.neighbors[i].stableNeighbor==TRUE) 
 685              		.loc 1 212 0 is_stmt 0 discriminator 1
 686 0318 97F82F30 		ldrb	r3, [r7, #47]	@ zero_extendqisi2
 687 031c 092B     		cmp	r3, #9
 688 031e DCD9     		bls	.L44
 689              	.L43:
 216:build/OpenMote-CC2538_armgcc/openstack/02b-MAChigh/neighbors.c ****       }
 217:build/OpenMote-CC2538_armgcc/openstack/02b-MAChigh/neighbors.c ****    }
 218:build/OpenMote-CC2538_armgcc/openstack/02b-MAChigh/neighbors.c ****    
 219:build/OpenMote-CC2538_armgcc/openstack/02b-MAChigh/neighbors.c ****    return returnVal;
 690              		.loc 1 219 0 is_stmt 1
 691 0320 97F82E30 		ldrb	r3, [r7, #46]	@ zero_extendqisi2
 692              	.L45:
 220:build/OpenMote-CC2538_armgcc/openstack/02b-MAChigh/neighbors.c **** }
 693              		.loc 1 220 0 discriminator 1
 694 0324 1846     		mov	r0, r3
 695 0326 3037     		adds	r7, r7, #48
 696              		.cfi_def_cfa_offset 8
 697 0328 BD46     		mov	sp, r7
 698              		.cfi_def_cfa_register 13
 699              		@ sp needed
 700 032a 80BD     		pop	{r7, pc}
 701              	.L48:
 702              		.align	2
 703              	.L47:
 704 032c 00000000 		.word	neighbors_vars
 705              		.cfi_endproc
 706              	.LFE5:
 708              		.align	2
 709              		.global	neighbors_isPreferredParent
 710              		.thumb
 711              		.thumb_func
 713              	neighbors_isPreferredParent:
 714              	.LFB6:
 221:build/OpenMote-CC2538_armgcc/openstack/02b-MAChigh/neighbors.c **** 
 222:build/OpenMote-CC2538_armgcc/openstack/02b-MAChigh/neighbors.c **** /**
 223:build/OpenMote-CC2538_armgcc/openstack/02b-MAChigh/neighbors.c **** \brief Indicate whether some neighbor is a preferred neighbor.
 224:build/OpenMote-CC2538_armgcc/openstack/02b-MAChigh/neighbors.c **** 
 225:build/OpenMote-CC2538_armgcc/openstack/02b-MAChigh/neighbors.c **** \param[in] address The EUI64 address of the neighbor.
 226:build/OpenMote-CC2538_armgcc/openstack/02b-MAChigh/neighbors.c **** 
 227:build/OpenMote-CC2538_armgcc/openstack/02b-MAChigh/neighbors.c **** \returns TRUE if that neighbor is preferred, FALSE otherwise.
 228:build/OpenMote-CC2538_armgcc/openstack/02b-MAChigh/neighbors.c **** */
 229:build/OpenMote-CC2538_armgcc/openstack/02b-MAChigh/neighbors.c **** bool neighbors_isPreferredParent(open_addr_t* address) {
 715              		.loc 1 229 0
 716              		.cfi_startproc
 717              		@ args = 0, pretend = 0, frame = 16
 718              		@ frame_needed = 1, uses_anonymous_args = 0
 719 0330 80B5     		push	{r7, lr}
 720              		.cfi_def_cfa_offset 8
 721              		.cfi_offset 7, -8
 722              		.cfi_offset 14, -4
 723 0332 84B0     		sub	sp, sp, #16
 724              		.cfi_def_cfa_offset 24
 725 0334 00AF     		add	r7, sp, #0
 726              		.cfi_def_cfa_register 7
 727 0336 7860     		str	r0, [r7, #4]
 230:build/OpenMote-CC2538_armgcc/openstack/02b-MAChigh/neighbors.c ****    uint8_t i;
 231:build/OpenMote-CC2538_armgcc/openstack/02b-MAChigh/neighbors.c ****    bool    returnVal;
 232:build/OpenMote-CC2538_armgcc/openstack/02b-MAChigh/neighbors.c ****    
 233:build/OpenMote-CC2538_armgcc/openstack/02b-MAChigh/neighbors.c ****    INTERRUPT_DECLARATION();
 234:build/OpenMote-CC2538_armgcc/openstack/02b-MAChigh/neighbors.c ****    DISABLE_INTERRUPTS();
 728              		.loc 1 234 0
 729 0338 FFF7FEFF 		bl	IntMasterDisable
 235:build/OpenMote-CC2538_armgcc/openstack/02b-MAChigh/neighbors.c ****    
 236:build/OpenMote-CC2538_armgcc/openstack/02b-MAChigh/neighbors.c ****    // by default, not preferred
 237:build/OpenMote-CC2538_armgcc/openstack/02b-MAChigh/neighbors.c ****    returnVal = FALSE;
 730              		.loc 1 237 0
 731 033c 0023     		movs	r3, #0
 732 033e BB73     		strb	r3, [r7, #14]
 238:build/OpenMote-CC2538_armgcc/openstack/02b-MAChigh/neighbors.c ****    
 239:build/OpenMote-CC2538_armgcc/openstack/02b-MAChigh/neighbors.c ****    // iterate through neighbor table
 240:build/OpenMote-CC2538_armgcc/openstack/02b-MAChigh/neighbors.c ****    for (i=0;i<MAXNUMNEIGHBORS;i++) {
 733              		.loc 1 240 0
 734 0340 0023     		movs	r3, #0
 735 0342 FB73     		strb	r3, [r7, #15]
 736 0344 17E0     		b	.L50
 737              	.L53:
 241:build/OpenMote-CC2538_armgcc/openstack/02b-MAChigh/neighbors.c ****       if (isThisRowMatching(address,i) && neighbors_vars.neighbors[i].parentPreference==MAXPREFEREN
 738              		.loc 1 241 0
 739 0346 FB7B     		ldrb	r3, [r7, #15]	@ zero_extendqisi2
 740 0348 7868     		ldr	r0, [r7, #4]
 741 034a 1946     		mov	r1, r3
 742 034c FFF7FEFF 		bl	isThisRowMatching
 743 0350 0346     		mov	r3, r0
 744 0352 002B     		cmp	r3, #0
 745 0354 0CD0     		beq	.L51
 746              		.loc 1 241 0 is_stmt 0 discriminator 1
 747 0356 FA7B     		ldrb	r2, [r7, #15]	@ zero_extendqisi2
 748 0358 0C49     		ldr	r1, .L55
 749 035a 1346     		mov	r3, r2
 750 035c 1B01     		lsls	r3, r3, #4
 751 035e 1344     		add	r3, r3, r2
 752 0360 5B00     		lsls	r3, r3, #1
 753 0362 0B44     		add	r3, r3, r1
 754 0364 5B78     		ldrb	r3, [r3, #1]	@ zero_extendqisi2
 755 0366 022B     		cmp	r3, #2
 756 0368 02D1     		bne	.L51
 242:build/OpenMote-CC2538_armgcc/openstack/02b-MAChigh/neighbors.c ****          returnVal  = TRUE;
 757              		.loc 1 242 0 is_stmt 1
 758 036a 0123     		movs	r3, #1
 759 036c BB73     		strb	r3, [r7, #14]
 243:build/OpenMote-CC2538_armgcc/openstack/02b-MAChigh/neighbors.c ****          break;
 760              		.loc 1 243 0
 761 036e 05E0     		b	.L52
 762              	.L51:
 240:build/OpenMote-CC2538_armgcc/openstack/02b-MAChigh/neighbors.c ****       if (isThisRowMatching(address,i) && neighbors_vars.neighbors[i].parentPreference==MAXPREFEREN
 763              		.loc 1 240 0 discriminator 2
 764 0370 FB7B     		ldrb	r3, [r7, #15]	@ zero_extendqisi2
 765 0372 0133     		adds	r3, r3, #1
 766 0374 FB73     		strb	r3, [r7, #15]
 767              	.L50:
 240:build/OpenMote-CC2538_armgcc/openstack/02b-MAChigh/neighbors.c ****       if (isThisRowMatching(address,i) && neighbors_vars.neighbors[i].parentPreference==MAXPREFEREN
 768              		.loc 1 240 0 is_stmt 0 discriminator 1
 769 0376 FB7B     		ldrb	r3, [r7, #15]	@ zero_extendqisi2
 770 0378 092B     		cmp	r3, #9
 771 037a E4D9     		bls	.L53
 772              	.L52:
 244:build/OpenMote-CC2538_armgcc/openstack/02b-MAChigh/neighbors.c ****       }
 245:build/OpenMote-CC2538_armgcc/openstack/02b-MAChigh/neighbors.c ****    }
 246:build/OpenMote-CC2538_armgcc/openstack/02b-MAChigh/neighbors.c ****    
 247:build/OpenMote-CC2538_armgcc/openstack/02b-MAChigh/neighbors.c ****    ENABLE_INTERRUPTS();
 773              		.loc 1 247 0 is_stmt 1
 774 037c FFF7FEFF 		bl	IntMasterEnable
 248:build/OpenMote-CC2538_armgcc/openstack/02b-MAChigh/neighbors.c ****    return returnVal;
 775              		.loc 1 248 0
 776 0380 BB7B     		ldrb	r3, [r7, #14]	@ zero_extendqisi2
 249:build/OpenMote-CC2538_armgcc/openstack/02b-MAChigh/neighbors.c **** }
 777              		.loc 1 249 0
 778 0382 1846     		mov	r0, r3
 779 0384 1037     		adds	r7, r7, #16
 780              		.cfi_def_cfa_offset 8
 781 0386 BD46     		mov	sp, r7
 782              		.cfi_def_cfa_register 13
 783              		@ sp needed
 784 0388 80BD     		pop	{r7, pc}
 785              	.L56:
 786 038a 00BF     		.align	2
 787              	.L55:
 788 038c 00000000 		.word	neighbors_vars
 789              		.cfi_endproc
 790              	.LFE6:
 792              		.align	2
 793              		.global	neighbors_isNeighborWithLowerDAGrank
 794              		.thumb
 795              		.thumb_func
 797              	neighbors_isNeighborWithLowerDAGrank:
 798              	.LFB7:
 250:build/OpenMote-CC2538_armgcc/openstack/02b-MAChigh/neighbors.c **** 
 251:build/OpenMote-CC2538_armgcc/openstack/02b-MAChigh/neighbors.c **** /**
 252:build/OpenMote-CC2538_armgcc/openstack/02b-MAChigh/neighbors.c **** \brief Indicate whether some neighbor has a lower DAG rank that me.
 253:build/OpenMote-CC2538_armgcc/openstack/02b-MAChigh/neighbors.c **** 
 254:build/OpenMote-CC2538_armgcc/openstack/02b-MAChigh/neighbors.c **** \param[in] index The index of that neighbor in the neighbor table.
 255:build/OpenMote-CC2538_armgcc/openstack/02b-MAChigh/neighbors.c **** 
 256:build/OpenMote-CC2538_armgcc/openstack/02b-MAChigh/neighbors.c **** \returns TRUE if that neighbor has a lower DAG rank than me, FALSE otherwise.
 257:build/OpenMote-CC2538_armgcc/openstack/02b-MAChigh/neighbors.c **** */
 258:build/OpenMote-CC2538_armgcc/openstack/02b-MAChigh/neighbors.c **** bool neighbors_isNeighborWithLowerDAGrank(uint8_t index) {
 799              		.loc 1 258 0
 800              		.cfi_startproc
 801              		@ args = 0, pretend = 0, frame = 16
 802              		@ frame_needed = 1, uses_anonymous_args = 0
 803 0390 90B5     		push	{r4, r7, lr}
 804              		.cfi_def_cfa_offset 12
 805              		.cfi_offset 4, -12
 806              		.cfi_offset 7, -8
 807              		.cfi_offset 14, -4
 808 0392 85B0     		sub	sp, sp, #20
 809              		.cfi_def_cfa_offset 32
 810 0394 00AF     		add	r7, sp, #0
 811              		.cfi_def_cfa_register 7
 812 0396 0346     		mov	r3, r0
 813 0398 FB71     		strb	r3, [r7, #7]
 259:build/OpenMote-CC2538_armgcc/openstack/02b-MAChigh/neighbors.c ****    bool    returnVal;
 260:build/OpenMote-CC2538_armgcc/openstack/02b-MAChigh/neighbors.c ****    
 261:build/OpenMote-CC2538_armgcc/openstack/02b-MAChigh/neighbors.c ****    if (neighbors_vars.neighbors[index].used==TRUE &&
 814              		.loc 1 261 0
 815 039a FA79     		ldrb	r2, [r7, #7]	@ zero_extendqisi2
 816 039c 1149     		ldr	r1, .L61
 817 039e 1346     		mov	r3, r2
 818 03a0 1B01     		lsls	r3, r3, #4
 819 03a2 1344     		add	r3, r3, r2
 820 03a4 5B00     		lsls	r3, r3, #1
 821 03a6 0B44     		add	r3, r3, r1
 822 03a8 1B78     		ldrb	r3, [r3]	@ zero_extendqisi2
 823 03aa 002B     		cmp	r3, #0
 824 03ac 12D0     		beq	.L58
 262:build/OpenMote-CC2538_armgcc/openstack/02b-MAChigh/neighbors.c ****        neighbors_vars.neighbors[index].DAGrank < neighbors_getMyDAGrank()) { 
 825              		.loc 1 262 0 discriminator 1
 826 03ae FA79     		ldrb	r2, [r7, #7]	@ zero_extendqisi2
 827 03b0 0C49     		ldr	r1, .L61
 828 03b2 1346     		mov	r3, r2
 829 03b4 1B01     		lsls	r3, r3, #4
 830 03b6 1344     		add	r3, r3, r2
 831 03b8 5B00     		lsls	r3, r3, #1
 832 03ba 0B44     		add	r3, r3, r1
 833 03bc 1033     		adds	r3, r3, #16
 834 03be B3F80530 		ldrh	r3, [r3, #5]	@ unaligned
 835 03c2 9CB2     		uxth	r4, r3
 836 03c4 FFF7FEFF 		bl	neighbors_getMyDAGrank
 837 03c8 0346     		mov	r3, r0
 261:build/OpenMote-CC2538_armgcc/openstack/02b-MAChigh/neighbors.c ****        neighbors_vars.neighbors[index].DAGrank < neighbors_getMyDAGrank()) { 
 838              		.loc 1 261 0 discriminator 1
 839 03ca 9C42     		cmp	r4, r3
 840 03cc 02D2     		bcs	.L58
 263:build/OpenMote-CC2538_armgcc/openstack/02b-MAChigh/neighbors.c ****       returnVal = TRUE;
 841              		.loc 1 263 0
 842 03ce 0123     		movs	r3, #1
 843 03d0 FB73     		strb	r3, [r7, #15]
 844 03d2 01E0     		b	.L59
 845              	.L58:
 264:build/OpenMote-CC2538_armgcc/openstack/02b-MAChigh/neighbors.c ****    } else {
 265:build/OpenMote-CC2538_armgcc/openstack/02b-MAChigh/neighbors.c ****       returnVal = FALSE;
 846              		.loc 1 265 0
 847 03d4 0023     		movs	r3, #0
 848 03d6 FB73     		strb	r3, [r7, #15]
 849              	.L59:
 266:build/OpenMote-CC2538_armgcc/openstack/02b-MAChigh/neighbors.c ****    }
 267:build/OpenMote-CC2538_armgcc/openstack/02b-MAChigh/neighbors.c ****    
 268:build/OpenMote-CC2538_armgcc/openstack/02b-MAChigh/neighbors.c ****    return returnVal;
 850              		.loc 1 268 0
 851 03d8 FB7B     		ldrb	r3, [r7, #15]	@ zero_extendqisi2
 269:build/OpenMote-CC2538_armgcc/openstack/02b-MAChigh/neighbors.c **** }
 852              		.loc 1 269 0
 853 03da 1846     		mov	r0, r3
 854 03dc 1437     		adds	r7, r7, #20
 855              		.cfi_def_cfa_offset 12
 856 03de BD46     		mov	sp, r7
 857              		.cfi_def_cfa_register 13
 858              		@ sp needed
 859 03e0 90BD     		pop	{r4, r7, pc}
 860              	.L62:
 861 03e2 00BF     		.align	2
 862              	.L61:
 863 03e4 00000000 		.word	neighbors_vars
 864              		.cfi_endproc
 865              	.LFE7:
 867              		.align	2
 868              		.global	neighbors_isNeighborWithHigherDAGrank
 869              		.thumb
 870              		.thumb_func
 872              	neighbors_isNeighborWithHigherDAGrank:
 873              	.LFB8:
 270:build/OpenMote-CC2538_armgcc/openstack/02b-MAChigh/neighbors.c **** 
 271:build/OpenMote-CC2538_armgcc/openstack/02b-MAChigh/neighbors.c **** 
 272:build/OpenMote-CC2538_armgcc/openstack/02b-MAChigh/neighbors.c **** /**
 273:build/OpenMote-CC2538_armgcc/openstack/02b-MAChigh/neighbors.c **** \brief Indicate whether some neighbor has a lower DAG rank that me.
 274:build/OpenMote-CC2538_armgcc/openstack/02b-MAChigh/neighbors.c **** 
 275:build/OpenMote-CC2538_armgcc/openstack/02b-MAChigh/neighbors.c **** \param[in] index The index of that neighbor in the neighbor table.
 276:build/OpenMote-CC2538_armgcc/openstack/02b-MAChigh/neighbors.c **** 
 277:build/OpenMote-CC2538_armgcc/openstack/02b-MAChigh/neighbors.c **** \returns TRUE if that neighbor has a lower DAG rank than me, FALSE otherwise.
 278:build/OpenMote-CC2538_armgcc/openstack/02b-MAChigh/neighbors.c **** */
 279:build/OpenMote-CC2538_armgcc/openstack/02b-MAChigh/neighbors.c **** bool neighbors_isNeighborWithHigherDAGrank(uint8_t index) {
 874              		.loc 1 279 0
 875              		.cfi_startproc
 876              		@ args = 0, pretend = 0, frame = 16
 877              		@ frame_needed = 1, uses_anonymous_args = 0
 878 03e8 90B5     		push	{r4, r7, lr}
 879              		.cfi_def_cfa_offset 12
 880              		.cfi_offset 4, -12
 881              		.cfi_offset 7, -8
 882              		.cfi_offset 14, -4
 883 03ea 85B0     		sub	sp, sp, #20
 884              		.cfi_def_cfa_offset 32
 885 03ec 00AF     		add	r7, sp, #0
 886              		.cfi_def_cfa_register 7
 887 03ee 0346     		mov	r3, r0
 888 03f0 FB71     		strb	r3, [r7, #7]
 280:build/OpenMote-CC2538_armgcc/openstack/02b-MAChigh/neighbors.c ****    bool    returnVal;
 281:build/OpenMote-CC2538_armgcc/openstack/02b-MAChigh/neighbors.c ****    
 282:build/OpenMote-CC2538_armgcc/openstack/02b-MAChigh/neighbors.c ****    if (neighbors_vars.neighbors[index].used==TRUE &&
 889              		.loc 1 282 0
 890 03f2 FA79     		ldrb	r2, [r7, #7]	@ zero_extendqisi2
 891 03f4 1149     		ldr	r1, .L67
 892 03f6 1346     		mov	r3, r2
 893 03f8 1B01     		lsls	r3, r3, #4
 894 03fa 1344     		add	r3, r3, r2
 895 03fc 5B00     		lsls	r3, r3, #1
 896 03fe 0B44     		add	r3, r3, r1
 897 0400 1B78     		ldrb	r3, [r3]	@ zero_extendqisi2
 898 0402 002B     		cmp	r3, #0
 899 0404 12D0     		beq	.L64
 283:build/OpenMote-CC2538_armgcc/openstack/02b-MAChigh/neighbors.c ****        neighbors_vars.neighbors[index].DAGrank >= neighbors_getMyDAGrank()) { 
 900              		.loc 1 283 0 discriminator 1
 901 0406 FA79     		ldrb	r2, [r7, #7]	@ zero_extendqisi2
 902 0408 0C49     		ldr	r1, .L67
 903 040a 1346     		mov	r3, r2
 904 040c 1B01     		lsls	r3, r3, #4
 905 040e 1344     		add	r3, r3, r2
 906 0410 5B00     		lsls	r3, r3, #1
 907 0412 0B44     		add	r3, r3, r1
 908 0414 1033     		adds	r3, r3, #16
 909 0416 B3F80530 		ldrh	r3, [r3, #5]	@ unaligned
 910 041a 9CB2     		uxth	r4, r3
 911 041c FFF7FEFF 		bl	neighbors_getMyDAGrank
 912 0420 0346     		mov	r3, r0
 282:build/OpenMote-CC2538_armgcc/openstack/02b-MAChigh/neighbors.c ****        neighbors_vars.neighbors[index].DAGrank >= neighbors_getMyDAGrank()) { 
 913              		.loc 1 282 0 discriminator 1
 914 0422 9C42     		cmp	r4, r3
 915 0424 02D3     		bcc	.L64
 284:build/OpenMote-CC2538_armgcc/openstack/02b-MAChigh/neighbors.c ****       returnVal = TRUE;
 916              		.loc 1 284 0
 917 0426 0123     		movs	r3, #1
 918 0428 FB73     		strb	r3, [r7, #15]
 919 042a 01E0     		b	.L65
 920              	.L64:
 285:build/OpenMote-CC2538_armgcc/openstack/02b-MAChigh/neighbors.c ****    } else {
 286:build/OpenMote-CC2538_armgcc/openstack/02b-MAChigh/neighbors.c ****       returnVal = FALSE;
 921              		.loc 1 286 0
 922 042c 0023     		movs	r3, #0
 923 042e FB73     		strb	r3, [r7, #15]
 924              	.L65:
 287:build/OpenMote-CC2538_armgcc/openstack/02b-MAChigh/neighbors.c ****    }
 288:build/OpenMote-CC2538_armgcc/openstack/02b-MAChigh/neighbors.c ****    
 289:build/OpenMote-CC2538_armgcc/openstack/02b-MAChigh/neighbors.c ****    return returnVal;
 925              		.loc 1 289 0
 926 0430 FB7B     		ldrb	r3, [r7, #15]	@ zero_extendqisi2
 290:build/OpenMote-CC2538_armgcc/openstack/02b-MAChigh/neighbors.c **** }
 927              		.loc 1 290 0
 928 0432 1846     		mov	r0, r3
 929 0434 1437     		adds	r7, r7, #20
 930              		.cfi_def_cfa_offset 12
 931 0436 BD46     		mov	sp, r7
 932              		.cfi_def_cfa_register 13
 933              		@ sp needed
 934 0438 90BD     		pop	{r4, r7, pc}
 935              	.L68:
 936 043a 00BF     		.align	2
 937              	.L67:
 938 043c 00000000 		.word	neighbors_vars
 939              		.cfi_endproc
 940              	.LFE8:
 942              		.align	2
 943              		.global	neighbors_indicateRx
 944              		.thumb
 945              		.thumb_func
 947              	neighbors_indicateRx:
 948              	.LFB9:
 291:build/OpenMote-CC2538_armgcc/openstack/02b-MAChigh/neighbors.c **** 
 292:build/OpenMote-CC2538_armgcc/openstack/02b-MAChigh/neighbors.c **** //===== updating neighbor information
 293:build/OpenMote-CC2538_armgcc/openstack/02b-MAChigh/neighbors.c **** 
 294:build/OpenMote-CC2538_armgcc/openstack/02b-MAChigh/neighbors.c **** /**
 295:build/OpenMote-CC2538_armgcc/openstack/02b-MAChigh/neighbors.c **** \brief Indicate some (non-ACK) packet was received from a neighbor.
 296:build/OpenMote-CC2538_armgcc/openstack/02b-MAChigh/neighbors.c **** 
 297:build/OpenMote-CC2538_armgcc/openstack/02b-MAChigh/neighbors.c **** This function should be called for each received (non-ACK) packet so neighbor
 298:build/OpenMote-CC2538_armgcc/openstack/02b-MAChigh/neighbors.c **** statistics in the neighbor table can be updated.
 299:build/OpenMote-CC2538_armgcc/openstack/02b-MAChigh/neighbors.c **** 
 300:build/OpenMote-CC2538_armgcc/openstack/02b-MAChigh/neighbors.c **** The fields which are updated are:
 301:build/OpenMote-CC2538_armgcc/openstack/02b-MAChigh/neighbors.c **** - numRx
 302:build/OpenMote-CC2538_armgcc/openstack/02b-MAChigh/neighbors.c **** - rssi
 303:build/OpenMote-CC2538_armgcc/openstack/02b-MAChigh/neighbors.c **** - asn
 304:build/OpenMote-CC2538_armgcc/openstack/02b-MAChigh/neighbors.c **** - stableNeighbor
 305:build/OpenMote-CC2538_armgcc/openstack/02b-MAChigh/neighbors.c **** - switchStabilityCounter
 306:build/OpenMote-CC2538_armgcc/openstack/02b-MAChigh/neighbors.c **** 
 307:build/OpenMote-CC2538_armgcc/openstack/02b-MAChigh/neighbors.c **** \param[in] l2_src MAC source address of the packet, i.e. the neighbor who sent
 308:build/OpenMote-CC2538_armgcc/openstack/02b-MAChigh/neighbors.c ****    the packet just received.
 309:build/OpenMote-CC2538_armgcc/openstack/02b-MAChigh/neighbors.c **** \param[in] rssi   RSSI with which this packet was received.
 310:build/OpenMote-CC2538_armgcc/openstack/02b-MAChigh/neighbors.c **** \param[in] asnTs  ASN at which this packet was received.
 311:build/OpenMote-CC2538_armgcc/openstack/02b-MAChigh/neighbors.c **** \param[in] joinPrioPresent Whether a join priority was present in the received
 312:build/OpenMote-CC2538_armgcc/openstack/02b-MAChigh/neighbors.c ****    packet.
 313:build/OpenMote-CC2538_armgcc/openstack/02b-MAChigh/neighbors.c **** \param[in] joinPrio The join priority present in the packet, if any.
 314:build/OpenMote-CC2538_armgcc/openstack/02b-MAChigh/neighbors.c **** */
 315:build/OpenMote-CC2538_armgcc/openstack/02b-MAChigh/neighbors.c **** void neighbors_indicateRx(open_addr_t* l2_src,
 316:build/OpenMote-CC2538_armgcc/openstack/02b-MAChigh/neighbors.c ****                           int8_t       rssi,
 317:build/OpenMote-CC2538_armgcc/openstack/02b-MAChigh/neighbors.c ****                           asn_t*       asnTs,
 318:build/OpenMote-CC2538_armgcc/openstack/02b-MAChigh/neighbors.c ****                           bool         joinPrioPresent,
 319:build/OpenMote-CC2538_armgcc/openstack/02b-MAChigh/neighbors.c ****                           uint8_t      joinPrio) {
 949              		.loc 1 319 0
 950              		.cfi_startproc
 951              		@ args = 4, pretend = 0, frame = 24
 952              		@ frame_needed = 1, uses_anonymous_args = 0
 953 0440 90B5     		push	{r4, r7, lr}
 954              		.cfi_def_cfa_offset 12
 955              		.cfi_offset 4, -12
 956              		.cfi_offset 7, -8
 957              		.cfi_offset 14, -4
 958 0442 89B0     		sub	sp, sp, #36
 959              		.cfi_def_cfa_offset 48
 960 0444 02AF     		add	r7, sp, #8
 961              		.cfi_def_cfa 7, 40
 962 0446 F860     		str	r0, [r7, #12]
 963 0448 7A60     		str	r2, [r7, #4]
 964 044a 1A46     		mov	r2, r3
 965 044c 0B46     		mov	r3, r1
 966 044e FB72     		strb	r3, [r7, #11]
 967 0450 1346     		mov	r3, r2
 968 0452 BB72     		strb	r3, [r7, #10]
 320:build/OpenMote-CC2538_armgcc/openstack/02b-MAChigh/neighbors.c ****    uint8_t i;
 321:build/OpenMote-CC2538_armgcc/openstack/02b-MAChigh/neighbors.c ****    bool    newNeighbor;
 322:build/OpenMote-CC2538_armgcc/openstack/02b-MAChigh/neighbors.c ****    
 323:build/OpenMote-CC2538_armgcc/openstack/02b-MAChigh/neighbors.c ****    // update existing neighbor
 324:build/OpenMote-CC2538_armgcc/openstack/02b-MAChigh/neighbors.c ****    newNeighbor = TRUE;
 969              		.loc 1 324 0
 970 0454 0123     		movs	r3, #1
 971 0456 BB75     		strb	r3, [r7, #22]
 325:build/OpenMote-CC2538_armgcc/openstack/02b-MAChigh/neighbors.c ****    for (i=0;i<MAXNUMNEIGHBORS;i++) {
 972              		.loc 1 325 0
 973 0458 0023     		movs	r3, #0
 974 045a FB75     		strb	r3, [r7, #23]
 975 045c EBE0     		b	.L70
 976              	.L81:
 326:build/OpenMote-CC2538_armgcc/openstack/02b-MAChigh/neighbors.c ****       if (isThisRowMatching(l2_src,i)) {
 977              		.loc 1 326 0
 978 045e FB7D     		ldrb	r3, [r7, #23]	@ zero_extendqisi2
 979 0460 F868     		ldr	r0, [r7, #12]
 980 0462 1946     		mov	r1, r3
 981 0464 FFF7FEFF 		bl	isThisRowMatching
 982 0468 0346     		mov	r3, r0
 983 046a 002B     		cmp	r3, #0
 984 046c 00F0E080 		beq	.L71
 327:build/OpenMote-CC2538_armgcc/openstack/02b-MAChigh/neighbors.c ****          
 328:build/OpenMote-CC2538_armgcc/openstack/02b-MAChigh/neighbors.c ****          // this is not a new neighbor
 329:build/OpenMote-CC2538_armgcc/openstack/02b-MAChigh/neighbors.c ****          newNeighbor = FALSE;
 985              		.loc 1 329 0
 986 0470 0023     		movs	r3, #0
 987 0472 BB75     		strb	r3, [r7, #22]
 330:build/OpenMote-CC2538_armgcc/openstack/02b-MAChigh/neighbors.c ****          
 331:build/OpenMote-CC2538_armgcc/openstack/02b-MAChigh/neighbors.c ****          // update numRx, rssi, asn
 332:build/OpenMote-CC2538_armgcc/openstack/02b-MAChigh/neighbors.c ****          neighbors_vars.neighbors[i].numRx++;
 988              		.loc 1 332 0
 989 0474 FA7D     		ldrb	r2, [r7, #23]	@ zero_extendqisi2
 990 0476 7B49     		ldr	r1, .L83
 991 0478 1346     		mov	r3, r2
 992 047a 1B01     		lsls	r3, r3, #4
 993 047c 1344     		add	r3, r3, r2
 994 047e 5B00     		lsls	r3, r3, #1
 995 0480 0B44     		add	r3, r3, r1
 996 0482 1833     		adds	r3, r3, #24
 997 0484 1B78     		ldrb	r3, [r3]	@ zero_extendqisi2
 998 0486 0133     		adds	r3, r3, #1
 999 0488 D8B2     		uxtb	r0, r3
 1000 048a 7649     		ldr	r1, .L83
 1001 048c 1346     		mov	r3, r2
 1002 048e 1B01     		lsls	r3, r3, #4
 1003 0490 1344     		add	r3, r3, r2
 1004 0492 5B00     		lsls	r3, r3, #1
 1005 0494 0B44     		add	r3, r3, r1
 1006 0496 1833     		adds	r3, r3, #24
 1007 0498 0246     		mov	r2, r0
 1008 049a 1A70     		strb	r2, [r3]
 333:build/OpenMote-CC2538_armgcc/openstack/02b-MAChigh/neighbors.c ****          neighbors_vars.neighbors[i].rssi=rssi;
 1009              		.loc 1 333 0
 1010 049c FA7D     		ldrb	r2, [r7, #23]	@ zero_extendqisi2
 1011 049e 7149     		ldr	r1, .L83
 1012 04a0 1346     		mov	r3, r2
 1013 04a2 1B01     		lsls	r3, r3, #4
 1014 04a4 1344     		add	r3, r3, r2
 1015 04a6 5B00     		lsls	r3, r3, #1
 1016 04a8 0B44     		add	r3, r3, r1
 1017 04aa 1033     		adds	r3, r3, #16
 1018 04ac FA7A     		ldrb	r2, [r7, #11]
 1019 04ae DA71     		strb	r2, [r3, #7]
 334:build/OpenMote-CC2538_armgcc/openstack/02b-MAChigh/neighbors.c ****          memcpy(&neighbors_vars.neighbors[i].asn,asnTs,sizeof(asn_t));
 1020              		.loc 1 334 0
 1021 04b0 FA7D     		ldrb	r2, [r7, #23]	@ zero_extendqisi2
 1022 04b2 1346     		mov	r3, r2
 1023 04b4 1B01     		lsls	r3, r3, #4
 1024 04b6 1344     		add	r3, r3, r2
 1025 04b8 5B00     		lsls	r3, r3, #1
 1026 04ba 1833     		adds	r3, r3, #24
 1027 04bc 694A     		ldr	r2, .L83
 1028 04be 1344     		add	r3, r3, r2
 1029 04c0 0433     		adds	r3, r3, #4
 1030 04c2 7A68     		ldr	r2, [r7, #4]
 1031 04c4 1168     		ldr	r1, [r2]	@ unaligned
 1032 04c6 1960     		str	r1, [r3]	@ unaligned
 1033 04c8 1279     		ldrb	r2, [r2, #4]
 1034 04ca 1A71     		strb	r2, [r3, #4]
 335:build/OpenMote-CC2538_armgcc/openstack/02b-MAChigh/neighbors.c ****          //update jp
 336:build/OpenMote-CC2538_armgcc/openstack/02b-MAChigh/neighbors.c ****          if (joinPrioPresent==TRUE){
 1035              		.loc 1 336 0
 1036 04cc BB7A     		ldrb	r3, [r7, #10]	@ zero_extendqisi2
 1037 04ce 002B     		cmp	r3, #0
 1038 04d0 0AD0     		beq	.L72
 337:build/OpenMote-CC2538_armgcc/openstack/02b-MAChigh/neighbors.c ****             neighbors_vars.neighbors[i].joinPrio=joinPrio;
 1039              		.loc 1 337 0
 1040 04d2 FA7D     		ldrb	r2, [r7, #23]	@ zero_extendqisi2
 1041 04d4 6349     		ldr	r1, .L83
 1042 04d6 1346     		mov	r3, r2
 1043 04d8 1B01     		lsls	r3, r3, #4
 1044 04da 1344     		add	r3, r3, r2
 1045 04dc 5B00     		lsls	r3, r3, #1
 1046 04de 0B44     		add	r3, r3, r1
 1047 04e0 2033     		adds	r3, r3, #32
 1048 04e2 97F82820 		ldrb	r2, [r7, #40]
 1049 04e6 5A70     		strb	r2, [r3, #1]
 1050              	.L72:
 338:build/OpenMote-CC2538_armgcc/openstack/02b-MAChigh/neighbors.c ****          }
 339:build/OpenMote-CC2538_armgcc/openstack/02b-MAChigh/neighbors.c ****          
 340:build/OpenMote-CC2538_armgcc/openstack/02b-MAChigh/neighbors.c ****          // update stableNeighbor, switchStabilityCounter
 341:build/OpenMote-CC2538_armgcc/openstack/02b-MAChigh/neighbors.c ****          if (neighbors_vars.neighbors[i].stableNeighbor==FALSE) {
 1051              		.loc 1 341 0
 1052 04e8 FA7D     		ldrb	r2, [r7, #23]	@ zero_extendqisi2
 1053 04ea 5E49     		ldr	r1, .L83
 1054 04ec 1346     		mov	r3, r2
 1055 04ee 1B01     		lsls	r3, r3, #4
 1056 04f0 1344     		add	r3, r3, r2
 1057 04f2 5B00     		lsls	r3, r3, #1
 1058 04f4 0B44     		add	r3, r3, r1
 1059 04f6 9B78     		ldrb	r3, [r3, #2]	@ zero_extendqisi2
 1060 04f8 83F00103 		eor	r3, r3, #1
 1061 04fc DBB2     		uxtb	r3, r3
 1062 04fe 002B     		cmp	r3, #0
 1063 0500 45D0     		beq	.L73
 342:build/OpenMote-CC2538_armgcc/openstack/02b-MAChigh/neighbors.c ****             if (neighbors_vars.neighbors[i].rssi>BADNEIGHBORMAXRSSI) {
 1064              		.loc 1 342 0
 1065 0502 FA7D     		ldrb	r2, [r7, #23]	@ zero_extendqisi2
 1066 0504 5749     		ldr	r1, .L83
 1067 0506 1346     		mov	r3, r2
 1068 0508 1B01     		lsls	r3, r3, #4
 1069 050a 1344     		add	r3, r3, r2
 1070 050c 5B00     		lsls	r3, r3, #1
 1071 050e 0B44     		add	r3, r3, r1
 1072 0510 1033     		adds	r3, r3, #16
 1073 0512 DB79     		ldrb	r3, [r3, #7]	@ zero_extendqisi2
 1074 0514 5BB2     		sxtb	r3, r3
 1075 0516 13F14F0F 		cmn	r3, #79
 1076 051a 2EDB     		blt	.L74
 343:build/OpenMote-CC2538_armgcc/openstack/02b-MAChigh/neighbors.c ****                neighbors_vars.neighbors[i].switchStabilityCounter++;
 1077              		.loc 1 343 0
 1078 051c FA7D     		ldrb	r2, [r7, #23]	@ zero_extendqisi2
 1079 051e 5149     		ldr	r1, .L83
 1080 0520 1346     		mov	r3, r2
 1081 0522 1B01     		lsls	r3, r3, #4
 1082 0524 1344     		add	r3, r3, r2
 1083 0526 5B00     		lsls	r3, r3, #1
 1084 0528 0B44     		add	r3, r3, r1
 1085 052a DB78     		ldrb	r3, [r3, #3]	@ zero_extendqisi2
 1086 052c 0133     		adds	r3, r3, #1
 1087 052e D8B2     		uxtb	r0, r3
 1088 0530 4C49     		ldr	r1, .L83
 1089 0532 1346     		mov	r3, r2
 1090 0534 1B01     		lsls	r3, r3, #4
 1091 0536 1344     		add	r3, r3, r2
 1092 0538 5B00     		lsls	r3, r3, #1
 1093 053a 0B44     		add	r3, r3, r1
 1094 053c 0246     		mov	r2, r0
 1095 053e DA70     		strb	r2, [r3, #3]
 344:build/OpenMote-CC2538_armgcc/openstack/02b-MAChigh/neighbors.c ****                if (neighbors_vars.neighbors[i].switchStabilityCounter>=SWITCHSTABILITYTHRESHOLD) {
 1096              		.loc 1 344 0
 1097 0540 FA7D     		ldrb	r2, [r7, #23]	@ zero_extendqisi2
 1098 0542 4849     		ldr	r1, .L83
 1099 0544 1346     		mov	r3, r2
 1100 0546 1B01     		lsls	r3, r3, #4
 1101 0548 1344     		add	r3, r3, r2
 1102 054a 5B00     		lsls	r3, r3, #1
 1103 054c 0B44     		add	r3, r3, r1
 1104 054e DB78     		ldrb	r3, [r3, #3]	@ zero_extendqisi2
 1105 0550 022B     		cmp	r3, #2
 1106 0552 6CD9     		bls	.L77
 345:build/OpenMote-CC2538_armgcc/openstack/02b-MAChigh/neighbors.c ****                   neighbors_vars.neighbors[i].switchStabilityCounter=0;
 1107              		.loc 1 345 0
 1108 0554 FA7D     		ldrb	r2, [r7, #23]	@ zero_extendqisi2
 1109 0556 4349     		ldr	r1, .L83
 1110 0558 1346     		mov	r3, r2
 1111 055a 1B01     		lsls	r3, r3, #4
 1112 055c 1344     		add	r3, r3, r2
 1113 055e 5B00     		lsls	r3, r3, #1
 1114 0560 0B44     		add	r3, r3, r1
 1115 0562 0022     		movs	r2, #0
 1116 0564 DA70     		strb	r2, [r3, #3]
 346:build/OpenMote-CC2538_armgcc/openstack/02b-MAChigh/neighbors.c ****                   neighbors_vars.neighbors[i].stableNeighbor=TRUE;
 1117              		.loc 1 346 0
 1118 0566 FA7D     		ldrb	r2, [r7, #23]	@ zero_extendqisi2
 1119 0568 3E49     		ldr	r1, .L83
 1120 056a 1346     		mov	r3, r2
 1121 056c 1B01     		lsls	r3, r3, #4
 1122 056e 1344     		add	r3, r3, r2
 1123 0570 5B00     		lsls	r3, r3, #1
 1124 0572 0B44     		add	r3, r3, r1
 1125 0574 0122     		movs	r2, #1
 1126 0576 9A70     		strb	r2, [r3, #2]
 1127 0578 59E0     		b	.L77
 1128              	.L74:
 347:build/OpenMote-CC2538_armgcc/openstack/02b-MAChigh/neighbors.c ****                }
 348:build/OpenMote-CC2538_armgcc/openstack/02b-MAChigh/neighbors.c ****             } else {
 349:build/OpenMote-CC2538_armgcc/openstack/02b-MAChigh/neighbors.c ****                neighbors_vars.neighbors[i].switchStabilityCounter=0;
 1129              		.loc 1 349 0
 1130 057a FA7D     		ldrb	r2, [r7, #23]	@ zero_extendqisi2
 1131 057c 3949     		ldr	r1, .L83
 1132 057e 1346     		mov	r3, r2
 1133 0580 1B01     		lsls	r3, r3, #4
 1134 0582 1344     		add	r3, r3, r2
 1135 0584 5B00     		lsls	r3, r3, #1
 1136 0586 0B44     		add	r3, r3, r1
 1137 0588 0022     		movs	r2, #0
 1138 058a DA70     		strb	r2, [r3, #3]
 350:build/OpenMote-CC2538_armgcc/openstack/02b-MAChigh/neighbors.c ****             }
 351:build/OpenMote-CC2538_armgcc/openstack/02b-MAChigh/neighbors.c ****          } else if (neighbors_vars.neighbors[i].stableNeighbor==TRUE) {
 352:build/OpenMote-CC2538_armgcc/openstack/02b-MAChigh/neighbors.c ****             if (neighbors_vars.neighbors[i].rssi<GOODNEIGHBORMINRSSI) {
 353:build/OpenMote-CC2538_armgcc/openstack/02b-MAChigh/neighbors.c ****                neighbors_vars.neighbors[i].switchStabilityCounter++;
 354:build/OpenMote-CC2538_armgcc/openstack/02b-MAChigh/neighbors.c ****                if (neighbors_vars.neighbors[i].switchStabilityCounter>=SWITCHSTABILITYTHRESHOLD) {
 355:build/OpenMote-CC2538_armgcc/openstack/02b-MAChigh/neighbors.c ****                   neighbors_vars.neighbors[i].switchStabilityCounter=0;
 356:build/OpenMote-CC2538_armgcc/openstack/02b-MAChigh/neighbors.c ****                    neighbors_vars.neighbors[i].stableNeighbor=FALSE;
 357:build/OpenMote-CC2538_armgcc/openstack/02b-MAChigh/neighbors.c ****                }
 358:build/OpenMote-CC2538_armgcc/openstack/02b-MAChigh/neighbors.c ****             } else {
 359:build/OpenMote-CC2538_armgcc/openstack/02b-MAChigh/neighbors.c ****                neighbors_vars.neighbors[i].switchStabilityCounter=0;
 360:build/OpenMote-CC2538_armgcc/openstack/02b-MAChigh/neighbors.c ****             }
 361:build/OpenMote-CC2538_armgcc/openstack/02b-MAChigh/neighbors.c ****          }
 362:build/OpenMote-CC2538_armgcc/openstack/02b-MAChigh/neighbors.c ****          
 363:build/OpenMote-CC2538_armgcc/openstack/02b-MAChigh/neighbors.c ****          // stop looping
 364:build/OpenMote-CC2538_armgcc/openstack/02b-MAChigh/neighbors.c ****          break;
 1139              		.loc 1 364 0
 1140 058c 57E0     		b	.L80
 1141              	.L73:
 351:build/OpenMote-CC2538_armgcc/openstack/02b-MAChigh/neighbors.c ****             if (neighbors_vars.neighbors[i].rssi<GOODNEIGHBORMINRSSI) {
 1142              		.loc 1 351 0
 1143 058e FA7D     		ldrb	r2, [r7, #23]	@ zero_extendqisi2
 1144 0590 3449     		ldr	r1, .L83
 1145 0592 1346     		mov	r3, r2
 1146 0594 1B01     		lsls	r3, r3, #4
 1147 0596 1344     		add	r3, r3, r2
 1148 0598 5B00     		lsls	r3, r3, #1
 1149 059a 0B44     		add	r3, r3, r1
 1150 059c 9B78     		ldrb	r3, [r3, #2]	@ zero_extendqisi2
 1151 059e 002B     		cmp	r3, #0
 1152 05a0 45D0     		beq	.L77
 352:build/OpenMote-CC2538_armgcc/openstack/02b-MAChigh/neighbors.c ****                neighbors_vars.neighbors[i].switchStabilityCounter++;
 1153              		.loc 1 352 0
 1154 05a2 FA7D     		ldrb	r2, [r7, #23]	@ zero_extendqisi2
 1155 05a4 2F49     		ldr	r1, .L83
 1156 05a6 1346     		mov	r3, r2
 1157 05a8 1B01     		lsls	r3, r3, #4
 1158 05aa 1344     		add	r3, r3, r2
 1159 05ac 5B00     		lsls	r3, r3, #1
 1160 05ae 0B44     		add	r3, r3, r1
 1161 05b0 1033     		adds	r3, r3, #16
 1162 05b2 DB79     		ldrb	r3, [r3, #7]	@ zero_extendqisi2
 1163 05b4 5BB2     		sxtb	r3, r3
 1164 05b6 13F15A0F 		cmn	r3, #90
 1165 05ba 2EDA     		bge	.L78
 353:build/OpenMote-CC2538_armgcc/openstack/02b-MAChigh/neighbors.c ****                if (neighbors_vars.neighbors[i].switchStabilityCounter>=SWITCHSTABILITYTHRESHOLD) {
 1166              		.loc 1 353 0
 1167 05bc FA7D     		ldrb	r2, [r7, #23]	@ zero_extendqisi2
 1168 05be 2949     		ldr	r1, .L83
 1169 05c0 1346     		mov	r3, r2
 1170 05c2 1B01     		lsls	r3, r3, #4
 1171 05c4 1344     		add	r3, r3, r2
 1172 05c6 5B00     		lsls	r3, r3, #1
 1173 05c8 0B44     		add	r3, r3, r1
 1174 05ca DB78     		ldrb	r3, [r3, #3]	@ zero_extendqisi2
 1175 05cc 0133     		adds	r3, r3, #1
 1176 05ce D8B2     		uxtb	r0, r3
 1177 05d0 2449     		ldr	r1, .L83
 1178 05d2 1346     		mov	r3, r2
 1179 05d4 1B01     		lsls	r3, r3, #4
 1180 05d6 1344     		add	r3, r3, r2
 1181 05d8 5B00     		lsls	r3, r3, #1
 1182 05da 0B44     		add	r3, r3, r1
 1183 05dc 0246     		mov	r2, r0
 1184 05de DA70     		strb	r2, [r3, #3]
 354:build/OpenMote-CC2538_armgcc/openstack/02b-MAChigh/neighbors.c ****                   neighbors_vars.neighbors[i].switchStabilityCounter=0;
 1185              		.loc 1 354 0
 1186 05e0 FA7D     		ldrb	r2, [r7, #23]	@ zero_extendqisi2
 1187 05e2 2049     		ldr	r1, .L83
 1188 05e4 1346     		mov	r3, r2
 1189 05e6 1B01     		lsls	r3, r3, #4
 1190 05e8 1344     		add	r3, r3, r2
 1191 05ea 5B00     		lsls	r3, r3, #1
 1192 05ec 0B44     		add	r3, r3, r1
 1193 05ee DB78     		ldrb	r3, [r3, #3]	@ zero_extendqisi2
 1194 05f0 022B     		cmp	r3, #2
 1195 05f2 1CD9     		bls	.L77
 355:build/OpenMote-CC2538_armgcc/openstack/02b-MAChigh/neighbors.c ****                    neighbors_vars.neighbors[i].stableNeighbor=FALSE;
 1196              		.loc 1 355 0
 1197 05f4 FA7D     		ldrb	r2, [r7, #23]	@ zero_extendqisi2
 1198 05f6 1B49     		ldr	r1, .L83
 1199 05f8 1346     		mov	r3, r2
 1200 05fa 1B01     		lsls	r3, r3, #4
 1201 05fc 1344     		add	r3, r3, r2
 1202 05fe 5B00     		lsls	r3, r3, #1
 1203 0600 0B44     		add	r3, r3, r1
 1204 0602 0022     		movs	r2, #0
 1205 0604 DA70     		strb	r2, [r3, #3]
 356:build/OpenMote-CC2538_armgcc/openstack/02b-MAChigh/neighbors.c ****                }
 1206              		.loc 1 356 0
 1207 0606 FA7D     		ldrb	r2, [r7, #23]	@ zero_extendqisi2
 1208 0608 1649     		ldr	r1, .L83
 1209 060a 1346     		mov	r3, r2
 1210 060c 1B01     		lsls	r3, r3, #4
 1211 060e 1344     		add	r3, r3, r2
 1212 0610 5B00     		lsls	r3, r3, #1
 1213 0612 0B44     		add	r3, r3, r1
 1214 0614 0022     		movs	r2, #0
 1215 0616 9A70     		strb	r2, [r3, #2]
 1216              		.loc 1 364 0
 1217 0618 11E0     		b	.L80
 1218              	.L78:
 359:build/OpenMote-CC2538_armgcc/openstack/02b-MAChigh/neighbors.c ****             }
 1219              		.loc 1 359 0
 1220 061a FA7D     		ldrb	r2, [r7, #23]	@ zero_extendqisi2
 1221 061c 1149     		ldr	r1, .L83
 1222 061e 1346     		mov	r3, r2
 1223 0620 1B01     		lsls	r3, r3, #4
 1224 0622 1344     		add	r3, r3, r2
 1225 0624 5B00     		lsls	r3, r3, #1
 1226 0626 0B44     		add	r3, r3, r1
 1227 0628 0022     		movs	r2, #0
 1228 062a DA70     		strb	r2, [r3, #3]
 1229              		.loc 1 364 0
 1230 062c 07E0     		b	.L80
 1231              	.L77:
 1232              		.loc 1 364 0 is_stmt 0 discriminator 2
 1233 062e 06E0     		b	.L80
 1234              	.L71:
 325:build/OpenMote-CC2538_armgcc/openstack/02b-MAChigh/neighbors.c ****       if (isThisRowMatching(l2_src,i)) {
 1235              		.loc 1 325 0 is_stmt 1 discriminator 2
 1236 0630 FB7D     		ldrb	r3, [r7, #23]	@ zero_extendqisi2
 1237 0632 0133     		adds	r3, r3, #1
 1238 0634 FB75     		strb	r3, [r7, #23]
 1239              	.L70:
 325:build/OpenMote-CC2538_armgcc/openstack/02b-MAChigh/neighbors.c ****       if (isThisRowMatching(l2_src,i)) {
 1240              		.loc 1 325 0 is_stmt 0 discriminator 1
 1241 0636 FB7D     		ldrb	r3, [r7, #23]	@ zero_extendqisi2
 1242 0638 092B     		cmp	r3, #9
 1243 063a 7FF610AF 		bls	.L81
 1244              	.L80:
 365:build/OpenMote-CC2538_armgcc/openstack/02b-MAChigh/neighbors.c ****       }
 366:build/OpenMote-CC2538_armgcc/openstack/02b-MAChigh/neighbors.c ****    }
 367:build/OpenMote-CC2538_armgcc/openstack/02b-MAChigh/neighbors.c ****    
 368:build/OpenMote-CC2538_armgcc/openstack/02b-MAChigh/neighbors.c ****    // register new neighbor
 369:build/OpenMote-CC2538_armgcc/openstack/02b-MAChigh/neighbors.c ****    if (newNeighbor==TRUE) {
 1245              		.loc 1 369 0 is_stmt 1
 1246 063e BB7D     		ldrb	r3, [r7, #22]	@ zero_extendqisi2
 1247 0640 002B     		cmp	r3, #0
 1248 0642 0BD0     		beq	.L69
 370:build/OpenMote-CC2538_armgcc/openstack/02b-MAChigh/neighbors.c ****       registerNewNeighbor(l2_src, rssi, asnTs, joinPrioPresent,joinPrio);
 1249              		.loc 1 370 0
 1250 0644 97F90B20 		ldrsb	r2, [r7, #11]
 1251 0648 BC7A     		ldrb	r4, [r7, #10]	@ zero_extendqisi2
 1252 064a 97F82830 		ldrb	r3, [r7, #40]	@ zero_extendqisi2
 1253 064e 0093     		str	r3, [sp]
 1254 0650 F868     		ldr	r0, [r7, #12]
 1255 0652 1146     		mov	r1, r2
 1256 0654 7A68     		ldr	r2, [r7, #4]
 1257 0656 2346     		mov	r3, r4
 1258 0658 FFF7FEFF 		bl	registerNewNeighbor
 1259              	.L69:
 371:build/OpenMote-CC2538_armgcc/openstack/02b-MAChigh/neighbors.c ****    }
 372:build/OpenMote-CC2538_armgcc/openstack/02b-MAChigh/neighbors.c **** }
 1260              		.loc 1 372 0
 1261 065c 1C37     		adds	r7, r7, #28
 1262              		.cfi_def_cfa_offset 12
 1263 065e BD46     		mov	sp, r7
 1264              		.cfi_def_cfa_register 13
 1265              		@ sp needed
 1266 0660 90BD     		pop	{r4, r7, pc}
 1267              	.L84:
 1268 0662 00BF     		.align	2
 1269              	.L83:
 1270 0664 00000000 		.word	neighbors_vars
 1271              		.cfi_endproc
 1272              	.LFE9:
 1274              		.align	2
 1275              		.global	neighbors_indicateTx
 1276              		.thumb
 1277              		.thumb_func
 1279              	neighbors_indicateTx:
 1280              	.LFB10:
 373:build/OpenMote-CC2538_armgcc/openstack/02b-MAChigh/neighbors.c **** 
 374:build/OpenMote-CC2538_armgcc/openstack/02b-MAChigh/neighbors.c **** /**
 375:build/OpenMote-CC2538_armgcc/openstack/02b-MAChigh/neighbors.c **** \brief Indicate some packet was sent to some neighbor.
 376:build/OpenMote-CC2538_armgcc/openstack/02b-MAChigh/neighbors.c **** 
 377:build/OpenMote-CC2538_armgcc/openstack/02b-MAChigh/neighbors.c **** This function should be called for each transmitted (non-ACK) packet so
 378:build/OpenMote-CC2538_armgcc/openstack/02b-MAChigh/neighbors.c **** neighbor statistics in the neighbor table can be updated.
 379:build/OpenMote-CC2538_armgcc/openstack/02b-MAChigh/neighbors.c **** 
 380:build/OpenMote-CC2538_armgcc/openstack/02b-MAChigh/neighbors.c **** The fields which are updated are:
 381:build/OpenMote-CC2538_armgcc/openstack/02b-MAChigh/neighbors.c **** - numTx
 382:build/OpenMote-CC2538_armgcc/openstack/02b-MAChigh/neighbors.c **** - numTxACK
 383:build/OpenMote-CC2538_armgcc/openstack/02b-MAChigh/neighbors.c **** - asn
 384:build/OpenMote-CC2538_armgcc/openstack/02b-MAChigh/neighbors.c **** 
 385:build/OpenMote-CC2538_armgcc/openstack/02b-MAChigh/neighbors.c **** \param[in] l2_dest MAC destination address of the packet, i.e. the neighbor
 386:build/OpenMote-CC2538_armgcc/openstack/02b-MAChigh/neighbors.c ****    who I just sent the packet to.
 387:build/OpenMote-CC2538_armgcc/openstack/02b-MAChigh/neighbors.c **** \param[in] numTxAttempts Number of transmission attempts to this neighbor.
 388:build/OpenMote-CC2538_armgcc/openstack/02b-MAChigh/neighbors.c **** \param[in] was_finally_acked TRUE iff the packet was ACK'ed by the neighbor
 389:build/OpenMote-CC2538_armgcc/openstack/02b-MAChigh/neighbors.c ****    on final transmission attempt.
 390:build/OpenMote-CC2538_armgcc/openstack/02b-MAChigh/neighbors.c **** \param[in] asnTs ASN of the last transmission attempt.
 391:build/OpenMote-CC2538_armgcc/openstack/02b-MAChigh/neighbors.c **** */
 392:build/OpenMote-CC2538_armgcc/openstack/02b-MAChigh/neighbors.c **** void neighbors_indicateTx(open_addr_t* l2_dest,
 393:build/OpenMote-CC2538_armgcc/openstack/02b-MAChigh/neighbors.c ****                           uint8_t      numTxAttempts,
 394:build/OpenMote-CC2538_armgcc/openstack/02b-MAChigh/neighbors.c ****                           bool         was_finally_acked,
 395:build/OpenMote-CC2538_armgcc/openstack/02b-MAChigh/neighbors.c ****                           asn_t*       asnTs) {
 1281              		.loc 1 395 0
 1282              		.cfi_startproc
 1283              		@ args = 0, pretend = 0, frame = 24
 1284              		@ frame_needed = 1, uses_anonymous_args = 0
 1285 0668 80B5     		push	{r7, lr}
 1286              		.cfi_def_cfa_offset 8
 1287              		.cfi_offset 7, -8
 1288              		.cfi_offset 14, -4
 1289 066a 86B0     		sub	sp, sp, #24
 1290              		.cfi_def_cfa_offset 32
 1291 066c 00AF     		add	r7, sp, #0
 1292              		.cfi_def_cfa_register 7
 1293 066e F860     		str	r0, [r7, #12]
 1294 0670 7B60     		str	r3, [r7, #4]
 1295 0672 0B46     		mov	r3, r1
 1296 0674 FB72     		strb	r3, [r7, #11]
 1297 0676 1346     		mov	r3, r2
 1298 0678 BB72     		strb	r3, [r7, #10]
 396:build/OpenMote-CC2538_armgcc/openstack/02b-MAChigh/neighbors.c ****    uint8_t i;
 397:build/OpenMote-CC2538_armgcc/openstack/02b-MAChigh/neighbors.c ****    // don't run through this function if packet was sent to broadcast address
 398:build/OpenMote-CC2538_armgcc/openstack/02b-MAChigh/neighbors.c ****    if (packetfunctions_isBroadcastMulticast(l2_dest)==TRUE) {
 1299              		.loc 1 398 0
 1300 067a F868     		ldr	r0, [r7, #12]
 1301 067c FFF7FEFF 		bl	packetfunctions_isBroadcastMulticast
 1302 0680 0346     		mov	r3, r0
 1303 0682 002B     		cmp	r3, #0
 1304 0684 00D0     		beq	.L86
 399:build/OpenMote-CC2538_armgcc/openstack/02b-MAChigh/neighbors.c ****       return;
 1305              		.loc 1 399 0
 1306 0686 9CE0     		b	.L85
 1307              	.L86:
 400:build/OpenMote-CC2538_armgcc/openstack/02b-MAChigh/neighbors.c ****    }
 401:build/OpenMote-CC2538_armgcc/openstack/02b-MAChigh/neighbors.c ****    
 402:build/OpenMote-CC2538_armgcc/openstack/02b-MAChigh/neighbors.c ****    // loop through neighbor table
 403:build/OpenMote-CC2538_armgcc/openstack/02b-MAChigh/neighbors.c ****    for (i=0;i<MAXNUMNEIGHBORS;i++) {
 1308              		.loc 1 403 0
 1309 0688 0023     		movs	r3, #0
 1310 068a FB75     		strb	r3, [r7, #23]
 1311 068c 95E0     		b	.L88
 1312              	.L92:
 404:build/OpenMote-CC2538_armgcc/openstack/02b-MAChigh/neighbors.c ****       if (isThisRowMatching(l2_dest,i)) {
 1313              		.loc 1 404 0
 1314 068e FB7D     		ldrb	r3, [r7, #23]	@ zero_extendqisi2
 1315 0690 F868     		ldr	r0, [r7, #12]
 1316 0692 1946     		mov	r1, r3
 1317 0694 FFF7FEFF 		bl	isThisRowMatching
 1318 0698 0346     		mov	r3, r0
 1319 069a 002B     		cmp	r3, #0
 1320 069c 00F08A80 		beq	.L89
 405:build/OpenMote-CC2538_armgcc/openstack/02b-MAChigh/neighbors.c ****          // handle roll-over case
 406:build/OpenMote-CC2538_armgcc/openstack/02b-MAChigh/neighbors.c ****         
 407:build/OpenMote-CC2538_armgcc/openstack/02b-MAChigh/neighbors.c ****           if (neighbors_vars.neighbors[i].numTx>(0xff-numTxAttempts)) {
 1321              		.loc 1 407 0
 1322 06a0 FA7D     		ldrb	r2, [r7, #23]	@ zero_extendqisi2
 1323 06a2 4949     		ldr	r1, .L93
 1324 06a4 1346     		mov	r3, r2
 1325 06a6 1B01     		lsls	r3, r3, #4
 1326 06a8 1344     		add	r3, r3, r2
 1327 06aa 5B00     		lsls	r3, r3, #1
 1328 06ac 0B44     		add	r3, r3, r1
 1329 06ae 1833     		adds	r3, r3, #24
 1330 06b0 5B78     		ldrb	r3, [r3, #1]	@ zero_extendqisi2
 1331 06b2 1A46     		mov	r2, r3
 1332 06b4 FB7A     		ldrb	r3, [r7, #11]	@ zero_extendqisi2
 1333 06b6 C3F1FF03 		rsb	r3, r3, #255
 1334 06ba 9A42     		cmp	r2, r3
 1335 06bc 3DDD     		ble	.L90
 408:build/OpenMote-CC2538_armgcc/openstack/02b-MAChigh/neighbors.c ****               neighbors_vars.neighbors[i].numWraps++; //counting the number of times that tx wraps.
 1336              		.loc 1 408 0
 1337 06be FA7D     		ldrb	r2, [r7, #23]	@ zero_extendqisi2
 1338 06c0 4149     		ldr	r1, .L93
 1339 06c2 1346     		mov	r3, r2
 1340 06c4 1B01     		lsls	r3, r3, #4
 1341 06c6 1344     		add	r3, r3, r2
 1342 06c8 5B00     		lsls	r3, r3, #1
 1343 06ca 0B44     		add	r3, r3, r1
 1344 06cc 1833     		adds	r3, r3, #24
 1345 06ce DB78     		ldrb	r3, [r3, #3]	@ zero_extendqisi2
 1346 06d0 0133     		adds	r3, r3, #1
 1347 06d2 D8B2     		uxtb	r0, r3
 1348 06d4 3C49     		ldr	r1, .L93
 1349 06d6 1346     		mov	r3, r2
 1350 06d8 1B01     		lsls	r3, r3, #4
 1351 06da 1344     		add	r3, r3, r2
 1352 06dc 5B00     		lsls	r3, r3, #1
 1353 06de 0B44     		add	r3, r3, r1
 1354 06e0 1833     		adds	r3, r3, #24
 1355 06e2 0246     		mov	r2, r0
 1356 06e4 DA70     		strb	r2, [r3, #3]
 409:build/OpenMote-CC2538_armgcc/openstack/02b-MAChigh/neighbors.c ****               neighbors_vars.neighbors[i].numTx/=2;
 1357              		.loc 1 409 0
 1358 06e6 FA7D     		ldrb	r2, [r7, #23]	@ zero_extendqisi2
 1359 06e8 F97D     		ldrb	r1, [r7, #23]	@ zero_extendqisi2
 1360 06ea 3748     		ldr	r0, .L93
 1361 06ec 0B46     		mov	r3, r1
 1362 06ee 1B01     		lsls	r3, r3, #4
 1363 06f0 0B44     		add	r3, r3, r1
 1364 06f2 5B00     		lsls	r3, r3, #1
 1365 06f4 0344     		add	r3, r3, r0
 1366 06f6 1833     		adds	r3, r3, #24
 1367 06f8 5B78     		ldrb	r3, [r3, #1]	@ zero_extendqisi2
 1368 06fa 5B08     		lsrs	r3, r3, #1
 1369 06fc D8B2     		uxtb	r0, r3
 1370 06fe 3249     		ldr	r1, .L93
 1371 0700 1346     		mov	r3, r2
 1372 0702 1B01     		lsls	r3, r3, #4
 1373 0704 1344     		add	r3, r3, r2
 1374 0706 5B00     		lsls	r3, r3, #1
 1375 0708 0B44     		add	r3, r3, r1
 1376 070a 1833     		adds	r3, r3, #24
 1377 070c 0246     		mov	r2, r0
 1378 070e 5A70     		strb	r2, [r3, #1]
 410:build/OpenMote-CC2538_armgcc/openstack/02b-MAChigh/neighbors.c ****               neighbors_vars.neighbors[i].numTxACK/=2;
 1379              		.loc 1 410 0
 1380 0710 FA7D     		ldrb	r2, [r7, #23]	@ zero_extendqisi2
 1381 0712 F97D     		ldrb	r1, [r7, #23]	@ zero_extendqisi2
 1382 0714 2C48     		ldr	r0, .L93
 1383 0716 0B46     		mov	r3, r1
 1384 0718 1B01     		lsls	r3, r3, #4
 1385 071a 0B44     		add	r3, r3, r1
 1386 071c 5B00     		lsls	r3, r3, #1
 1387 071e 0344     		add	r3, r3, r0
 1388 0720 1833     		adds	r3, r3, #24
 1389 0722 9B78     		ldrb	r3, [r3, #2]	@ zero_extendqisi2
 1390 0724 5B08     		lsrs	r3, r3, #1
 1391 0726 D8B2     		uxtb	r0, r3
 1392 0728 2749     		ldr	r1, .L93
 1393 072a 1346     		mov	r3, r2
 1394 072c 1B01     		lsls	r3, r3, #4
 1395 072e 1344     		add	r3, r3, r2
 1396 0730 5B00     		lsls	r3, r3, #1
 1397 0732 0B44     		add	r3, r3, r1
 1398 0734 1833     		adds	r3, r3, #24
 1399 0736 0246     		mov	r2, r0
 1400 0738 9A70     		strb	r2, [r3, #2]
 1401              	.L90:
 411:build/OpenMote-CC2538_armgcc/openstack/02b-MAChigh/neighbors.c ****            }
 412:build/OpenMote-CC2538_armgcc/openstack/02b-MAChigh/neighbors.c ****          // update statistics
 413:build/OpenMote-CC2538_armgcc/openstack/02b-MAChigh/neighbors.c ****         neighbors_vars.neighbors[i].numTx += numTxAttempts; 
 1402              		.loc 1 413 0
 1403 073a FA7D     		ldrb	r2, [r7, #23]	@ zero_extendqisi2
 1404 073c F97D     		ldrb	r1, [r7, #23]	@ zero_extendqisi2
 1405 073e 2248     		ldr	r0, .L93
 1406 0740 0B46     		mov	r3, r1
 1407 0742 1B01     		lsls	r3, r3, #4
 1408 0744 0B44     		add	r3, r3, r1
 1409 0746 5B00     		lsls	r3, r3, #1
 1410 0748 0344     		add	r3, r3, r0
 1411 074a 1833     		adds	r3, r3, #24
 1412 074c 5978     		ldrb	r1, [r3, #1]	@ zero_extendqisi2
 1413 074e FB7A     		ldrb	r3, [r7, #11]
 1414 0750 0B44     		add	r3, r3, r1
 1415 0752 D8B2     		uxtb	r0, r3
 1416 0754 1C49     		ldr	r1, .L93
 1417 0756 1346     		mov	r3, r2
 1418 0758 1B01     		lsls	r3, r3, #4
 1419 075a 1344     		add	r3, r3, r2
 1420 075c 5B00     		lsls	r3, r3, #1
 1421 075e 0B44     		add	r3, r3, r1
 1422 0760 1833     		adds	r3, r3, #24
 1423 0762 0246     		mov	r2, r0
 1424 0764 5A70     		strb	r2, [r3, #1]
 414:build/OpenMote-CC2538_armgcc/openstack/02b-MAChigh/neighbors.c ****         
 415:build/OpenMote-CC2538_armgcc/openstack/02b-MAChigh/neighbors.c ****         if (was_finally_acked==TRUE) {
 1425              		.loc 1 415 0
 1426 0766 BB7A     		ldrb	r3, [r7, #10]	@ zero_extendqisi2
 1427 0768 002B     		cmp	r3, #0
 1428 076a 22D0     		beq	.L91
 416:build/OpenMote-CC2538_armgcc/openstack/02b-MAChigh/neighbors.c ****             neighbors_vars.neighbors[i].numTxACK++;
 1429              		.loc 1 416 0
 1430 076c FA7D     		ldrb	r2, [r7, #23]	@ zero_extendqisi2
 1431 076e 1649     		ldr	r1, .L93
 1432 0770 1346     		mov	r3, r2
 1433 0772 1B01     		lsls	r3, r3, #4
 1434 0774 1344     		add	r3, r3, r2
 1435 0776 5B00     		lsls	r3, r3, #1
 1436 0778 0B44     		add	r3, r3, r1
 1437 077a 1833     		adds	r3, r3, #24
 1438 077c 9B78     		ldrb	r3, [r3, #2]	@ zero_extendqisi2
 1439 077e 0133     		adds	r3, r3, #1
 1440 0780 D8B2     		uxtb	r0, r3
 1441 0782 1149     		ldr	r1, .L93
 1442 0784 1346     		mov	r3, r2
 1443 0786 1B01     		lsls	r3, r3, #4
 1444 0788 1344     		add	r3, r3, r2
 1445 078a 5B00     		lsls	r3, r3, #1
 1446 078c 0B44     		add	r3, r3, r1
 1447 078e 1833     		adds	r3, r3, #24
 1448 0790 0246     		mov	r2, r0
 1449 0792 9A70     		strb	r2, [r3, #2]
 417:build/OpenMote-CC2538_armgcc/openstack/02b-MAChigh/neighbors.c ****             memcpy(&neighbors_vars.neighbors[i].asn,asnTs,sizeof(asn_t));
 1450              		.loc 1 417 0
 1451 0794 FA7D     		ldrb	r2, [r7, #23]	@ zero_extendqisi2
 1452 0796 1346     		mov	r3, r2
 1453 0798 1B01     		lsls	r3, r3, #4
 1454 079a 1344     		add	r3, r3, r2
 1455 079c 5B00     		lsls	r3, r3, #1
 1456 079e 1833     		adds	r3, r3, #24
 1457 07a0 094A     		ldr	r2, .L93
 1458 07a2 1344     		add	r3, r3, r2
 1459 07a4 0433     		adds	r3, r3, #4
 1460 07a6 7A68     		ldr	r2, [r7, #4]
 1461 07a8 1168     		ldr	r1, [r2]	@ unaligned
 1462 07aa 1960     		str	r1, [r3]	@ unaligned
 1463 07ac 1279     		ldrb	r2, [r2, #4]
 1464 07ae 1A71     		strb	r2, [r3, #4]
 418:build/OpenMote-CC2538_armgcc/openstack/02b-MAChigh/neighbors.c ****         }
 419:build/OpenMote-CC2538_armgcc/openstack/02b-MAChigh/neighbors.c ****         break;
 1465              		.loc 1 419 0
 1466 07b0 07E0     		b	.L85
 1467              	.L91:
 1468 07b2 06E0     		b	.L85
 1469              	.L89:
 403:build/OpenMote-CC2538_armgcc/openstack/02b-MAChigh/neighbors.c ****       if (isThisRowMatching(l2_dest,i)) {
 1470              		.loc 1 403 0 discriminator 2
 1471 07b4 FB7D     		ldrb	r3, [r7, #23]	@ zero_extendqisi2
 1472 07b6 0133     		adds	r3, r3, #1
 1473 07b8 FB75     		strb	r3, [r7, #23]
 1474              	.L88:
 403:build/OpenMote-CC2538_armgcc/openstack/02b-MAChigh/neighbors.c ****       if (isThisRowMatching(l2_dest,i)) {
 1475              		.loc 1 403 0 is_stmt 0 discriminator 1
 1476 07ba FB7D     		ldrb	r3, [r7, #23]	@ zero_extendqisi2
 1477 07bc 092B     		cmp	r3, #9
 1478 07be 7FF666AF 		bls	.L92
 1479              	.L85:
 420:build/OpenMote-CC2538_armgcc/openstack/02b-MAChigh/neighbors.c ****       }
 421:build/OpenMote-CC2538_armgcc/openstack/02b-MAChigh/neighbors.c ****    }
 422:build/OpenMote-CC2538_armgcc/openstack/02b-MAChigh/neighbors.c **** }
 1480              		.loc 1 422 0 is_stmt 1
 1481 07c2 1837     		adds	r7, r7, #24
 1482              		.cfi_def_cfa_offset 8
 1483 07c4 BD46     		mov	sp, r7
 1484              		.cfi_def_cfa_register 13
 1485              		@ sp needed
 1486 07c6 80BD     		pop	{r7, pc}
 1487              	.L94:
 1488              		.align	2
 1489              	.L93:
 1490 07c8 00000000 		.word	neighbors_vars
 1491              		.cfi_endproc
 1492              	.LFE10:
 1494              		.align	2
 1495              		.global	neighbors_indicateRxDIO
 1496              		.thumb
 1497              		.thumb_func
 1499              	neighbors_indicateRxDIO:
 1500              	.LFB11:
 423:build/OpenMote-CC2538_armgcc/openstack/02b-MAChigh/neighbors.c **** 
 424:build/OpenMote-CC2538_armgcc/openstack/02b-MAChigh/neighbors.c **** /**
 425:build/OpenMote-CC2538_armgcc/openstack/02b-MAChigh/neighbors.c **** \brief Indicate I just received a RPL DIO from a neighbor.
 426:build/OpenMote-CC2538_armgcc/openstack/02b-MAChigh/neighbors.c **** 
 427:build/OpenMote-CC2538_armgcc/openstack/02b-MAChigh/neighbors.c **** This function should be called for each received a DIO is received so neighbor
 428:build/OpenMote-CC2538_armgcc/openstack/02b-MAChigh/neighbors.c **** routing information in the neighbor table can be updated.
 429:build/OpenMote-CC2538_armgcc/openstack/02b-MAChigh/neighbors.c **** 
 430:build/OpenMote-CC2538_armgcc/openstack/02b-MAChigh/neighbors.c **** The fields which are updated are:
 431:build/OpenMote-CC2538_armgcc/openstack/02b-MAChigh/neighbors.c **** - DAGrank
 432:build/OpenMote-CC2538_armgcc/openstack/02b-MAChigh/neighbors.c **** 
 433:build/OpenMote-CC2538_armgcc/openstack/02b-MAChigh/neighbors.c **** \param[in] msg The received message with msg->payload pointing to the DIO
 434:build/OpenMote-CC2538_armgcc/openstack/02b-MAChigh/neighbors.c ****    header.
 435:build/OpenMote-CC2538_armgcc/openstack/02b-MAChigh/neighbors.c **** */
 436:build/OpenMote-CC2538_armgcc/openstack/02b-MAChigh/neighbors.c **** void neighbors_indicateRxDIO(OpenQueueEntry_t* msg) {
 1501              		.loc 1 436 0
 1502              		.cfi_startproc
 1503              		@ args = 0, pretend = 0, frame = 16
 1504              		@ frame_needed = 1, uses_anonymous_args = 0
 1505 07cc 90B5     		push	{r4, r7, lr}
 1506              		.cfi_def_cfa_offset 12
 1507              		.cfi_offset 4, -12
 1508              		.cfi_offset 7, -8
 1509              		.cfi_offset 14, -4
 1510 07ce 85B0     		sub	sp, sp, #20
 1511              		.cfi_def_cfa_offset 32
 1512 07d0 00AF     		add	r7, sp, #0
 1513              		.cfi_def_cfa_register 7
 1514 07d2 7860     		str	r0, [r7, #4]
 437:build/OpenMote-CC2538_armgcc/openstack/02b-MAChigh/neighbors.c ****    uint8_t          i;
 438:build/OpenMote-CC2538_armgcc/openstack/02b-MAChigh/neighbors.c ****    uint8_t          temp_8b;
 439:build/OpenMote-CC2538_armgcc/openstack/02b-MAChigh/neighbors.c ****   
 440:build/OpenMote-CC2538_armgcc/openstack/02b-MAChigh/neighbors.c ****    // take ownership over the packet
 441:build/OpenMote-CC2538_armgcc/openstack/02b-MAChigh/neighbors.c ****    msg->owner = COMPONENT_NEIGHBORS;
 1515              		.loc 1 441 0
 1516 07d4 7B68     		ldr	r3, [r7, #4]
 1517 07d6 0D22     		movs	r2, #13
 1518 07d8 5A70     		strb	r2, [r3, #1]
 442:build/OpenMote-CC2538_armgcc/openstack/02b-MAChigh/neighbors.c ****    
 443:build/OpenMote-CC2538_armgcc/openstack/02b-MAChigh/neighbors.c ****    // update rank of that neighbor in table
 444:build/OpenMote-CC2538_armgcc/openstack/02b-MAChigh/neighbors.c ****    neighbors_vars.dio = (icmpv6rpl_dio_ht*)(msg->payload);
 1519              		.loc 1 444 0
 1520 07da 7B68     		ldr	r3, [r7, #4]
 1521 07dc 5B68     		ldr	r3, [r3, #4]
 1522 07de 4F4A     		ldr	r2, .L102
 1523 07e0 C2F85831 		str	r3, [r2, #344]
 445:build/OpenMote-CC2538_armgcc/openstack/02b-MAChigh/neighbors.c ****    // retrieve rank
 446:build/OpenMote-CC2538_armgcc/openstack/02b-MAChigh/neighbors.c ****    temp_8b            = *(msg->payload+2);
 1524              		.loc 1 446 0
 1525 07e4 7B68     		ldr	r3, [r7, #4]
 1526 07e6 5B68     		ldr	r3, [r3, #4]
 1527 07e8 9B78     		ldrb	r3, [r3, #2]
 1528 07ea BB73     		strb	r3, [r7, #14]
 447:build/OpenMote-CC2538_armgcc/openstack/02b-MAChigh/neighbors.c ****    neighbors_vars.dio->rank = (temp_8b << 8) + *(msg->payload+3);
 1529              		.loc 1 447 0
 1530 07ec 4B4B     		ldr	r3, .L102
 1531 07ee D3F85831 		ldr	r3, [r3, #344]
 1532 07f2 BA7B     		ldrb	r2, [r7, #14]	@ zero_extendqisi2
 1533 07f4 92B2     		uxth	r2, r2
 1534 07f6 1202     		lsls	r2, r2, #8
 1535 07f8 91B2     		uxth	r1, r2
 1536 07fa 7A68     		ldr	r2, [r7, #4]
 1537 07fc 5268     		ldr	r2, [r2, #4]
 1538 07fe 0332     		adds	r2, r2, #3
 1539 0800 1278     		ldrb	r2, [r2]	@ zero_extendqisi2
 1540 0802 92B2     		uxth	r2, r2
 1541 0804 0A44     		add	r2, r2, r1
 1542 0806 92B2     		uxth	r2, r2
 1543 0808 5A80     		strh	r2, [r3, #2]	@ unaligned
 448:build/OpenMote-CC2538_armgcc/openstack/02b-MAChigh/neighbors.c ****    if (isNeighbor(&(msg->l2_nextORpreviousHop))==TRUE) {
 1544              		.loc 1 448 0
 1545 080a 7B68     		ldr	r3, [r7, #4]
 1546 080c 3833     		adds	r3, r3, #56
 1547 080e 1846     		mov	r0, r3
 1548 0810 FFF7FEFF 		bl	isNeighbor
 1549 0814 0346     		mov	r3, r0
 1550 0816 002B     		cmp	r3, #0
 1551 0818 7AD0     		beq	.L96
 449:build/OpenMote-CC2538_armgcc/openstack/02b-MAChigh/neighbors.c ****       for (i=0;i<MAXNUMNEIGHBORS;i++) {
 1552              		.loc 1 449 0
 1553 081a 0023     		movs	r3, #0
 1554 081c FB73     		strb	r3, [r7, #15]
 1555 081e 74E0     		b	.L97
 1556              	.L101:
 450:build/OpenMote-CC2538_armgcc/openstack/02b-MAChigh/neighbors.c ****          if (isThisRowMatching(&(msg->l2_nextORpreviousHop),i)) {
 1557              		.loc 1 450 0
 1558 0820 7B68     		ldr	r3, [r7, #4]
 1559 0822 03F13802 		add	r2, r3, #56
 1560 0826 FB7B     		ldrb	r3, [r7, #15]	@ zero_extendqisi2
 1561 0828 1046     		mov	r0, r2
 1562 082a 1946     		mov	r1, r3
 1563 082c FFF7FEFF 		bl	isThisRowMatching
 1564 0830 0346     		mov	r3, r0
 1565 0832 002B     		cmp	r3, #0
 1566 0834 66D0     		beq	.L98
 451:build/OpenMote-CC2538_armgcc/openstack/02b-MAChigh/neighbors.c ****             if (
 452:build/OpenMote-CC2538_armgcc/openstack/02b-MAChigh/neighbors.c ****                   neighbors_vars.dio->rank > neighbors_vars.neighbors[i].DAGrank &&
 1567              		.loc 1 452 0
 1568 0836 394B     		ldr	r3, .L102
 1569 0838 D3F85831 		ldr	r3, [r3, #344]
 1570 083c 5B88     		ldrh	r3, [r3, #2]	@ unaligned
 1571 083e 99B2     		uxth	r1, r3
 1572 0840 FA7B     		ldrb	r2, [r7, #15]	@ zero_extendqisi2
 1573 0842 3648     		ldr	r0, .L102
 1574 0844 1346     		mov	r3, r2
 1575 0846 1B01     		lsls	r3, r3, #4
 1576 0848 1344     		add	r3, r3, r2
 1577 084a 5B00     		lsls	r3, r3, #1
 1578 084c 0344     		add	r3, r3, r0
 1579 084e 1033     		adds	r3, r3, #16
 1580 0850 B3F80530 		ldrh	r3, [r3, #5]	@ unaligned
 1581 0854 9BB2     		uxth	r3, r3
 451:build/OpenMote-CC2538_armgcc/openstack/02b-MAChigh/neighbors.c ****             if (
 1582              		.loc 1 451 0
 1583 0856 9942     		cmp	r1, r3
 1584 0858 43D9     		bls	.L99
 453:build/OpenMote-CC2538_armgcc/openstack/02b-MAChigh/neighbors.c ****                   neighbors_vars.dio->rank - neighbors_vars.neighbors[i].DAGrank >(DEFAULTLINKCOST*
 1585              		.loc 1 453 0
 1586 085a 304B     		ldr	r3, .L102
 1587 085c D3F85831 		ldr	r3, [r3, #344]
 1588 0860 5B88     		ldrh	r3, [r3, #2]	@ unaligned
 1589 0862 9BB2     		uxth	r3, r3
 1590 0864 1846     		mov	r0, r3
 1591 0866 FA7B     		ldrb	r2, [r7, #15]	@ zero_extendqisi2
 1592 0868 2C49     		ldr	r1, .L102
 1593 086a 1346     		mov	r3, r2
 1594 086c 1B01     		lsls	r3, r3, #4
 1595 086e 1344     		add	r3, r3, r2
 1596 0870 5B00     		lsls	r3, r3, #1
 1597 0872 0B44     		add	r3, r3, r1
 1598 0874 1033     		adds	r3, r3, #16
 1599 0876 B3F80530 		ldrh	r3, [r3, #5]	@ unaligned
 1600 087a 9BB2     		uxth	r3, r3
 1601 087c C31A     		subs	r3, r0, r3
 452:build/OpenMote-CC2538_armgcc/openstack/02b-MAChigh/neighbors.c ****                   neighbors_vars.dio->rank - neighbors_vars.neighbors[i].DAGrank >(DEFAULTLINKCOST*
 1602              		.loc 1 452 0
 1603 087e B3F5F05F 		cmp	r3, #7680
 1604 0882 2EDD     		ble	.L99
 454:build/OpenMote-CC2538_armgcc/openstack/02b-MAChigh/neighbors.c ****                ) {
 455:build/OpenMote-CC2538_armgcc/openstack/02b-MAChigh/neighbors.c ****                 // the new DAGrank looks suspiciously high, only increment a bit
 456:build/OpenMote-CC2538_armgcc/openstack/02b-MAChigh/neighbors.c ****                 neighbors_vars.neighbors[i].DAGrank += (DEFAULTLINKCOST*2*MINHOPRANKINCREASE);
 1605              		.loc 1 456 0
 1606 0884 FA7B     		ldrb	r2, [r7, #15]	@ zero_extendqisi2
 1607 0886 F97B     		ldrb	r1, [r7, #15]	@ zero_extendqisi2
 1608 0888 2448     		ldr	r0, .L102
 1609 088a 0B46     		mov	r3, r1
 1610 088c 1B01     		lsls	r3, r3, #4
 1611 088e 0B44     		add	r3, r3, r1
 1612 0890 5B00     		lsls	r3, r3, #1
 1613 0892 0344     		add	r3, r3, r0
 1614 0894 1033     		adds	r3, r3, #16
 1615 0896 B3F80530 		ldrh	r3, [r3, #5]	@ unaligned
 1616 089a 9BB2     		uxth	r3, r3
 1617 089c 03F5F053 		add	r3, r3, #7680
 1618 08a0 98B2     		uxth	r0, r3
 1619 08a2 1E49     		ldr	r1, .L102
 1620 08a4 1346     		mov	r3, r2
 1621 08a6 1B01     		lsls	r3, r3, #4
 1622 08a8 1344     		add	r3, r3, r2
 1623 08aa 5B00     		lsls	r3, r3, #1
 1624 08ac 0B44     		add	r3, r3, r1
 1625 08ae 1033     		adds	r3, r3, #16
 1626 08b0 0246     		mov	r2, r0	@ movhi
 1627 08b2 A3F80520 		strh	r2, [r3, #5]	@ unaligned
 457:build/OpenMote-CC2538_armgcc/openstack/02b-MAChigh/neighbors.c ****                 openserial_printError(COMPONENT_NEIGHBORS,ERR_LARGE_DAGRANK,
 458:build/OpenMote-CC2538_armgcc/openstack/02b-MAChigh/neighbors.c ****                                (errorparameter_t)neighbors_vars.dio->rank,
 1628              		.loc 1 458 0
 1629 08b6 194B     		ldr	r3, .L102
 1630 08b8 D3F85831 		ldr	r3, [r3, #344]
 457:build/OpenMote-CC2538_armgcc/openstack/02b-MAChigh/neighbors.c ****                 openserial_printError(COMPONENT_NEIGHBORS,ERR_LARGE_DAGRANK,
 1631              		.loc 1 457 0
 1632 08bc 5B88     		ldrh	r3, [r3, #2]	@ unaligned
 1633 08be 9CB2     		uxth	r4, r3
 1634 08c0 FA7B     		ldrb	r2, [r7, #15]	@ zero_extendqisi2
 1635 08c2 1649     		ldr	r1, .L102
 1636 08c4 1346     		mov	r3, r2
 1637 08c6 1B01     		lsls	r3, r3, #4
 1638 08c8 1344     		add	r3, r3, r2
 1639 08ca 5B00     		lsls	r3, r3, #1
 1640 08cc 0B44     		add	r3, r3, r1
 1641 08ce 1033     		adds	r3, r3, #16
 1642 08d0 B3F80530 		ldrh	r3, [r3, #5]	@ unaligned
 1643 08d4 9BB2     		uxth	r3, r3
 1644 08d6 0D20     		movs	r0, #13
 1645 08d8 1021     		movs	r1, #16
 1646 08da 2246     		mov	r2, r4
 1647 08dc FFF7FEFF 		bl	openserial_printError
 459:build/OpenMote-CC2538_armgcc/openstack/02b-MAChigh/neighbors.c ****                                (errorparameter_t)neighbors_vars.neighbors[i].DAGrank);
 460:build/OpenMote-CC2538_armgcc/openstack/02b-MAChigh/neighbors.c ****             } else {
 461:build/OpenMote-CC2538_armgcc/openstack/02b-MAChigh/neighbors.c ****                neighbors_vars.neighbors[i].DAGrank = neighbors_vars.dio->rank;
 462:build/OpenMote-CC2538_armgcc/openstack/02b-MAChigh/neighbors.c ****             }
 463:build/OpenMote-CC2538_armgcc/openstack/02b-MAChigh/neighbors.c ****             break;
 1648              		.loc 1 463 0
 1649 08e0 16E0     		b	.L96
 1650              	.L99:
 461:build/OpenMote-CC2538_armgcc/openstack/02b-MAChigh/neighbors.c ****             }
 1651              		.loc 1 461 0
 1652 08e2 FA7B     		ldrb	r2, [r7, #15]	@ zero_extendqisi2
 1653 08e4 0D4B     		ldr	r3, .L102
 1654 08e6 D3F85831 		ldr	r3, [r3, #344]
 1655 08ea 5B88     		ldrh	r3, [r3, #2]	@ unaligned
 1656 08ec 98B2     		uxth	r0, r3
 1657 08ee 0B49     		ldr	r1, .L102
 1658 08f0 1346     		mov	r3, r2
 1659 08f2 1B01     		lsls	r3, r3, #4
 1660 08f4 1344     		add	r3, r3, r2
 1661 08f6 5B00     		lsls	r3, r3, #1
 1662 08f8 0B44     		add	r3, r3, r1
 1663 08fa 1033     		adds	r3, r3, #16
 1664 08fc 0246     		mov	r2, r0	@ movhi
 1665 08fe A3F80520 		strh	r2, [r3, #5]	@ unaligned
 1666              		.loc 1 463 0
 1667 0902 05E0     		b	.L96
 1668              	.L98:
 449:build/OpenMote-CC2538_armgcc/openstack/02b-MAChigh/neighbors.c ****          if (isThisRowMatching(&(msg->l2_nextORpreviousHop),i)) {
 1669              		.loc 1 449 0 discriminator 2
 1670 0904 FB7B     		ldrb	r3, [r7, #15]	@ zero_extendqisi2
 1671 0906 0133     		adds	r3, r3, #1
 1672 0908 FB73     		strb	r3, [r7, #15]
 1673              	.L97:
 449:build/OpenMote-CC2538_armgcc/openstack/02b-MAChigh/neighbors.c ****          if (isThisRowMatching(&(msg->l2_nextORpreviousHop),i)) {
 1674              		.loc 1 449 0 is_stmt 0 discriminator 1
 1675 090a FB7B     		ldrb	r3, [r7, #15]	@ zero_extendqisi2
 1676 090c 092B     		cmp	r3, #9
 1677 090e 87D9     		bls	.L101
 1678              	.L96:
 464:build/OpenMote-CC2538_armgcc/openstack/02b-MAChigh/neighbors.c ****          }
 465:build/OpenMote-CC2538_armgcc/openstack/02b-MAChigh/neighbors.c ****       }
 466:build/OpenMote-CC2538_armgcc/openstack/02b-MAChigh/neighbors.c ****    } 
 467:build/OpenMote-CC2538_armgcc/openstack/02b-MAChigh/neighbors.c ****    // update my routing information
 468:build/OpenMote-CC2538_armgcc/openstack/02b-MAChigh/neighbors.c ****    neighbors_updateMyDAGrankAndNeighborPreference(); 
 1679              		.loc 1 468 0 is_stmt 1
 1680 0910 FFF7FEFF 		bl	neighbors_updateMyDAGrankAndNeighborPreference
 469:build/OpenMote-CC2538_armgcc/openstack/02b-MAChigh/neighbors.c **** }
 1681              		.loc 1 469 0
 1682 0914 1437     		adds	r7, r7, #20
 1683              		.cfi_def_cfa_offset 12
 1684 0916 BD46     		mov	sp, r7
 1685              		.cfi_def_cfa_register 13
 1686              		@ sp needed
 1687 0918 90BD     		pop	{r4, r7, pc}
 1688              	.L103:
 1689 091a 00BF     		.align	2
 1690              	.L102:
 1691 091c 00000000 		.word	neighbors_vars
 1692              		.cfi_endproc
 1693              	.LFE11:
 1695              		.align	2
 1696              		.global	neighbors_getNeighbor
 1697              		.thumb
 1698              		.thumb_func
 1700              	neighbors_getNeighbor:
 1701              	.LFB12:
 470:build/OpenMote-CC2538_armgcc/openstack/02b-MAChigh/neighbors.c **** 
 471:build/OpenMote-CC2538_armgcc/openstack/02b-MAChigh/neighbors.c **** //===== write addresses
 472:build/OpenMote-CC2538_armgcc/openstack/02b-MAChigh/neighbors.c **** 
 473:build/OpenMote-CC2538_armgcc/openstack/02b-MAChigh/neighbors.c **** /**
 474:build/OpenMote-CC2538_armgcc/openstack/02b-MAChigh/neighbors.c **** \brief Write the 64-bit address of some neighbor to some location.
 475:build/OpenMote-CC2538_armgcc/openstack/02b-MAChigh/neighbors.c **** */
 476:build/OpenMote-CC2538_armgcc/openstack/02b-MAChigh/neighbors.c **** void  neighbors_getNeighbor(open_addr_t* address, uint8_t addr_type, uint8_t index){
 1702              		.loc 1 476 0
 1703              		.cfi_startproc
 1704              		@ args = 0, pretend = 0, frame = 8
 1705              		@ frame_needed = 1, uses_anonymous_args = 0
 1706 0920 80B5     		push	{r7, lr}
 1707              		.cfi_def_cfa_offset 8
 1708              		.cfi_offset 7, -8
 1709              		.cfi_offset 14, -4
 1710 0922 82B0     		sub	sp, sp, #8
 1711              		.cfi_def_cfa_offset 16
 1712 0924 00AF     		add	r7, sp, #0
 1713              		.cfi_def_cfa_register 7
 1714 0926 7860     		str	r0, [r7, #4]
 1715 0928 0B46     		mov	r3, r1
 1716 092a FB70     		strb	r3, [r7, #3]
 1717 092c 1346     		mov	r3, r2
 1718 092e BB70     		strb	r3, [r7, #2]
 477:build/OpenMote-CC2538_armgcc/openstack/02b-MAChigh/neighbors.c ****    switch(addr_type) {
 1719              		.loc 1 477 0
 1720 0930 FB78     		ldrb	r3, [r7, #3]	@ zero_extendqisi2
 1721 0932 022B     		cmp	r3, #2
 1722 0934 12D1     		bne	.L108
 478:build/OpenMote-CC2538_armgcc/openstack/02b-MAChigh/neighbors.c ****       case ADDR_64B:
 479:build/OpenMote-CC2538_armgcc/openstack/02b-MAChigh/neighbors.c ****          memcpy(&(address->addr_64b),&(neighbors_vars.neighbors[index].addr_64b.addr_64b),LENGTH_AD
 1723              		.loc 1 479 0
 1724 0936 7B68     		ldr	r3, [r7, #4]
 1725 0938 591C     		adds	r1, r3, #1
 1726 093a BA78     		ldrb	r2, [r7, #2]	@ zero_extendqisi2
 1727 093c 1346     		mov	r3, r2
 1728 093e 1B01     		lsls	r3, r3, #4
 1729 0940 1344     		add	r3, r3, r2
 1730 0942 5B00     		lsls	r3, r3, #1
 1731 0944 0B4A     		ldr	r2, .L109
 1732 0946 1344     		add	r3, r3, r2
 1733 0948 5A1D     		adds	r2, r3, #5
 1734 094a 0B46     		mov	r3, r1
 1735 094c 1168     		ldr	r1, [r2]	@ unaligned
 1736 094e 5268     		ldr	r2, [r2, #4]	@ unaligned
 1737 0950 1960     		str	r1, [r3]	@ unaligned
 1738 0952 5A60     		str	r2, [r3, #4]	@ unaligned
 480:build/OpenMote-CC2538_armgcc/openstack/02b-MAChigh/neighbors.c ****          address->type=ADDR_64B;
 1739              		.loc 1 480 0
 1740 0954 7B68     		ldr	r3, [r7, #4]
 1741 0956 0222     		movs	r2, #2
 1742 0958 1A70     		strb	r2, [r3]
 481:build/OpenMote-CC2538_armgcc/openstack/02b-MAChigh/neighbors.c ****          break;
 1743              		.loc 1 481 0
 1744 095a 08E0     		b	.L104
 1745              	.L108:
 482:build/OpenMote-CC2538_armgcc/openstack/02b-MAChigh/neighbors.c ****       default:
 483:build/OpenMote-CC2538_armgcc/openstack/02b-MAChigh/neighbors.c ****          openserial_printCritical(COMPONENT_NEIGHBORS,ERR_WRONG_ADDR_TYPE,
 1746              		.loc 1 483 0
 1747 095c FB78     		ldrb	r3, [r7, #3]	@ zero_extendqisi2
 1748 095e 9BB2     		uxth	r3, r3
 1749 0960 0D20     		movs	r0, #13
 1750 0962 3121     		movs	r1, #49
 1751 0964 1A46     		mov	r2, r3
 1752 0966 0123     		movs	r3, #1
 1753 0968 FFF7FEFF 		bl	openserial_printCritical
 484:build/OpenMote-CC2538_armgcc/openstack/02b-MAChigh/neighbors.c ****                                (errorparameter_t)addr_type,
 485:build/OpenMote-CC2538_armgcc/openstack/02b-MAChigh/neighbors.c ****                                (errorparameter_t)1);
 486:build/OpenMote-CC2538_armgcc/openstack/02b-MAChigh/neighbors.c ****          break; 
 1754              		.loc 1 486 0
 1755 096c 00BF     		nop
 1756              	.L104:
 487:build/OpenMote-CC2538_armgcc/openstack/02b-MAChigh/neighbors.c ****    }
 488:build/OpenMote-CC2538_armgcc/openstack/02b-MAChigh/neighbors.c **** }
 1757              		.loc 1 488 0
 1758 096e 0837     		adds	r7, r7, #8
 1759              		.cfi_def_cfa_offset 8
 1760 0970 BD46     		mov	sp, r7
 1761              		.cfi_def_cfa_register 13
 1762              		@ sp needed
 1763 0972 80BD     		pop	{r7, pc}
 1764              	.L110:
 1765              		.align	2
 1766              	.L109:
 1767 0974 00000000 		.word	neighbors_vars
 1768              		.cfi_endproc
 1769              	.LFE12:
 1771              		.align	2
 1772              		.global	neighbors_setMyDAGrank
 1773              		.thumb
 1774              		.thumb_func
 1776              	neighbors_setMyDAGrank:
 1777              	.LFB13:
 489:build/OpenMote-CC2538_armgcc/openstack/02b-MAChigh/neighbors.c **** 
 490:build/OpenMote-CC2538_armgcc/openstack/02b-MAChigh/neighbors.c **** //===== setters
 491:build/OpenMote-CC2538_armgcc/openstack/02b-MAChigh/neighbors.c **** 
 492:build/OpenMote-CC2538_armgcc/openstack/02b-MAChigh/neighbors.c **** void neighbors_setMyDAGrank(dagrank_t rank){
 1778              		.loc 1 492 0
 1779              		.cfi_startproc
 1780              		@ args = 0, pretend = 0, frame = 8
 1781              		@ frame_needed = 1, uses_anonymous_args = 0
 1782              		@ link register save eliminated.
 1783 0978 80B4     		push	{r7}
 1784              		.cfi_def_cfa_offset 4
 1785              		.cfi_offset 7, -4
 1786 097a 83B0     		sub	sp, sp, #12
 1787              		.cfi_def_cfa_offset 16
 1788 097c 00AF     		add	r7, sp, #0
 1789              		.cfi_def_cfa_register 7
 1790 097e 0346     		mov	r3, r0
 1791 0980 FB80     		strh	r3, [r7, #6]	@ movhi
 493:build/OpenMote-CC2538_armgcc/openstack/02b-MAChigh/neighbors.c ****     neighbors_vars.myDAGrank = rank;
 1792              		.loc 1 493 0
 1793 0982 044A     		ldr	r2, .L112
 1794 0984 FB88     		ldrh	r3, [r7, #6]	@ movhi
 1795 0986 A2F85431 		strh	r3, [r2, #340]	@ movhi
 494:build/OpenMote-CC2538_armgcc/openstack/02b-MAChigh/neighbors.c **** }
 1796              		.loc 1 494 0
 1797 098a 0C37     		adds	r7, r7, #12
 1798              		.cfi_def_cfa_offset 4
 1799 098c BD46     		mov	sp, r7
 1800              		.cfi_def_cfa_register 13
 1801              		@ sp needed
 1802 098e 5DF8047B 		ldr	r7, [sp], #4
 1803              		.cfi_restore 7
 1804              		.cfi_def_cfa_offset 0
 1805 0992 7047     		bx	lr
 1806              	.L113:
 1807              		.align	2
 1808              	.L112:
 1809 0994 00000000 		.word	neighbors_vars
 1810              		.cfi_endproc
 1811              	.LFE13:
 1813              		.align	2
 1814              		.global	neighbors_updateMyDAGrankAndNeighborPreference
 1815              		.thumb
 1816              		.thumb_func
 1818              	neighbors_updateMyDAGrankAndNeighborPreference:
 1819              	.LFB14:
 495:build/OpenMote-CC2538_armgcc/openstack/02b-MAChigh/neighbors.c **** 
 496:build/OpenMote-CC2538_armgcc/openstack/02b-MAChigh/neighbors.c **** //===== managing routing info
 497:build/OpenMote-CC2538_armgcc/openstack/02b-MAChigh/neighbors.c **** 
 498:build/OpenMote-CC2538_armgcc/openstack/02b-MAChigh/neighbors.c **** /**
 499:build/OpenMote-CC2538_armgcc/openstack/02b-MAChigh/neighbors.c **** \brief Update my DAG rank and neighbor preference.
 500:build/OpenMote-CC2538_armgcc/openstack/02b-MAChigh/neighbors.c **** 
 501:build/OpenMote-CC2538_armgcc/openstack/02b-MAChigh/neighbors.c **** Call this function whenever some data is changed that could cause this mote's
 502:build/OpenMote-CC2538_armgcc/openstack/02b-MAChigh/neighbors.c **** routing decisions to change. Examples are:
 503:build/OpenMote-CC2538_armgcc/openstack/02b-MAChigh/neighbors.c **** - I received a DIO which updated by neighbor table. If this DIO indicated a
 504:build/OpenMote-CC2538_armgcc/openstack/02b-MAChigh/neighbors.c ****   very low DAGrank, I may want to change by routing parent.
 505:build/OpenMote-CC2538_armgcc/openstack/02b-MAChigh/neighbors.c **** - I became a DAGroot, so my DAGrank should be 0.
 506:build/OpenMote-CC2538_armgcc/openstack/02b-MAChigh/neighbors.c **** */
 507:build/OpenMote-CC2538_armgcc/openstack/02b-MAChigh/neighbors.c **** void neighbors_updateMyDAGrankAndNeighborPreference() {
 1820              		.loc 1 507 0
 1821              		.cfi_startproc
 1822              		@ args = 0, pretend = 0, frame = 16
 1823              		@ frame_needed = 1, uses_anonymous_args = 0
 1824 0998 80B5     		push	{r7, lr}
 1825              		.cfi_def_cfa_offset 8
 1826              		.cfi_offset 7, -8
 1827              		.cfi_offset 14, -4
 1828 099a 84B0     		sub	sp, sp, #16
 1829              		.cfi_def_cfa_offset 24
 1830 099c 00AF     		add	r7, sp, #0
 1831              		.cfi_def_cfa_register 7
 508:build/OpenMote-CC2538_armgcc/openstack/02b-MAChigh/neighbors.c ****    uint8_t   i;
 509:build/OpenMote-CC2538_armgcc/openstack/02b-MAChigh/neighbors.c ****    uint16_t  rankIncrease;
 510:build/OpenMote-CC2538_armgcc/openstack/02b-MAChigh/neighbors.c ****    uint32_t  tentativeDAGrank; // 32-bit since is used to sum
 511:build/OpenMote-CC2538_armgcc/openstack/02b-MAChigh/neighbors.c ****    uint8_t   prefParentIdx;
 512:build/OpenMote-CC2538_armgcc/openstack/02b-MAChigh/neighbors.c ****    bool      prefParentFound;
 513:build/OpenMote-CC2538_armgcc/openstack/02b-MAChigh/neighbors.c ****    uint32_t  rankIncreaseIntermediary; // stores intermediary results of rankIncrease calculation
 514:build/OpenMote-CC2538_armgcc/openstack/02b-MAChigh/neighbors.c ****    
 515:build/OpenMote-CC2538_armgcc/openstack/02b-MAChigh/neighbors.c ****    // if I'm a DAGroot, my DAGrank is always MINHOPRANKINCREASE
 516:build/OpenMote-CC2538_armgcc/openstack/02b-MAChigh/neighbors.c ****    if ((idmanager_getIsDAGroot())==TRUE) {
 1832              		.loc 1 516 0
 1833 099e FFF7FEFF 		bl	idmanager_getIsDAGroot
 1834 09a2 0346     		mov	r3, r0
 1835 09a4 002B     		cmp	r3, #0
 1836 09a6 05D0     		beq	.L115
 517:build/OpenMote-CC2538_armgcc/openstack/02b-MAChigh/neighbors.c ****        // the dagrank is not set through setting command, set rank to MINHOPRANKINCREASE here 
 518:build/OpenMote-CC2538_armgcc/openstack/02b-MAChigh/neighbors.c ****        neighbors_vars.myDAGrank=MINHOPRANKINCREASE;
 1837              		.loc 1 518 0
 1838 09a8 4D4B     		ldr	r3, .L122
 1839 09aa 4FF48072 		mov	r2, #256
 1840 09ae A3F85421 		strh	r2, [r3, #340]	@ movhi
 519:build/OpenMote-CC2538_armgcc/openstack/02b-MAChigh/neighbors.c ****        return;
 1841              		.loc 1 519 0
 1842 09b2 91E0     		b	.L114
 1843              	.L115:
 520:build/OpenMote-CC2538_armgcc/openstack/02b-MAChigh/neighbors.c ****    }
 521:build/OpenMote-CC2538_armgcc/openstack/02b-MAChigh/neighbors.c ****    
 522:build/OpenMote-CC2538_armgcc/openstack/02b-MAChigh/neighbors.c ****    // reset my DAG rank to max value. May be lowered below.
 523:build/OpenMote-CC2538_armgcc/openstack/02b-MAChigh/neighbors.c ****    neighbors_vars.myDAGrank  = MAXDAGRANK;
 1844              		.loc 1 523 0
 1845 09b4 4A4B     		ldr	r3, .L122
 1846 09b6 4FF6FF72 		movw	r2, #65535
 1847 09ba A3F85421 		strh	r2, [r3, #340]	@ movhi
 524:build/OpenMote-CC2538_armgcc/openstack/02b-MAChigh/neighbors.c ****    
 525:build/OpenMote-CC2538_armgcc/openstack/02b-MAChigh/neighbors.c ****    // by default, I haven't found a preferred parent
 526:build/OpenMote-CC2538_armgcc/openstack/02b-MAChigh/neighbors.c ****    prefParentFound           = FALSE;
 1848              		.loc 1 526 0
 1849 09be 0023     		movs	r3, #0
 1850 09c0 BB72     		strb	r3, [r7, #10]
 527:build/OpenMote-CC2538_armgcc/openstack/02b-MAChigh/neighbors.c ****    prefParentIdx             = 0;
 1851              		.loc 1 527 0
 1852 09c2 0023     		movs	r3, #0
 1853 09c4 FB72     		strb	r3, [r7, #11]
 528:build/OpenMote-CC2538_armgcc/openstack/02b-MAChigh/neighbors.c ****    
 529:build/OpenMote-CC2538_armgcc/openstack/02b-MAChigh/neighbors.c ****    // loop through neighbor table, update myDAGrank
 530:build/OpenMote-CC2538_armgcc/openstack/02b-MAChigh/neighbors.c ****    for (i=0;i<MAXNUMNEIGHBORS;i++) {
 1854              		.loc 1 530 0
 1855 09c6 0023     		movs	r3, #0
 1856 09c8 FB73     		strb	r3, [r7, #15]
 1857 09ca 64E0     		b	.L117
 1858              	.L121:
 531:build/OpenMote-CC2538_armgcc/openstack/02b-MAChigh/neighbors.c ****       if (neighbors_vars.neighbors[i].used==TRUE) {
 1859              		.loc 1 531 0
 1860 09cc FA7B     		ldrb	r2, [r7, #15]	@ zero_extendqisi2
 1861 09ce 4449     		ldr	r1, .L122
 1862 09d0 1346     		mov	r3, r2
 1863 09d2 1B01     		lsls	r3, r3, #4
 1864 09d4 1344     		add	r3, r3, r2
 1865 09d6 5B00     		lsls	r3, r3, #1
 1866 09d8 0B44     		add	r3, r3, r1
 1867 09da 1B78     		ldrb	r3, [r3]	@ zero_extendqisi2
 1868 09dc 002B     		cmp	r3, #0
 1869 09de 57D0     		beq	.L118
 532:build/OpenMote-CC2538_armgcc/openstack/02b-MAChigh/neighbors.c ****          
 533:build/OpenMote-CC2538_armgcc/openstack/02b-MAChigh/neighbors.c ****          // reset parent preference
 534:build/OpenMote-CC2538_armgcc/openstack/02b-MAChigh/neighbors.c ****          neighbors_vars.neighbors[i].parentPreference=0;
 1870              		.loc 1 534 0
 1871 09e0 FA7B     		ldrb	r2, [r7, #15]	@ zero_extendqisi2
 1872 09e2 3F49     		ldr	r1, .L122
 1873 09e4 1346     		mov	r3, r2
 1874 09e6 1B01     		lsls	r3, r3, #4
 1875 09e8 1344     		add	r3, r3, r2
 1876 09ea 5B00     		lsls	r3, r3, #1
 1877 09ec 0B44     		add	r3, r3, r1
 1878 09ee 0022     		movs	r2, #0
 1879 09f0 5A70     		strb	r2, [r3, #1]
 535:build/OpenMote-CC2538_armgcc/openstack/02b-MAChigh/neighbors.c ****          
 536:build/OpenMote-CC2538_armgcc/openstack/02b-MAChigh/neighbors.c ****          // calculate link cost to this neighbor
 537:build/OpenMote-CC2538_armgcc/openstack/02b-MAChigh/neighbors.c ****          if (neighbors_vars.neighbors[i].numTxACK==0) {
 1880              		.loc 1 537 0
 1881 09f2 FA7B     		ldrb	r2, [r7, #15]	@ zero_extendqisi2
 1882 09f4 3A49     		ldr	r1, .L122
 1883 09f6 1346     		mov	r3, r2
 1884 09f8 1B01     		lsls	r3, r3, #4
 1885 09fa 1344     		add	r3, r3, r2
 1886 09fc 5B00     		lsls	r3, r3, #1
 1887 09fe 0B44     		add	r3, r3, r1
 1888 0a00 1833     		adds	r3, r3, #24
 1889 0a02 9B78     		ldrb	r3, [r3, #2]	@ zero_extendqisi2
 1890 0a04 002B     		cmp	r3, #0
 1891 0a06 03D1     		bne	.L119
 538:build/OpenMote-CC2538_armgcc/openstack/02b-MAChigh/neighbors.c ****             rankIncrease = DEFAULTLINKCOST*2*MINHOPRANKINCREASE;
 1892              		.loc 1 538 0
 1893 0a08 4FF4F053 		mov	r3, #7680
 1894 0a0c BB81     		strh	r3, [r7, #12]	@ movhi
 1895 0a0e 1BE0     		b	.L120
 1896              	.L119:
 539:build/OpenMote-CC2538_armgcc/openstack/02b-MAChigh/neighbors.c ****          } else {
 540:build/OpenMote-CC2538_armgcc/openstack/02b-MAChigh/neighbors.c ****             //6TiSCH minimal draft using OF0 for rank computation
 541:build/OpenMote-CC2538_armgcc/openstack/02b-MAChigh/neighbors.c ****             rankIncreaseIntermediary = (((uint32_t)neighbors_vars.neighbors[i].numTx) << 10);
 1897              		.loc 1 541 0
 1898 0a10 FA7B     		ldrb	r2, [r7, #15]	@ zero_extendqisi2
 1899 0a12 3349     		ldr	r1, .L122
 1900 0a14 1346     		mov	r3, r2
 1901 0a16 1B01     		lsls	r3, r3, #4
 1902 0a18 1344     		add	r3, r3, r2
 1903 0a1a 5B00     		lsls	r3, r3, #1
 1904 0a1c 0B44     		add	r3, r3, r1
 1905 0a1e 1833     		adds	r3, r3, #24
 1906 0a20 5B78     		ldrb	r3, [r3, #1]	@ zero_extendqisi2
 1907 0a22 9B02     		lsls	r3, r3, #10
 1908 0a24 7B60     		str	r3, [r7, #4]
 542:build/OpenMote-CC2538_armgcc/openstack/02b-MAChigh/neighbors.c ****             rankIncreaseIntermediary = (rankIncreaseIntermediary * 2 * MINHOPRANKINCREASE) / ((uint
 1909              		.loc 1 542 0
 1910 0a26 7B68     		ldr	r3, [r7, #4]
 1911 0a28 5902     		lsls	r1, r3, #9
 1912 0a2a FA7B     		ldrb	r2, [r7, #15]	@ zero_extendqisi2
 1913 0a2c 2C48     		ldr	r0, .L122
 1914 0a2e 1346     		mov	r3, r2
 1915 0a30 1B01     		lsls	r3, r3, #4
 1916 0a32 1344     		add	r3, r3, r2
 1917 0a34 5B00     		lsls	r3, r3, #1
 1918 0a36 0344     		add	r3, r3, r0
 1919 0a38 1833     		adds	r3, r3, #24
 1920 0a3a 9B78     		ldrb	r3, [r3, #2]	@ zero_extendqisi2
 1921 0a3c B1FBF3F3 		udiv	r3, r1, r3
 1922 0a40 7B60     		str	r3, [r7, #4]
 543:build/OpenMote-CC2538_armgcc/openstack/02b-MAChigh/neighbors.c ****             rankIncrease = (uint16_t)(rankIncreaseIntermediary >> 10);
 1923              		.loc 1 543 0
 1924 0a42 7B68     		ldr	r3, [r7, #4]
 1925 0a44 9B0A     		lsrs	r3, r3, #10
 1926 0a46 BB81     		strh	r3, [r7, #12]	@ movhi
 1927              	.L120:
 544:build/OpenMote-CC2538_armgcc/openstack/02b-MAChigh/neighbors.c ****          }
 545:build/OpenMote-CC2538_armgcc/openstack/02b-MAChigh/neighbors.c ****          
 546:build/OpenMote-CC2538_armgcc/openstack/02b-MAChigh/neighbors.c ****          tentativeDAGrank = neighbors_vars.neighbors[i].DAGrank+rankIncrease;
 1928              		.loc 1 546 0
 1929 0a48 FA7B     		ldrb	r2, [r7, #15]	@ zero_extendqisi2
 1930 0a4a 2549     		ldr	r1, .L122
 1931 0a4c 1346     		mov	r3, r2
 1932 0a4e 1B01     		lsls	r3, r3, #4
 1933 0a50 1344     		add	r3, r3, r2
 1934 0a52 5B00     		lsls	r3, r3, #1
 1935 0a54 0B44     		add	r3, r3, r1
 1936 0a56 1033     		adds	r3, r3, #16
 1937 0a58 B3F80530 		ldrh	r3, [r3, #5]	@ unaligned
 1938 0a5c 9BB2     		uxth	r3, r3
 1939 0a5e 1A46     		mov	r2, r3
 1940 0a60 BB89     		ldrh	r3, [r7, #12]
 1941 0a62 1344     		add	r3, r3, r2
 1942 0a64 3B60     		str	r3, [r7]
 547:build/OpenMote-CC2538_armgcc/openstack/02b-MAChigh/neighbors.c ****          if ( tentativeDAGrank<neighbors_vars.myDAGrank &&
 1943              		.loc 1 547 0
 1944 0a66 1E4B     		ldr	r3, .L122
 1945 0a68 B3F85431 		ldrh	r3, [r3, #340]
 1946 0a6c 1A46     		mov	r2, r3
 1947 0a6e 3B68     		ldr	r3, [r7]
 1948 0a70 9A42     		cmp	r2, r3
 1949 0a72 0DD9     		bls	.L118
 1950              		.loc 1 547 0 is_stmt 0 discriminator 1
 1951 0a74 3B68     		ldr	r3, [r7]
 1952 0a76 4FF6FE72 		movw	r2, #65534
 1953 0a7a 9342     		cmp	r3, r2
 1954 0a7c 08D8     		bhi	.L118
 548:build/OpenMote-CC2538_armgcc/openstack/02b-MAChigh/neighbors.c ****               tentativeDAGrank<MAXDAGRANK) {
 549:build/OpenMote-CC2538_armgcc/openstack/02b-MAChigh/neighbors.c ****             // found better parent, lower my DAGrank
 550:build/OpenMote-CC2538_armgcc/openstack/02b-MAChigh/neighbors.c ****             neighbors_vars.myDAGrank   = tentativeDAGrank;
 1955              		.loc 1 550 0 is_stmt 1
 1956 0a7e 3B68     		ldr	r3, [r7]
 1957 0a80 9AB2     		uxth	r2, r3
 1958 0a82 174B     		ldr	r3, .L122
 1959 0a84 A3F85421 		strh	r2, [r3, #340]	@ movhi
 551:build/OpenMote-CC2538_armgcc/openstack/02b-MAChigh/neighbors.c ****             prefParentFound            = TRUE;
 1960              		.loc 1 551 0
 1961 0a88 0123     		movs	r3, #1
 1962 0a8a BB72     		strb	r3, [r7, #10]
 552:build/OpenMote-CC2538_armgcc/openstack/02b-MAChigh/neighbors.c ****             prefParentIdx              = i;
 1963              		.loc 1 552 0
 1964 0a8c FB7B     		ldrb	r3, [r7, #15]
 1965 0a8e FB72     		strb	r3, [r7, #11]
 1966              	.L118:
 530:build/OpenMote-CC2538_armgcc/openstack/02b-MAChigh/neighbors.c ****       if (neighbors_vars.neighbors[i].used==TRUE) {
 1967              		.loc 1 530 0 discriminator 2
 1968 0a90 FB7B     		ldrb	r3, [r7, #15]	@ zero_extendqisi2
 1969 0a92 0133     		adds	r3, r3, #1
 1970 0a94 FB73     		strb	r3, [r7, #15]
 1971              	.L117:
 530:build/OpenMote-CC2538_armgcc/openstack/02b-MAChigh/neighbors.c ****       if (neighbors_vars.neighbors[i].used==TRUE) {
 1972              		.loc 1 530 0 is_stmt 0 discriminator 1
 1973 0a96 FB7B     		ldrb	r3, [r7, #15]	@ zero_extendqisi2
 1974 0a98 092B     		cmp	r3, #9
 1975 0a9a 97D9     		bls	.L121
 553:build/OpenMote-CC2538_armgcc/openstack/02b-MAChigh/neighbors.c ****          }
 554:build/OpenMote-CC2538_armgcc/openstack/02b-MAChigh/neighbors.c ****       }
 555:build/OpenMote-CC2538_armgcc/openstack/02b-MAChigh/neighbors.c ****    } 
 556:build/OpenMote-CC2538_armgcc/openstack/02b-MAChigh/neighbors.c ****    
 557:build/OpenMote-CC2538_armgcc/openstack/02b-MAChigh/neighbors.c ****    // update preferred parent
 558:build/OpenMote-CC2538_armgcc/openstack/02b-MAChigh/neighbors.c ****    if (prefParentFound) {
 1976              		.loc 1 558 0 is_stmt 1
 1977 0a9c BB7A     		ldrb	r3, [r7, #10]	@ zero_extendqisi2
 1978 0a9e 002B     		cmp	r3, #0
 1979 0aa0 1AD0     		beq	.L114
 559:build/OpenMote-CC2538_armgcc/openstack/02b-MAChigh/neighbors.c ****       neighbors_vars.neighbors[prefParentIdx].parentPreference       = MAXPREFERENCE;
 1980              		.loc 1 559 0
 1981 0aa2 FA7A     		ldrb	r2, [r7, #11]	@ zero_extendqisi2
 1982 0aa4 0E49     		ldr	r1, .L122
 1983 0aa6 1346     		mov	r3, r2
 1984 0aa8 1B01     		lsls	r3, r3, #4
 1985 0aaa 1344     		add	r3, r3, r2
 1986 0aac 5B00     		lsls	r3, r3, #1
 1987 0aae 0B44     		add	r3, r3, r1
 1988 0ab0 0222     		movs	r2, #2
 1989 0ab2 5A70     		strb	r2, [r3, #1]
 560:build/OpenMote-CC2538_armgcc/openstack/02b-MAChigh/neighbors.c ****       neighbors_vars.neighbors[prefParentIdx].stableNeighbor         = TRUE;
 1990              		.loc 1 560 0
 1991 0ab4 FA7A     		ldrb	r2, [r7, #11]	@ zero_extendqisi2
 1992 0ab6 0A49     		ldr	r1, .L122
 1993 0ab8 1346     		mov	r3, r2
 1994 0aba 1B01     		lsls	r3, r3, #4
 1995 0abc 1344     		add	r3, r3, r2
 1996 0abe 5B00     		lsls	r3, r3, #1
 1997 0ac0 0B44     		add	r3, r3, r1
 1998 0ac2 0122     		movs	r2, #1
 1999 0ac4 9A70     		strb	r2, [r3, #2]
 561:build/OpenMote-CC2538_armgcc/openstack/02b-MAChigh/neighbors.c ****       neighbors_vars.neighbors[prefParentIdx].switchStabilityCounter = 0;
 2000              		.loc 1 561 0
 2001 0ac6 FA7A     		ldrb	r2, [r7, #11]	@ zero_extendqisi2
 2002 0ac8 0549     		ldr	r1, .L122
 2003 0aca 1346     		mov	r3, r2
 2004 0acc 1B01     		lsls	r3, r3, #4
 2005 0ace 1344     		add	r3, r3, r2
 2006 0ad0 5B00     		lsls	r3, r3, #1
 2007 0ad2 0B44     		add	r3, r3, r1
 2008 0ad4 0022     		movs	r2, #0
 2009 0ad6 DA70     		strb	r2, [r3, #3]
 2010              	.L114:
 562:build/OpenMote-CC2538_armgcc/openstack/02b-MAChigh/neighbors.c ****    }
 563:build/OpenMote-CC2538_armgcc/openstack/02b-MAChigh/neighbors.c **** }
 2011              		.loc 1 563 0
 2012 0ad8 1037     		adds	r7, r7, #16
 2013              		.cfi_def_cfa_offset 8
 2014 0ada BD46     		mov	sp, r7
 2015              		.cfi_def_cfa_register 13
 2016              		@ sp needed
 2017 0adc 80BD     		pop	{r7, pc}
 2018              	.L123:
 2019 0ade 00BF     		.align	2
 2020              	.L122:
 2021 0ae0 00000000 		.word	neighbors_vars
 2022              		.cfi_endproc
 2023              	.LFE14:
 2025              		.align	2
 2026              		.global	neighbors_removeOld
 2027              		.thumb
 2028              		.thumb_func
 2030              	neighbors_removeOld:
 2031              	.LFB15:
 564:build/OpenMote-CC2538_armgcc/openstack/02b-MAChigh/neighbors.c **** 
 565:build/OpenMote-CC2538_armgcc/openstack/02b-MAChigh/neighbors.c **** //===== maintenance
 566:build/OpenMote-CC2538_armgcc/openstack/02b-MAChigh/neighbors.c **** 
 567:build/OpenMote-CC2538_armgcc/openstack/02b-MAChigh/neighbors.c **** void  neighbors_removeOld() {
 2032              		.loc 1 567 0
 2033              		.cfi_startproc
 2034              		@ args = 0, pretend = 0, frame = 8
 2035              		@ frame_needed = 1, uses_anonymous_args = 0
 2036 0ae4 80B5     		push	{r7, lr}
 2037              		.cfi_def_cfa_offset 8
 2038              		.cfi_offset 7, -8
 2039              		.cfi_offset 14, -4
 2040 0ae6 82B0     		sub	sp, sp, #8
 2041              		.cfi_def_cfa_offset 16
 2042 0ae8 00AF     		add	r7, sp, #0
 2043              		.cfi_def_cfa_register 7
 568:build/OpenMote-CC2538_armgcc/openstack/02b-MAChigh/neighbors.c ****    uint8_t    i;
 569:build/OpenMote-CC2538_armgcc/openstack/02b-MAChigh/neighbors.c ****    uint16_t   timeSinceHeard;
 570:build/OpenMote-CC2538_armgcc/openstack/02b-MAChigh/neighbors.c ****    
 571:build/OpenMote-CC2538_armgcc/openstack/02b-MAChigh/neighbors.c ****    for (i=0;i<MAXNUMNEIGHBORS;i++) {
 2044              		.loc 1 571 0
 2045 0aea 0023     		movs	r3, #0
 2046 0aec FB71     		strb	r3, [r7, #7]
 2047 0aee 23E0     		b	.L125
 2048              	.L127:
 572:build/OpenMote-CC2538_armgcc/openstack/02b-MAChigh/neighbors.c ****       if (neighbors_vars.neighbors[i].used==1) {
 2049              		.loc 1 572 0
 2050 0af0 FA79     		ldrb	r2, [r7, #7]	@ zero_extendqisi2
 2051 0af2 1449     		ldr	r1, .L128
 2052 0af4 1346     		mov	r3, r2
 2053 0af6 1B01     		lsls	r3, r3, #4
 2054 0af8 1344     		add	r3, r3, r2
 2055 0afa 5B00     		lsls	r3, r3, #1
 2056 0afc 0B44     		add	r3, r3, r1
 2057 0afe 1B78     		ldrb	r3, [r3]	@ zero_extendqisi2
 2058 0b00 002B     		cmp	r3, #0
 2059 0b02 16D0     		beq	.L126
 573:build/OpenMote-CC2538_armgcc/openstack/02b-MAChigh/neighbors.c ****          timeSinceHeard = ieee154e_asnDiff(&neighbors_vars.neighbors[i].asn);
 2060              		.loc 1 573 0
 2061 0b04 FA79     		ldrb	r2, [r7, #7]	@ zero_extendqisi2
 2062 0b06 1346     		mov	r3, r2
 2063 0b08 1B01     		lsls	r3, r3, #4
 2064 0b0a 1344     		add	r3, r3, r2
 2065 0b0c 5B00     		lsls	r3, r3, #1
 2066 0b0e 1833     		adds	r3, r3, #24
 2067 0b10 0C4A     		ldr	r2, .L128
 2068 0b12 1344     		add	r3, r3, r2
 2069 0b14 0433     		adds	r3, r3, #4
 2070 0b16 1846     		mov	r0, r3
 2071 0b18 FFF7FEFF 		bl	ieee154e_asnDiff
 2072 0b1c 0346     		mov	r3, r0
 2073 0b1e BB80     		strh	r3, [r7, #4]	@ movhi
 574:build/OpenMote-CC2538_armgcc/openstack/02b-MAChigh/neighbors.c ****          if (timeSinceHeard>DESYNCTIMEOUT) {
 2074              		.loc 1 574 0
 2075 0b20 BB88     		ldrh	r3, [r7, #4]
 2076 0b22 40F61D12 		movw	r2, #2333
 2077 0b26 9342     		cmp	r3, r2
 2078 0b28 03D9     		bls	.L126
 575:build/OpenMote-CC2538_armgcc/openstack/02b-MAChigh/neighbors.c ****             removeNeighbor(i);
 2079              		.loc 1 575 0
 2080 0b2a FB79     		ldrb	r3, [r7, #7]	@ zero_extendqisi2
 2081 0b2c 1846     		mov	r0, r3
 2082 0b2e FFF7FEFF 		bl	removeNeighbor
 2083              	.L126:
 571:build/OpenMote-CC2538_armgcc/openstack/02b-MAChigh/neighbors.c ****       if (neighbors_vars.neighbors[i].used==1) {
 2084              		.loc 1 571 0 discriminator 2
 2085 0b32 FB79     		ldrb	r3, [r7, #7]	@ zero_extendqisi2
 2086 0b34 0133     		adds	r3, r3, #1
 2087 0b36 FB71     		strb	r3, [r7, #7]
 2088              	.L125:
 571:build/OpenMote-CC2538_armgcc/openstack/02b-MAChigh/neighbors.c ****       if (neighbors_vars.neighbors[i].used==1) {
 2089              		.loc 1 571 0 is_stmt 0 discriminator 1
 2090 0b38 FB79     		ldrb	r3, [r7, #7]	@ zero_extendqisi2
 2091 0b3a 092B     		cmp	r3, #9
 2092 0b3c D8D9     		bls	.L127
 576:build/OpenMote-CC2538_armgcc/openstack/02b-MAChigh/neighbors.c ****          }
 577:build/OpenMote-CC2538_armgcc/openstack/02b-MAChigh/neighbors.c ****       }
 578:build/OpenMote-CC2538_armgcc/openstack/02b-MAChigh/neighbors.c ****    } 
 579:build/OpenMote-CC2538_armgcc/openstack/02b-MAChigh/neighbors.c **** }
 2093              		.loc 1 579 0 is_stmt 1
 2094 0b3e 0837     		adds	r7, r7, #8
 2095              		.cfi_def_cfa_offset 8
 2096 0b40 BD46     		mov	sp, r7
 2097              		.cfi_def_cfa_register 13
 2098              		@ sp needed
 2099 0b42 80BD     		pop	{r7, pc}
 2100              	.L129:
 2101              		.align	2
 2102              	.L128:
 2103 0b44 00000000 		.word	neighbors_vars
 2104              		.cfi_endproc
 2105              	.LFE15:
 2107              		.align	2
 2108              		.global	debugPrint_neighbors
 2109              		.thumb
 2110              		.thumb_func
 2112              	debugPrint_neighbors:
 2113              	.LFB16:
 580:build/OpenMote-CC2538_armgcc/openstack/02b-MAChigh/neighbors.c **** 
 581:build/OpenMote-CC2538_armgcc/openstack/02b-MAChigh/neighbors.c **** //===== debug
 582:build/OpenMote-CC2538_armgcc/openstack/02b-MAChigh/neighbors.c **** 
 583:build/OpenMote-CC2538_armgcc/openstack/02b-MAChigh/neighbors.c **** /**
 584:build/OpenMote-CC2538_armgcc/openstack/02b-MAChigh/neighbors.c **** \brief Triggers this module to print status information, over serial.
 585:build/OpenMote-CC2538_armgcc/openstack/02b-MAChigh/neighbors.c **** 
 586:build/OpenMote-CC2538_armgcc/openstack/02b-MAChigh/neighbors.c **** debugPrint_* functions are used by the openserial module to continuously print
 587:build/OpenMote-CC2538_armgcc/openstack/02b-MAChigh/neighbors.c **** status information about several modules in the OpenWSN stack.
 588:build/OpenMote-CC2538_armgcc/openstack/02b-MAChigh/neighbors.c **** 
 589:build/OpenMote-CC2538_armgcc/openstack/02b-MAChigh/neighbors.c **** \returns TRUE if this function printed something, FALSE otherwise.
 590:build/OpenMote-CC2538_armgcc/openstack/02b-MAChigh/neighbors.c **** */
 591:build/OpenMote-CC2538_armgcc/openstack/02b-MAChigh/neighbors.c **** bool debugPrint_neighbors() {
 2114              		.loc 1 591 0
 2115              		.cfi_startproc
 2116              		@ args = 0, pretend = 0, frame = 40
 2117              		@ frame_needed = 1, uses_anonymous_args = 0
 2118 0b48 F0B5     		push	{r4, r5, r6, r7, lr}
 2119              		.cfi_def_cfa_offset 20
 2120              		.cfi_offset 4, -20
 2121              		.cfi_offset 5, -16
 2122              		.cfi_offset 6, -12
 2123              		.cfi_offset 7, -8
 2124              		.cfi_offset 14, -4
 2125 0b4a 8BB0     		sub	sp, sp, #44
 2126              		.cfi_def_cfa_offset 64
 2127 0b4c 00AF     		add	r7, sp, #0
 2128              		.cfi_def_cfa_register 7
 592:build/OpenMote-CC2538_armgcc/openstack/02b-MAChigh/neighbors.c ****    debugNeighborEntry_t temp;
 593:build/OpenMote-CC2538_armgcc/openstack/02b-MAChigh/neighbors.c ****    neighbors_vars.debugRow=(neighbors_vars.debugRow+1)%MAXNUMNEIGHBORS;
 2129              		.loc 1 593 0
 2130 0b4e 214B     		ldr	r3, .L133
 2131 0b50 93F85631 		ldrb	r3, [r3, #342]	@ zero_extendqisi2
 2132 0b54 5A1C     		adds	r2, r3, #1
 2133 0b56 204B     		ldr	r3, .L133+4
 2134 0b58 83FB0213 		smull	r1, r3, r3, r2
 2135 0b5c 9910     		asrs	r1, r3, #2
 2136 0b5e D317     		asrs	r3, r2, #31
 2137 0b60 C91A     		subs	r1, r1, r3
 2138 0b62 0B46     		mov	r3, r1
 2139 0b64 9B00     		lsls	r3, r3, #2
 2140 0b66 0B44     		add	r3, r3, r1
 2141 0b68 5B00     		lsls	r3, r3, #1
 2142 0b6a D11A     		subs	r1, r2, r3
 2143 0b6c CAB2     		uxtb	r2, r1
 2144 0b6e 194B     		ldr	r3, .L133
 2145 0b70 83F85621 		strb	r2, [r3, #342]
 594:build/OpenMote-CC2538_armgcc/openstack/02b-MAChigh/neighbors.c ****    temp.row=neighbors_vars.debugRow;
 2146              		.loc 1 594 0
 2147 0b74 174B     		ldr	r3, .L133
 2148 0b76 93F85631 		ldrb	r3, [r3, #342]	@ zero_extendqisi2
 2149 0b7a 3B71     		strb	r3, [r7, #4]
 595:build/OpenMote-CC2538_armgcc/openstack/02b-MAChigh/neighbors.c ****    temp.neighborEntry=neighbors_vars.neighbors[neighbors_vars.debugRow];
 2150              		.loc 1 595 0
 2151 0b7c 154B     		ldr	r3, .L133
 2152 0b7e 93F85631 		ldrb	r3, [r3, #342]	@ zero_extendqisi2
 2153 0b82 1946     		mov	r1, r3
 2154 0b84 134A     		ldr	r2, .L133
 2155 0b86 0B46     		mov	r3, r1
 2156 0b88 1B01     		lsls	r3, r3, #4
 2157 0b8a 0B44     		add	r3, r3, r1
 2158 0b8c 5B00     		lsls	r3, r3, #1
 2159 0b8e 1344     		add	r3, r3, r2
 2160 0b90 781D     		adds	r0, r7, #5
 2161 0b92 03F12004 		add	r4, r3, #32
 2162              	.L131:
 2163 0b96 0246     		mov	r2, r0
 2164 0b98 1946     		mov	r1, r3
 2165 0b9a D1F800E0 		ldr	lr, [r1]	@ unaligned
 2166 0b9e 4E68     		ldr	r6, [r1, #4]	@ unaligned
 2167 0ba0 8D68     		ldr	r5, [r1, #8]	@ unaligned
 2168 0ba2 C968     		ldr	r1, [r1, #12]	@ unaligned
 2169 0ba4 C2F800E0 		str	lr, [r2]	@ unaligned
 2170 0ba8 5660     		str	r6, [r2, #4]	@ unaligned
 2171 0baa 9560     		str	r5, [r2, #8]	@ unaligned
 2172 0bac D160     		str	r1, [r2, #12]	@ unaligned
 2173 0bae 1033     		adds	r3, r3, #16
 2174 0bb0 1030     		adds	r0, r0, #16
 2175 0bb2 A342     		cmp	r3, r4
 2176 0bb4 EFD1     		bne	.L131
 2177 0bb6 0246     		mov	r2, r0
 2178 0bb8 1B88     		ldrh	r3, [r3]	@ unaligned
 2179 0bba 1380     		strh	r3, [r2]	@ unaligned
 596:build/OpenMote-CC2538_armgcc/openstack/02b-MAChigh/neighbors.c ****    openserial_printStatus(STATUS_NEIGHBORS,(uint8_t*)&temp,sizeof(debugNeighborEntry_t));
 2180              		.loc 1 596 0
 2181 0bbc 3B1D     		adds	r3, r7, #4
 2182 0bbe 0920     		movs	r0, #9
 2183 0bc0 1946     		mov	r1, r3
 2184 0bc2 2322     		movs	r2, #35
 2185 0bc4 FFF7FEFF 		bl	openserial_printStatus
 597:build/OpenMote-CC2538_armgcc/openstack/02b-MAChigh/neighbors.c ****    return TRUE;
 2186              		.loc 1 597 0
 2187 0bc8 0123     		movs	r3, #1
 598:build/OpenMote-CC2538_armgcc/openstack/02b-MAChigh/neighbors.c **** }
 2188              		.loc 1 598 0
 2189 0bca 1846     		mov	r0, r3
 2190 0bcc 2C37     		adds	r7, r7, #44
 2191              		.cfi_def_cfa_offset 20
 2192 0bce BD46     		mov	sp, r7
 2193              		.cfi_def_cfa_register 13
 2194              		@ sp needed
 2195 0bd0 F0BD     		pop	{r4, r5, r6, r7, pc}
 2196              	.L134:
 2197 0bd2 00BF     		.align	2
 2198              	.L133:
 2199 0bd4 00000000 		.word	neighbors_vars
 2200 0bd8 67666666 		.word	1717986919
 2201              		.cfi_endproc
 2202              	.LFE16:
 2204              		.align	2
 2205              		.global	registerNewNeighbor
 2206              		.thumb
 2207              		.thumb_func
 2209              	registerNewNeighbor:
 2210              	.LFB17:
 599:build/OpenMote-CC2538_armgcc/openstack/02b-MAChigh/neighbors.c **** 
 600:build/OpenMote-CC2538_armgcc/openstack/02b-MAChigh/neighbors.c **** //=========================== private =========================================
 601:build/OpenMote-CC2538_armgcc/openstack/02b-MAChigh/neighbors.c **** 
 602:build/OpenMote-CC2538_armgcc/openstack/02b-MAChigh/neighbors.c **** void registerNewNeighbor(open_addr_t* address,
 603:build/OpenMote-CC2538_armgcc/openstack/02b-MAChigh/neighbors.c ****                          int8_t       rssi,
 604:build/OpenMote-CC2538_armgcc/openstack/02b-MAChigh/neighbors.c ****                          asn_t*       asnTimestamp,
 605:build/OpenMote-CC2538_armgcc/openstack/02b-MAChigh/neighbors.c ****                          bool         joinPrioPresent,
 606:build/OpenMote-CC2538_armgcc/openstack/02b-MAChigh/neighbors.c ****                          uint8_t      joinPrio) {
 2211              		.loc 1 606 0
 2212              		.cfi_startproc
 2213              		@ args = 4, pretend = 0, frame = 24
 2214              		@ frame_needed = 1, uses_anonymous_args = 0
 2215 0bdc B0B5     		push	{r4, r5, r7, lr}
 2216              		.cfi_def_cfa_offset 16
 2217              		.cfi_offset 4, -16
 2218              		.cfi_offset 5, -12
 2219              		.cfi_offset 7, -8
 2220              		.cfi_offset 14, -4
 2221 0bde 86B0     		sub	sp, sp, #24
 2222              		.cfi_def_cfa_offset 40
 2223 0be0 00AF     		add	r7, sp, #0
 2224              		.cfi_def_cfa_register 7
 2225 0be2 F860     		str	r0, [r7, #12]
 2226 0be4 7A60     		str	r2, [r7, #4]
 2227 0be6 1A46     		mov	r2, r3
 2228 0be8 0B46     		mov	r3, r1
 2229 0bea FB72     		strb	r3, [r7, #11]
 2230 0bec 1346     		mov	r3, r2
 2231 0bee BB72     		strb	r3, [r7, #10]
 607:build/OpenMote-CC2538_armgcc/openstack/02b-MAChigh/neighbors.c ****    uint8_t  i,j;
 608:build/OpenMote-CC2538_armgcc/openstack/02b-MAChigh/neighbors.c ****    bool     iHaveAPreferedParent;
 609:build/OpenMote-CC2538_armgcc/openstack/02b-MAChigh/neighbors.c ****    // filter errors
 610:build/OpenMote-CC2538_armgcc/openstack/02b-MAChigh/neighbors.c ****    if (address->type!=ADDR_64B) {
 2232              		.loc 1 610 0
 2233 0bf0 FB68     		ldr	r3, [r7, #12]
 2234 0bf2 1B78     		ldrb	r3, [r3]	@ zero_extendqisi2
 2235 0bf4 022B     		cmp	r3, #2
 2236 0bf6 09D0     		beq	.L136
 611:build/OpenMote-CC2538_armgcc/openstack/02b-MAChigh/neighbors.c ****       openserial_printCritical(COMPONENT_NEIGHBORS,ERR_WRONG_ADDR_TYPE,
 612:build/OpenMote-CC2538_armgcc/openstack/02b-MAChigh/neighbors.c ****                             (errorparameter_t)address->type,
 2237              		.loc 1 612 0
 2238 0bf8 FB68     		ldr	r3, [r7, #12]
 2239 0bfa 1B78     		ldrb	r3, [r3]	@ zero_extendqisi2
 611:build/OpenMote-CC2538_armgcc/openstack/02b-MAChigh/neighbors.c ****       openserial_printCritical(COMPONENT_NEIGHBORS,ERR_WRONG_ADDR_TYPE,
 2240              		.loc 1 611 0
 2241 0bfc 9BB2     		uxth	r3, r3
 2242 0bfe 0D20     		movs	r0, #13
 2243 0c00 3121     		movs	r1, #49
 2244 0c02 1A46     		mov	r2, r3
 2245 0c04 0223     		movs	r3, #2
 2246 0c06 FFF7FEFF 		bl	openserial_printCritical
 613:build/OpenMote-CC2538_armgcc/openstack/02b-MAChigh/neighbors.c ****                             (errorparameter_t)2);
 614:build/OpenMote-CC2538_armgcc/openstack/02b-MAChigh/neighbors.c ****       return;
 2247              		.loc 1 614 0
 2248 0c0a E4E0     		b	.L135
 2249              	.L136:
 615:build/OpenMote-CC2538_armgcc/openstack/02b-MAChigh/neighbors.c ****    }
 616:build/OpenMote-CC2538_armgcc/openstack/02b-MAChigh/neighbors.c ****    // add this neighbor
 617:build/OpenMote-CC2538_armgcc/openstack/02b-MAChigh/neighbors.c ****    if (isNeighbor(address)==FALSE) {
 2250              		.loc 1 617 0
 2251 0c0c F868     		ldr	r0, [r7, #12]
 2252 0c0e FFF7FEFF 		bl	isNeighbor
 2253 0c12 0346     		mov	r3, r0
 2254 0c14 83F00103 		eor	r3, r3, #1
 2255 0c18 DBB2     		uxtb	r3, r3
 2256 0c1a 002B     		cmp	r3, #0
 2257 0c1c 00F0DB80 		beq	.L135
 618:build/OpenMote-CC2538_armgcc/openstack/02b-MAChigh/neighbors.c ****       i=0;
 2258              		.loc 1 618 0
 2259 0c20 0023     		movs	r3, #0
 2260 0c22 FB75     		strb	r3, [r7, #23]
 619:build/OpenMote-CC2538_armgcc/openstack/02b-MAChigh/neighbors.c ****       while(i<MAXNUMNEIGHBORS) {
 2261              		.loc 1 619 0
 2262 0c24 C9E0     		b	.L138
 2263              	.L146:
 620:build/OpenMote-CC2538_armgcc/openstack/02b-MAChigh/neighbors.c ****          if (neighbors_vars.neighbors[i].used==FALSE) {
 2264              		.loc 1 620 0
 2265 0c26 FA7D     		ldrb	r2, [r7, #23]	@ zero_extendqisi2
 2266 0c28 6C49     		ldr	r1, .L147
 2267 0c2a 1346     		mov	r3, r2
 2268 0c2c 1B01     		lsls	r3, r3, #4
 2269 0c2e 1344     		add	r3, r3, r2
 2270 0c30 5B00     		lsls	r3, r3, #1
 2271 0c32 0B44     		add	r3, r3, r1
 2272 0c34 1B78     		ldrb	r3, [r3]	@ zero_extendqisi2
 2273 0c36 83F00103 		eor	r3, r3, #1
 2274 0c3a DBB2     		uxtb	r3, r3
 2275 0c3c 002B     		cmp	r3, #0
 2276 0c3e 00F0B980 		beq	.L139
 621:build/OpenMote-CC2538_armgcc/openstack/02b-MAChigh/neighbors.c ****             // add this neighbor
 622:build/OpenMote-CC2538_armgcc/openstack/02b-MAChigh/neighbors.c ****             neighbors_vars.neighbors[i].used                   = TRUE;
 2277              		.loc 1 622 0
 2278 0c42 FA7D     		ldrb	r2, [r7, #23]	@ zero_extendqisi2
 2279 0c44 6549     		ldr	r1, .L147
 2280 0c46 1346     		mov	r3, r2
 2281 0c48 1B01     		lsls	r3, r3, #4
 2282 0c4a 1344     		add	r3, r3, r2
 2283 0c4c 5B00     		lsls	r3, r3, #1
 2284 0c4e 0B44     		add	r3, r3, r1
 2285 0c50 0122     		movs	r2, #1
 2286 0c52 1A70     		strb	r2, [r3]
 623:build/OpenMote-CC2538_armgcc/openstack/02b-MAChigh/neighbors.c ****             neighbors_vars.neighbors[i].parentPreference       = 0;
 2287              		.loc 1 623 0
 2288 0c54 FA7D     		ldrb	r2, [r7, #23]	@ zero_extendqisi2
 2289 0c56 6149     		ldr	r1, .L147
 2290 0c58 1346     		mov	r3, r2
 2291 0c5a 1B01     		lsls	r3, r3, #4
 2292 0c5c 1344     		add	r3, r3, r2
 2293 0c5e 5B00     		lsls	r3, r3, #1
 2294 0c60 0B44     		add	r3, r3, r1
 2295 0c62 0022     		movs	r2, #0
 2296 0c64 5A70     		strb	r2, [r3, #1]
 624:build/OpenMote-CC2538_armgcc/openstack/02b-MAChigh/neighbors.c ****             // neighbors_vars.neighbors[i].stableNeighbor         = FALSE;
 625:build/OpenMote-CC2538_armgcc/openstack/02b-MAChigh/neighbors.c ****             // Note: all new neighbors are consider stable
 626:build/OpenMote-CC2538_armgcc/openstack/02b-MAChigh/neighbors.c ****             neighbors_vars.neighbors[i].stableNeighbor         = TRUE;
 2297              		.loc 1 626 0
 2298 0c66 FA7D     		ldrb	r2, [r7, #23]	@ zero_extendqisi2
 2299 0c68 5C49     		ldr	r1, .L147
 2300 0c6a 1346     		mov	r3, r2
 2301 0c6c 1B01     		lsls	r3, r3, #4
 2302 0c6e 1344     		add	r3, r3, r2
 2303 0c70 5B00     		lsls	r3, r3, #1
 2304 0c72 0B44     		add	r3, r3, r1
 2305 0c74 0122     		movs	r2, #1
 2306 0c76 9A70     		strb	r2, [r3, #2]
 627:build/OpenMote-CC2538_armgcc/openstack/02b-MAChigh/neighbors.c ****             neighbors_vars.neighbors[i].switchStabilityCounter = 0;
 2307              		.loc 1 627 0
 2308 0c78 FA7D     		ldrb	r2, [r7, #23]	@ zero_extendqisi2
 2309 0c7a 5849     		ldr	r1, .L147
 2310 0c7c 1346     		mov	r3, r2
 2311 0c7e 1B01     		lsls	r3, r3, #4
 2312 0c80 1344     		add	r3, r3, r2
 2313 0c82 5B00     		lsls	r3, r3, #1
 2314 0c84 0B44     		add	r3, r3, r1
 2315 0c86 0022     		movs	r2, #0
 2316 0c88 DA70     		strb	r2, [r3, #3]
 628:build/OpenMote-CC2538_armgcc/openstack/02b-MAChigh/neighbors.c ****             memcpy(&neighbors_vars.neighbors[i].addr_64b,address,sizeof(open_addr_t));
 2317              		.loc 1 628 0
 2318 0c8a FA7D     		ldrb	r2, [r7, #23]	@ zero_extendqisi2
 2319 0c8c 1346     		mov	r3, r2
 2320 0c8e 1B01     		lsls	r3, r3, #4
 2321 0c90 1344     		add	r3, r3, r2
 2322 0c92 5B00     		lsls	r3, r3, #1
 2323 0c94 514A     		ldr	r2, .L147
 2324 0c96 1344     		add	r3, r3, r2
 2325 0c98 0433     		adds	r3, r3, #4
 2326 0c9a FA68     		ldr	r2, [r7, #12]
 2327 0c9c 1568     		ldr	r5, [r2]	@ unaligned
 2328 0c9e 5468     		ldr	r4, [r2, #4]	@ unaligned
 2329 0ca0 9068     		ldr	r0, [r2, #8]	@ unaligned
 2330 0ca2 D168     		ldr	r1, [r2, #12]	@ unaligned
 2331 0ca4 1D60     		str	r5, [r3]	@ unaligned
 2332 0ca6 5C60     		str	r4, [r3, #4]	@ unaligned
 2333 0ca8 9860     		str	r0, [r3, #8]	@ unaligned
 2334 0caa D960     		str	r1, [r3, #12]	@ unaligned
 2335 0cac 127C     		ldrb	r2, [r2, #16]
 2336 0cae 1A74     		strb	r2, [r3, #16]
 629:build/OpenMote-CC2538_armgcc/openstack/02b-MAChigh/neighbors.c ****             neighbors_vars.neighbors[i].DAGrank                = DEFAULTDAGRANK;
 2337              		.loc 1 629 0
 2338 0cb0 FA7D     		ldrb	r2, [r7, #23]	@ zero_extendqisi2
 2339 0cb2 4A49     		ldr	r1, .L147
 2340 0cb4 1346     		mov	r3, r2
 2341 0cb6 1B01     		lsls	r3, r3, #4
 2342 0cb8 1344     		add	r3, r3, r2
 2343 0cba 5B00     		lsls	r3, r3, #1
 2344 0cbc 0B44     		add	r3, r3, r1
 2345 0cbe 1033     		adds	r3, r3, #16
 2346 0cc0 4FF0FF32 		mov	r2, #-1
 2347 0cc4 5A71     		strb	r2, [r3, #5]
 2348 0cc6 4FF0FF32 		mov	r2, #-1
 2349 0cca 9A71     		strb	r2, [r3, #6]
 630:build/OpenMote-CC2538_armgcc/openstack/02b-MAChigh/neighbors.c ****             neighbors_vars.neighbors[i].rssi                   = rssi;
 2350              		.loc 1 630 0
 2351 0ccc FA7D     		ldrb	r2, [r7, #23]	@ zero_extendqisi2
 2352 0cce 4349     		ldr	r1, .L147
 2353 0cd0 1346     		mov	r3, r2
 2354 0cd2 1B01     		lsls	r3, r3, #4
 2355 0cd4 1344     		add	r3, r3, r2
 2356 0cd6 5B00     		lsls	r3, r3, #1
 2357 0cd8 0B44     		add	r3, r3, r1
 2358 0cda 1033     		adds	r3, r3, #16
 2359 0cdc FA7A     		ldrb	r2, [r7, #11]
 2360 0cde DA71     		strb	r2, [r3, #7]
 631:build/OpenMote-CC2538_armgcc/openstack/02b-MAChigh/neighbors.c ****             neighbors_vars.neighbors[i].numRx                  = 1;
 2361              		.loc 1 631 0
 2362 0ce0 FA7D     		ldrb	r2, [r7, #23]	@ zero_extendqisi2
 2363 0ce2 3E49     		ldr	r1, .L147
 2364 0ce4 1346     		mov	r3, r2
 2365 0ce6 1B01     		lsls	r3, r3, #4
 2366 0ce8 1344     		add	r3, r3, r2
 2367 0cea 5B00     		lsls	r3, r3, #1
 2368 0cec 0B44     		add	r3, r3, r1
 2369 0cee 1833     		adds	r3, r3, #24
 2370 0cf0 0122     		movs	r2, #1
 2371 0cf2 1A70     		strb	r2, [r3]
 632:build/OpenMote-CC2538_armgcc/openstack/02b-MAChigh/neighbors.c ****             neighbors_vars.neighbors[i].numTx                  = 0;
 2372              		.loc 1 632 0
 2373 0cf4 FA7D     		ldrb	r2, [r7, #23]	@ zero_extendqisi2
 2374 0cf6 3949     		ldr	r1, .L147
 2375 0cf8 1346     		mov	r3, r2
 2376 0cfa 1B01     		lsls	r3, r3, #4
 2377 0cfc 1344     		add	r3, r3, r2
 2378 0cfe 5B00     		lsls	r3, r3, #1
 2379 0d00 0B44     		add	r3, r3, r1
 2380 0d02 1833     		adds	r3, r3, #24
 2381 0d04 0022     		movs	r2, #0
 2382 0d06 5A70     		strb	r2, [r3, #1]
 633:build/OpenMote-CC2538_armgcc/openstack/02b-MAChigh/neighbors.c ****             neighbors_vars.neighbors[i].numTxACK               = 0;
 2383              		.loc 1 633 0
 2384 0d08 FA7D     		ldrb	r2, [r7, #23]	@ zero_extendqisi2
 2385 0d0a 3449     		ldr	r1, .L147
 2386 0d0c 1346     		mov	r3, r2
 2387 0d0e 1B01     		lsls	r3, r3, #4
 2388 0d10 1344     		add	r3, r3, r2
 2389 0d12 5B00     		lsls	r3, r3, #1
 2390 0d14 0B44     		add	r3, r3, r1
 2391 0d16 1833     		adds	r3, r3, #24
 2392 0d18 0022     		movs	r2, #0
 2393 0d1a 9A70     		strb	r2, [r3, #2]
 634:build/OpenMote-CC2538_armgcc/openstack/02b-MAChigh/neighbors.c ****             memcpy(&neighbors_vars.neighbors[i].asn,asnTimestamp,sizeof(asn_t));
 2394              		.loc 1 634 0
 2395 0d1c FA7D     		ldrb	r2, [r7, #23]	@ zero_extendqisi2
 2396 0d1e 1346     		mov	r3, r2
 2397 0d20 1B01     		lsls	r3, r3, #4
 2398 0d22 1344     		add	r3, r3, r2
 2399 0d24 5B00     		lsls	r3, r3, #1
 2400 0d26 1833     		adds	r3, r3, #24
 2401 0d28 2C4A     		ldr	r2, .L147
 2402 0d2a 1344     		add	r3, r3, r2
 2403 0d2c 0433     		adds	r3, r3, #4
 2404 0d2e 7A68     		ldr	r2, [r7, #4]
 2405 0d30 1168     		ldr	r1, [r2]	@ unaligned
 2406 0d32 1960     		str	r1, [r3]	@ unaligned
 2407 0d34 1279     		ldrb	r2, [r2, #4]
 2408 0d36 1A71     		strb	r2, [r3, #4]
 635:build/OpenMote-CC2538_armgcc/openstack/02b-MAChigh/neighbors.c ****             //update jp
 636:build/OpenMote-CC2538_armgcc/openstack/02b-MAChigh/neighbors.c ****             if (joinPrioPresent==TRUE){
 2409              		.loc 1 636 0
 2410 0d38 BB7A     		ldrb	r3, [r7, #10]	@ zero_extendqisi2
 2411 0d3a 002B     		cmp	r3, #0
 2412 0d3c 0AD0     		beq	.L140
 637:build/OpenMote-CC2538_armgcc/openstack/02b-MAChigh/neighbors.c ****                neighbors_vars.neighbors[i].joinPrio=joinPrio;
 2413              		.loc 1 637 0
 2414 0d3e FA7D     		ldrb	r2, [r7, #23]	@ zero_extendqisi2
 2415 0d40 2649     		ldr	r1, .L147
 2416 0d42 1346     		mov	r3, r2
 2417 0d44 1B01     		lsls	r3, r3, #4
 2418 0d46 1344     		add	r3, r3, r2
 2419 0d48 5B00     		lsls	r3, r3, #1
 2420 0d4a 0B44     		add	r3, r3, r1
 2421 0d4c 2033     		adds	r3, r3, #32
 2422 0d4e 97F82820 		ldrb	r2, [r7, #40]
 2423 0d52 5A70     		strb	r2, [r3, #1]
 2424              	.L140:
 638:build/OpenMote-CC2538_armgcc/openstack/02b-MAChigh/neighbors.c ****             }
 639:build/OpenMote-CC2538_armgcc/openstack/02b-MAChigh/neighbors.c ****             
 640:build/OpenMote-CC2538_armgcc/openstack/02b-MAChigh/neighbors.c ****             // do I already have a preferred parent ? -- TODO change to use JP
 641:build/OpenMote-CC2538_armgcc/openstack/02b-MAChigh/neighbors.c ****             iHaveAPreferedParent = FALSE;
 2425              		.loc 1 641 0
 2426 0d54 0023     		movs	r3, #0
 2427 0d56 7B75     		strb	r3, [r7, #21]
 642:build/OpenMote-CC2538_armgcc/openstack/02b-MAChigh/neighbors.c ****             for (j=0;j<MAXNUMNEIGHBORS;j++) {
 2428              		.loc 1 642 0
 2429 0d58 0023     		movs	r3, #0
 2430 0d5a BB75     		strb	r3, [r7, #22]
 2431 0d5c 0EE0     		b	.L141
 2432              	.L143:
 643:build/OpenMote-CC2538_armgcc/openstack/02b-MAChigh/neighbors.c ****                if (neighbors_vars.neighbors[j].parentPreference==MAXPREFERENCE) {
 2433              		.loc 1 643 0
 2434 0d5e BA7D     		ldrb	r2, [r7, #22]	@ zero_extendqisi2
 2435 0d60 1E49     		ldr	r1, .L147
 2436 0d62 1346     		mov	r3, r2
 2437 0d64 1B01     		lsls	r3, r3, #4
 2438 0d66 1344     		add	r3, r3, r2
 2439 0d68 5B00     		lsls	r3, r3, #1
 2440 0d6a 0B44     		add	r3, r3, r1
 2441 0d6c 5B78     		ldrb	r3, [r3, #1]	@ zero_extendqisi2
 2442 0d6e 022B     		cmp	r3, #2
 2443 0d70 01D1     		bne	.L142
 644:build/OpenMote-CC2538_armgcc/openstack/02b-MAChigh/neighbors.c ****                   iHaveAPreferedParent = TRUE;
 2444              		.loc 1 644 0
 2445 0d72 0123     		movs	r3, #1
 2446 0d74 7B75     		strb	r3, [r7, #21]
 2447              	.L142:
 642:build/OpenMote-CC2538_armgcc/openstack/02b-MAChigh/neighbors.c ****             for (j=0;j<MAXNUMNEIGHBORS;j++) {
 2448              		.loc 1 642 0 discriminator 2
 2449 0d76 BB7D     		ldrb	r3, [r7, #22]	@ zero_extendqisi2
 2450 0d78 0133     		adds	r3, r3, #1
 2451 0d7a BB75     		strb	r3, [r7, #22]
 2452              	.L141:
 642:build/OpenMote-CC2538_armgcc/openstack/02b-MAChigh/neighbors.c ****             for (j=0;j<MAXNUMNEIGHBORS;j++) {
 2453              		.loc 1 642 0 is_stmt 0 discriminator 1
 2454 0d7c BB7D     		ldrb	r3, [r7, #22]	@ zero_extendqisi2
 2455 0d7e 092B     		cmp	r3, #9
 2456 0d80 EDD9     		bls	.L143
 645:build/OpenMote-CC2538_armgcc/openstack/02b-MAChigh/neighbors.c ****                }
 646:build/OpenMote-CC2538_armgcc/openstack/02b-MAChigh/neighbors.c ****             }
 647:build/OpenMote-CC2538_armgcc/openstack/02b-MAChigh/neighbors.c ****             // if I have none, and I'm not DAGroot, the new neighbor is my preferred
 648:build/OpenMote-CC2538_armgcc/openstack/02b-MAChigh/neighbors.c ****             if (iHaveAPreferedParent==FALSE && idmanager_getIsDAGroot()==FALSE) {      
 2457              		.loc 1 648 0 is_stmt 1
 2458 0d82 7B7D     		ldrb	r3, [r7, #21]
 2459 0d84 83F00103 		eor	r3, r3, #1
 2460 0d88 DBB2     		uxtb	r3, r3
 2461 0d8a 002B     		cmp	r3, #0
 2462 0d8c 11D0     		beq	.L144
 2463              		.loc 1 648 0 is_stmt 0 discriminator 1
 2464 0d8e FFF7FEFF 		bl	idmanager_getIsDAGroot
 2465 0d92 0346     		mov	r3, r0
 2466 0d94 83F00103 		eor	r3, r3, #1
 2467 0d98 DBB2     		uxtb	r3, r3
 2468 0d9a 002B     		cmp	r3, #0
 2469 0d9c 09D0     		beq	.L144
 649:build/OpenMote-CC2538_armgcc/openstack/02b-MAChigh/neighbors.c ****                neighbors_vars.neighbors[i].parentPreference     = MAXPREFERENCE;
 2470              		.loc 1 649 0 is_stmt 1
 2471 0d9e FA7D     		ldrb	r2, [r7, #23]	@ zero_extendqisi2
 2472 0da0 0E49     		ldr	r1, .L147
 2473 0da2 1346     		mov	r3, r2
 2474 0da4 1B01     		lsls	r3, r3, #4
 2475 0da6 1344     		add	r3, r3, r2
 2476 0da8 5B00     		lsls	r3, r3, #1
 2477 0daa 0B44     		add	r3, r3, r1
 2478 0dac 0222     		movs	r2, #2
 2479 0dae 5A70     		strb	r2, [r3, #1]
 650:build/OpenMote-CC2538_armgcc/openstack/02b-MAChigh/neighbors.c ****             }
 651:build/OpenMote-CC2538_armgcc/openstack/02b-MAChigh/neighbors.c ****             break;
 2480              		.loc 1 651 0
 2481 0db0 07E0     		b	.L145
 2482              	.L144:
 2483 0db2 06E0     		b	.L145
 2484              	.L139:
 652:build/OpenMote-CC2538_armgcc/openstack/02b-MAChigh/neighbors.c ****          }
 653:build/OpenMote-CC2538_armgcc/openstack/02b-MAChigh/neighbors.c ****          i++;
 2485              		.loc 1 653 0
 2486 0db4 FB7D     		ldrb	r3, [r7, #23]	@ zero_extendqisi2
 2487 0db6 0133     		adds	r3, r3, #1
 2488 0db8 FB75     		strb	r3, [r7, #23]
 2489              	.L138:
 619:build/OpenMote-CC2538_armgcc/openstack/02b-MAChigh/neighbors.c ****          if (neighbors_vars.neighbors[i].used==FALSE) {
 2490              		.loc 1 619 0
 2491 0dba FB7D     		ldrb	r3, [r7, #23]	@ zero_extendqisi2
 2492 0dbc 092B     		cmp	r3, #9
 2493 0dbe 7FF632AF 		bls	.L146
 2494              	.L145:
 654:build/OpenMote-CC2538_armgcc/openstack/02b-MAChigh/neighbors.c ****       }
 655:build/OpenMote-CC2538_armgcc/openstack/02b-MAChigh/neighbors.c ****       if (i==MAXNUMNEIGHBORS) {
 2495              		.loc 1 655 0
 2496 0dc2 FB7D     		ldrb	r3, [r7, #23]	@ zero_extendqisi2
 2497 0dc4 0A2B     		cmp	r3, #10
 2498 0dc6 06D1     		bne	.L135
 656:build/OpenMote-CC2538_armgcc/openstack/02b-MAChigh/neighbors.c ****          openserial_printError(COMPONENT_NEIGHBORS,ERR_NEIGHBORS_FULL,
 2499              		.loc 1 656 0
 2500 0dc8 0D20     		movs	r0, #13
 2501 0dca 1421     		movs	r1, #20
 2502 0dcc 0A22     		movs	r2, #10
 2503 0dce 0023     		movs	r3, #0
 2504 0dd0 FFF7FEFF 		bl	openserial_printError
 657:build/OpenMote-CC2538_armgcc/openstack/02b-MAChigh/neighbors.c ****                                (errorparameter_t)MAXNUMNEIGHBORS,
 658:build/OpenMote-CC2538_armgcc/openstack/02b-MAChigh/neighbors.c ****                                (errorparameter_t)0);
 659:build/OpenMote-CC2538_armgcc/openstack/02b-MAChigh/neighbors.c ****          return;
 2505              		.loc 1 659 0
 2506 0dd4 00BF     		nop
 2507              	.L135:
 660:build/OpenMote-CC2538_armgcc/openstack/02b-MAChigh/neighbors.c ****       }
 661:build/OpenMote-CC2538_armgcc/openstack/02b-MAChigh/neighbors.c ****    }
 662:build/OpenMote-CC2538_armgcc/openstack/02b-MAChigh/neighbors.c **** }
 2508              		.loc 1 662 0
 2509 0dd6 1837     		adds	r7, r7, #24
 2510              		.cfi_def_cfa_offset 16
 2511 0dd8 BD46     		mov	sp, r7
 2512              		.cfi_def_cfa_register 13
 2513              		@ sp needed
 2514 0dda B0BD     		pop	{r4, r5, r7, pc}
 2515              	.L148:
 2516              		.align	2
 2517              	.L147:
 2518 0ddc 00000000 		.word	neighbors_vars
 2519              		.cfi_endproc
 2520              	.LFE17:
 2522              		.align	2
 2523              		.global	isNeighbor
 2524              		.thumb
 2525              		.thumb_func
 2527              	isNeighbor:
 2528              	.LFB18:
 663:build/OpenMote-CC2538_armgcc/openstack/02b-MAChigh/neighbors.c **** 
 664:build/OpenMote-CC2538_armgcc/openstack/02b-MAChigh/neighbors.c **** bool isNeighbor(open_addr_t* neighbor) {
 2529              		.loc 1 664 0
 2530              		.cfi_startproc
 2531              		@ args = 0, pretend = 0, frame = 16
 2532              		@ frame_needed = 1, uses_anonymous_args = 0
 2533 0de0 80B5     		push	{r7, lr}
 2534              		.cfi_def_cfa_offset 8
 2535              		.cfi_offset 7, -8
 2536              		.cfi_offset 14, -4
 2537 0de2 84B0     		sub	sp, sp, #16
 2538              		.cfi_def_cfa_offset 24
 2539 0de4 00AF     		add	r7, sp, #0
 2540              		.cfi_def_cfa_register 7
 2541 0de6 7860     		str	r0, [r7, #4]
 665:build/OpenMote-CC2538_armgcc/openstack/02b-MAChigh/neighbors.c ****    uint8_t i=0;
 2542              		.loc 1 665 0
 2543 0de8 0023     		movs	r3, #0
 2544 0dea FB73     		strb	r3, [r7, #15]
 666:build/OpenMote-CC2538_armgcc/openstack/02b-MAChigh/neighbors.c ****    for (i=0;i<MAXNUMNEIGHBORS;i++) {
 2545              		.loc 1 666 0
 2546 0dec 0023     		movs	r3, #0
 2547 0dee FB73     		strb	r3, [r7, #15]
 2548 0df0 0CE0     		b	.L150
 2549              	.L153:
 667:build/OpenMote-CC2538_armgcc/openstack/02b-MAChigh/neighbors.c ****       if (isThisRowMatching(neighbor,i)) {
 2550              		.loc 1 667 0
 2551 0df2 FB7B     		ldrb	r3, [r7, #15]	@ zero_extendqisi2
 2552 0df4 7868     		ldr	r0, [r7, #4]
 2553 0df6 1946     		mov	r1, r3
 2554 0df8 FFF7FEFF 		bl	isThisRowMatching
 2555 0dfc 0346     		mov	r3, r0
 2556 0dfe 002B     		cmp	r3, #0
 2557 0e00 01D0     		beq	.L151
 668:build/OpenMote-CC2538_armgcc/openstack/02b-MAChigh/neighbors.c ****          return TRUE;
 2558              		.loc 1 668 0
 2559 0e02 0123     		movs	r3, #1
 2560 0e04 06E0     		b	.L152
 2561              	.L151:
 666:build/OpenMote-CC2538_armgcc/openstack/02b-MAChigh/neighbors.c ****    for (i=0;i<MAXNUMNEIGHBORS;i++) {
 2562              		.loc 1 666 0 discriminator 2
 2563 0e06 FB7B     		ldrb	r3, [r7, #15]	@ zero_extendqisi2
 2564 0e08 0133     		adds	r3, r3, #1
 2565 0e0a FB73     		strb	r3, [r7, #15]
 2566              	.L150:
 666:build/OpenMote-CC2538_armgcc/openstack/02b-MAChigh/neighbors.c ****    for (i=0;i<MAXNUMNEIGHBORS;i++) {
 2567              		.loc 1 666 0 is_stmt 0 discriminator 1
 2568 0e0c FB7B     		ldrb	r3, [r7, #15]	@ zero_extendqisi2
 2569 0e0e 092B     		cmp	r3, #9
 2570 0e10 EFD9     		bls	.L153
 669:build/OpenMote-CC2538_armgcc/openstack/02b-MAChigh/neighbors.c ****       }
 670:build/OpenMote-CC2538_armgcc/openstack/02b-MAChigh/neighbors.c ****    }
 671:build/OpenMote-CC2538_armgcc/openstack/02b-MAChigh/neighbors.c ****    return FALSE;
 2571              		.loc 1 671 0 is_stmt 1
 2572 0e12 0023     		movs	r3, #0
 2573              	.L152:
 672:build/OpenMote-CC2538_armgcc/openstack/02b-MAChigh/neighbors.c **** }
 2574              		.loc 1 672 0
 2575 0e14 1846     		mov	r0, r3
 2576 0e16 1037     		adds	r7, r7, #16
 2577              		.cfi_def_cfa_offset 8
 2578 0e18 BD46     		mov	sp, r7
 2579              		.cfi_def_cfa_register 13
 2580              		@ sp needed
 2581 0e1a 80BD     		pop	{r7, pc}
 2582              		.cfi_endproc
 2583              	.LFE18:
 2585              		.align	2
 2586              		.global	removeNeighbor
 2587              		.thumb
 2588              		.thumb_func
 2590              	removeNeighbor:
 2591              	.LFB19:
 673:build/OpenMote-CC2538_armgcc/openstack/02b-MAChigh/neighbors.c **** 
 674:build/OpenMote-CC2538_armgcc/openstack/02b-MAChigh/neighbors.c **** void removeNeighbor(uint8_t neighborIndex) {
 2592              		.loc 1 674 0
 2593              		.cfi_startproc
 2594              		@ args = 0, pretend = 0, frame = 8
 2595              		@ frame_needed = 1, uses_anonymous_args = 0
 2596              		@ link register save eliminated.
 2597 0e1c 80B4     		push	{r7}
 2598              		.cfi_def_cfa_offset 4
 2599              		.cfi_offset 7, -4
 2600 0e1e 83B0     		sub	sp, sp, #12
 2601              		.cfi_def_cfa_offset 16
 2602 0e20 00AF     		add	r7, sp, #0
 2603              		.cfi_def_cfa_register 7
 2604 0e22 0346     		mov	r3, r0
 2605 0e24 FB71     		strb	r3, [r7, #7]
 675:build/OpenMote-CC2538_armgcc/openstack/02b-MAChigh/neighbors.c ****    neighbors_vars.neighbors[neighborIndex].used                      = FALSE;
 2606              		.loc 1 675 0
 2607 0e26 FA79     		ldrb	r2, [r7, #7]	@ zero_extendqisi2
 2608 0e28 4449     		ldr	r1, .L155
 2609 0e2a 1346     		mov	r3, r2
 2610 0e2c 1B01     		lsls	r3, r3, #4
 2611 0e2e 1344     		add	r3, r3, r2
 2612 0e30 5B00     		lsls	r3, r3, #1
 2613 0e32 0B44     		add	r3, r3, r1
 2614 0e34 0022     		movs	r2, #0
 2615 0e36 1A70     		strb	r2, [r3]
 676:build/OpenMote-CC2538_armgcc/openstack/02b-MAChigh/neighbors.c ****    neighbors_vars.neighbors[neighborIndex].parentPreference          = 0;
 2616              		.loc 1 676 0
 2617 0e38 FA79     		ldrb	r2, [r7, #7]	@ zero_extendqisi2
 2618 0e3a 4049     		ldr	r1, .L155
 2619 0e3c 1346     		mov	r3, r2
 2620 0e3e 1B01     		lsls	r3, r3, #4
 2621 0e40 1344     		add	r3, r3, r2
 2622 0e42 5B00     		lsls	r3, r3, #1
 2623 0e44 0B44     		add	r3, r3, r1
 2624 0e46 0022     		movs	r2, #0
 2625 0e48 5A70     		strb	r2, [r3, #1]
 677:build/OpenMote-CC2538_armgcc/openstack/02b-MAChigh/neighbors.c ****    neighbors_vars.neighbors[neighborIndex].stableNeighbor            = FALSE;
 2626              		.loc 1 677 0
 2627 0e4a FA79     		ldrb	r2, [r7, #7]	@ zero_extendqisi2
 2628 0e4c 3B49     		ldr	r1, .L155
 2629 0e4e 1346     		mov	r3, r2
 2630 0e50 1B01     		lsls	r3, r3, #4
 2631 0e52 1344     		add	r3, r3, r2
 2632 0e54 5B00     		lsls	r3, r3, #1
 2633 0e56 0B44     		add	r3, r3, r1
 2634 0e58 0022     		movs	r2, #0
 2635 0e5a 9A70     		strb	r2, [r3, #2]
 678:build/OpenMote-CC2538_armgcc/openstack/02b-MAChigh/neighbors.c ****    neighbors_vars.neighbors[neighborIndex].switchStabilityCounter    = 0;
 2636              		.loc 1 678 0
 2637 0e5c FA79     		ldrb	r2, [r7, #7]	@ zero_extendqisi2
 2638 0e5e 3749     		ldr	r1, .L155
 2639 0e60 1346     		mov	r3, r2
 2640 0e62 1B01     		lsls	r3, r3, #4
 2641 0e64 1344     		add	r3, r3, r2
 2642 0e66 5B00     		lsls	r3, r3, #1
 2643 0e68 0B44     		add	r3, r3, r1
 2644 0e6a 0022     		movs	r2, #0
 2645 0e6c DA70     		strb	r2, [r3, #3]
 679:build/OpenMote-CC2538_armgcc/openstack/02b-MAChigh/neighbors.c ****    //neighbors_vars.neighbors[neighborIndex].addr_16b.type           = ADDR_NONE; // to save RAM
 680:build/OpenMote-CC2538_armgcc/openstack/02b-MAChigh/neighbors.c ****    neighbors_vars.neighbors[neighborIndex].addr_64b.type             = ADDR_NONE;
 2646              		.loc 1 680 0
 2647 0e6e FA79     		ldrb	r2, [r7, #7]	@ zero_extendqisi2
 2648 0e70 3249     		ldr	r1, .L155
 2649 0e72 1346     		mov	r3, r2
 2650 0e74 1B01     		lsls	r3, r3, #4
 2651 0e76 1344     		add	r3, r3, r2
 2652 0e78 5B00     		lsls	r3, r3, #1
 2653 0e7a 0B44     		add	r3, r3, r1
 2654 0e7c 0022     		movs	r2, #0
 2655 0e7e 1A71     		strb	r2, [r3, #4]
 681:build/OpenMote-CC2538_armgcc/openstack/02b-MAChigh/neighbors.c ****    //neighbors_vars.neighbors[neighborIndex].addr_128b.type          = ADDR_NONE; // to save RAM
 682:build/OpenMote-CC2538_armgcc/openstack/02b-MAChigh/neighbors.c ****    neighbors_vars.neighbors[neighborIndex].DAGrank                   = DEFAULTDAGRANK;
 2656              		.loc 1 682 0
 2657 0e80 FA79     		ldrb	r2, [r7, #7]	@ zero_extendqisi2
 2658 0e82 2E49     		ldr	r1, .L155
 2659 0e84 1346     		mov	r3, r2
 2660 0e86 1B01     		lsls	r3, r3, #4
 2661 0e88 1344     		add	r3, r3, r2
 2662 0e8a 5B00     		lsls	r3, r3, #1
 2663 0e8c 0B44     		add	r3, r3, r1
 2664 0e8e 1033     		adds	r3, r3, #16
 2665 0e90 4FF0FF32 		mov	r2, #-1
 2666 0e94 5A71     		strb	r2, [r3, #5]
 2667 0e96 4FF0FF32 		mov	r2, #-1
 2668 0e9a 9A71     		strb	r2, [r3, #6]
 683:build/OpenMote-CC2538_armgcc/openstack/02b-MAChigh/neighbors.c ****    neighbors_vars.neighbors[neighborIndex].rssi                      = 0;
 2669              		.loc 1 683 0
 2670 0e9c FA79     		ldrb	r2, [r7, #7]	@ zero_extendqisi2
 2671 0e9e 2749     		ldr	r1, .L155
 2672 0ea0 1346     		mov	r3, r2
 2673 0ea2 1B01     		lsls	r3, r3, #4
 2674 0ea4 1344     		add	r3, r3, r2
 2675 0ea6 5B00     		lsls	r3, r3, #1
 2676 0ea8 0B44     		add	r3, r3, r1
 2677 0eaa 1033     		adds	r3, r3, #16
 2678 0eac 0022     		movs	r2, #0
 2679 0eae DA71     		strb	r2, [r3, #7]
 684:build/OpenMote-CC2538_armgcc/openstack/02b-MAChigh/neighbors.c ****    neighbors_vars.neighbors[neighborIndex].numRx                     = 0;
 2680              		.loc 1 684 0
 2681 0eb0 FA79     		ldrb	r2, [r7, #7]	@ zero_extendqisi2
 2682 0eb2 2249     		ldr	r1, .L155
 2683 0eb4 1346     		mov	r3, r2
 2684 0eb6 1B01     		lsls	r3, r3, #4
 2685 0eb8 1344     		add	r3, r3, r2
 2686 0eba 5B00     		lsls	r3, r3, #1
 2687 0ebc 0B44     		add	r3, r3, r1
 2688 0ebe 1833     		adds	r3, r3, #24
 2689 0ec0 0022     		movs	r2, #0
 2690 0ec2 1A70     		strb	r2, [r3]
 685:build/OpenMote-CC2538_armgcc/openstack/02b-MAChigh/neighbors.c ****    neighbors_vars.neighbors[neighborIndex].numTx                     = 0;
 2691              		.loc 1 685 0
 2692 0ec4 FA79     		ldrb	r2, [r7, #7]	@ zero_extendqisi2
 2693 0ec6 1D49     		ldr	r1, .L155
 2694 0ec8 1346     		mov	r3, r2
 2695 0eca 1B01     		lsls	r3, r3, #4
 2696 0ecc 1344     		add	r3, r3, r2
 2697 0ece 5B00     		lsls	r3, r3, #1
 2698 0ed0 0B44     		add	r3, r3, r1
 2699 0ed2 1833     		adds	r3, r3, #24
 2700 0ed4 0022     		movs	r2, #0
 2701 0ed6 5A70     		strb	r2, [r3, #1]
 686:build/OpenMote-CC2538_armgcc/openstack/02b-MAChigh/neighbors.c ****    neighbors_vars.neighbors[neighborIndex].numTxACK                  = 0;
 2702              		.loc 1 686 0
 2703 0ed8 FA79     		ldrb	r2, [r7, #7]	@ zero_extendqisi2
 2704 0eda 1849     		ldr	r1, .L155
 2705 0edc 1346     		mov	r3, r2
 2706 0ede 1B01     		lsls	r3, r3, #4
 2707 0ee0 1344     		add	r3, r3, r2
 2708 0ee2 5B00     		lsls	r3, r3, #1
 2709 0ee4 0B44     		add	r3, r3, r1
 2710 0ee6 1833     		adds	r3, r3, #24
 2711 0ee8 0022     		movs	r2, #0
 2712 0eea 9A70     		strb	r2, [r3, #2]
 687:build/OpenMote-CC2538_armgcc/openstack/02b-MAChigh/neighbors.c ****    neighbors_vars.neighbors[neighborIndex].asn.bytes0and1            = 0;
 2713              		.loc 1 687 0
 2714 0eec FA79     		ldrb	r2, [r7, #7]	@ zero_extendqisi2
 2715 0eee 1349     		ldr	r1, .L155
 2716 0ef0 1346     		mov	r3, r2
 2717 0ef2 1B01     		lsls	r3, r3, #4
 2718 0ef4 1344     		add	r3, r3, r2
 2719 0ef6 5B00     		lsls	r3, r3, #1
 2720 0ef8 0B44     		add	r3, r3, r1
 2721 0efa 1833     		adds	r3, r3, #24
 2722 0efc 0022     		movs	r2, #0
 2723 0efe DA71     		strb	r2, [r3, #7]
 2724 0f00 0022     		movs	r2, #0
 2725 0f02 1A72     		strb	r2, [r3, #8]
 688:build/OpenMote-CC2538_armgcc/openstack/02b-MAChigh/neighbors.c ****    neighbors_vars.neighbors[neighborIndex].asn.bytes2and3            = 0;
 2726              		.loc 1 688 0
 2727 0f04 FA79     		ldrb	r2, [r7, #7]	@ zero_extendqisi2
 2728 0f06 0D49     		ldr	r1, .L155
 2729 0f08 1346     		mov	r3, r2
 2730 0f0a 1B01     		lsls	r3, r3, #4
 2731 0f0c 1344     		add	r3, r3, r2
 2732 0f0e 5B00     		lsls	r3, r3, #1
 2733 0f10 0B44     		add	r3, r3, r1
 2734 0f12 1833     		adds	r3, r3, #24
 2735 0f14 0022     		movs	r2, #0
 2736 0f16 5A71     		strb	r2, [r3, #5]
 2737 0f18 0022     		movs	r2, #0
 2738 0f1a 9A71     		strb	r2, [r3, #6]
 689:build/OpenMote-CC2538_armgcc/openstack/02b-MAChigh/neighbors.c ****    neighbors_vars.neighbors[neighborIndex].asn.byte4                 = 0;
 2739              		.loc 1 689 0
 2740 0f1c FA79     		ldrb	r2, [r7, #7]	@ zero_extendqisi2
 2741 0f1e 0749     		ldr	r1, .L155
 2742 0f20 1346     		mov	r3, r2
 2743 0f22 1B01     		lsls	r3, r3, #4
 2744 0f24 1344     		add	r3, r3, r2
 2745 0f26 5B00     		lsls	r3, r3, #1
 2746 0f28 0B44     		add	r3, r3, r1
 2747 0f2a 1833     		adds	r3, r3, #24
 2748 0f2c 0022     		movs	r2, #0
 2749 0f2e 1A71     		strb	r2, [r3, #4]
 690:build/OpenMote-CC2538_armgcc/openstack/02b-MAChigh/neighbors.c **** }
 2750              		.loc 1 690 0
 2751 0f30 0C37     		adds	r7, r7, #12
 2752              		.cfi_def_cfa_offset 4
 2753 0f32 BD46     		mov	sp, r7
 2754              		.cfi_def_cfa_register 13
 2755              		@ sp needed
 2756 0f34 5DF8047B 		ldr	r7, [sp], #4
 2757              		.cfi_restore 7
 2758              		.cfi_def_cfa_offset 0
 2759 0f38 7047     		bx	lr
 2760              	.L156:
 2761 0f3a 00BF     		.align	2
 2762              	.L155:
 2763 0f3c 00000000 		.word	neighbors_vars
 2764              		.cfi_endproc
 2765              	.LFE19:
 2767              		.align	2
 2768              		.global	isThisRowMatching
 2769              		.thumb
 2770              		.thumb_func
 2772              	isThisRowMatching:
 2773              	.LFB20:
 691:build/OpenMote-CC2538_armgcc/openstack/02b-MAChigh/neighbors.c **** 
 692:build/OpenMote-CC2538_armgcc/openstack/02b-MAChigh/neighbors.c **** //=========================== helpers =========================================
 693:build/OpenMote-CC2538_armgcc/openstack/02b-MAChigh/neighbors.c **** 
 694:build/OpenMote-CC2538_armgcc/openstack/02b-MAChigh/neighbors.c **** bool isThisRowMatching(open_addr_t* address, uint8_t rowNumber) {
 2774              		.loc 1 694 0
 2775              		.cfi_startproc
 2776              		@ args = 0, pretend = 0, frame = 8
 2777              		@ frame_needed = 1, uses_anonymous_args = 0
 2778 0f40 80B5     		push	{r7, lr}
 2779              		.cfi_def_cfa_offset 8
 2780              		.cfi_offset 7, -8
 2781              		.cfi_offset 14, -4
 2782 0f42 82B0     		sub	sp, sp, #8
 2783              		.cfi_def_cfa_offset 16
 2784 0f44 00AF     		add	r7, sp, #0
 2785              		.cfi_def_cfa_register 7
 2786 0f46 7860     		str	r0, [r7, #4]
 2787 0f48 0B46     		mov	r3, r1
 2788 0f4a FB70     		strb	r3, [r7, #3]
 695:build/OpenMote-CC2538_armgcc/openstack/02b-MAChigh/neighbors.c ****    switch (address->type) {
 2789              		.loc 1 695 0
 2790 0f4c 7B68     		ldr	r3, [r7, #4]
 2791 0f4e 1B78     		ldrb	r3, [r3]	@ zero_extendqisi2
 2792 0f50 022B     		cmp	r3, #2
 2793 0f52 1FD1     		bne	.L163
 696:build/OpenMote-CC2538_armgcc/openstack/02b-MAChigh/neighbors.c ****       case ADDR_64B:
 697:build/OpenMote-CC2538_armgcc/openstack/02b-MAChigh/neighbors.c ****          return neighbors_vars.neighbors[rowNumber].used &&
 2794              		.loc 1 697 0
 2795 0f54 FA78     		ldrb	r2, [r7, #3]	@ zero_extendqisi2
 2796 0f56 1649     		ldr	r1, .L164
 2797 0f58 1346     		mov	r3, r2
 2798 0f5a 1B01     		lsls	r3, r3, #4
 2799 0f5c 1344     		add	r3, r3, r2
 2800 0f5e 5B00     		lsls	r3, r3, #1
 2801 0f60 0B44     		add	r3, r3, r1
 2802 0f62 1B78     		ldrb	r3, [r3]	@ zero_extendqisi2
 2803 0f64 002B     		cmp	r3, #0
 2804 0f66 10D0     		beq	.L160
 698:build/OpenMote-CC2538_armgcc/openstack/02b-MAChigh/neighbors.c ****                 packetfunctions_sameAddress(address,&neighbors_vars.neighbors[rowNumber].addr_64b);
 2805              		.loc 1 698 0 discriminator 1
 2806 0f68 FA78     		ldrb	r2, [r7, #3]	@ zero_extendqisi2
 2807 0f6a 1346     		mov	r3, r2
 2808 0f6c 1B01     		lsls	r3, r3, #4
 2809 0f6e 1344     		add	r3, r3, r2
 2810 0f70 5B00     		lsls	r3, r3, #1
 2811 0f72 0F4A     		ldr	r2, .L164
 2812 0f74 1344     		add	r3, r3, r2
 2813 0f76 0433     		adds	r3, r3, #4
 2814 0f78 7868     		ldr	r0, [r7, #4]
 2815 0f7a 1946     		mov	r1, r3
 2816 0f7c FFF7FEFF 		bl	packetfunctions_sameAddress
 2817 0f80 0346     		mov	r3, r0
 697:build/OpenMote-CC2538_armgcc/openstack/02b-MAChigh/neighbors.c ****                 packetfunctions_sameAddress(address,&neighbors_vars.neighbors[rowNumber].addr_64b);
 2818              		.loc 1 697 0 discriminator 1
 2819 0f82 002B     		cmp	r3, #0
 2820 0f84 01D0     		beq	.L160
 697:build/OpenMote-CC2538_armgcc/openstack/02b-MAChigh/neighbors.c ****                 packetfunctions_sameAddress(address,&neighbors_vars.neighbors[rowNumber].addr_64b);
 2821              		.loc 1 697 0 is_stmt 0 discriminator 3
 2822 0f86 0123     		movs	r3, #1
 2823 0f88 00E0     		b	.L161
 2824              	.L160:
 697:build/OpenMote-CC2538_armgcc/openstack/02b-MAChigh/neighbors.c ****                 packetfunctions_sameAddress(address,&neighbors_vars.neighbors[rowNumber].addr_64b);
 2825              		.loc 1 697 0 discriminator 4
 2826 0f8a 0023     		movs	r3, #0
 2827              	.L161:
 697:build/OpenMote-CC2538_armgcc/openstack/02b-MAChigh/neighbors.c ****                 packetfunctions_sameAddress(address,&neighbors_vars.neighbors[rowNumber].addr_64b);
 2828              		.loc 1 697 0 discriminator 6
 2829 0f8c 03F00103 		and	r3, r3, #1
 2830 0f90 DBB2     		uxtb	r3, r3
 2831 0f92 09E0     		b	.L162
 2832              	.L163:
 699:build/OpenMote-CC2538_armgcc/openstack/02b-MAChigh/neighbors.c ****       default:
 700:build/OpenMote-CC2538_armgcc/openstack/02b-MAChigh/neighbors.c ****          openserial_printCritical(COMPONENT_NEIGHBORS,ERR_WRONG_ADDR_TYPE,
 701:build/OpenMote-CC2538_armgcc/openstack/02b-MAChigh/neighbors.c ****                                (errorparameter_t)address->type,
 2833              		.loc 1 701 0 is_stmt 1
 2834 0f94 7B68     		ldr	r3, [r7, #4]
 2835 0f96 1B78     		ldrb	r3, [r3]	@ zero_extendqisi2
 700:build/OpenMote-CC2538_armgcc/openstack/02b-MAChigh/neighbors.c ****                                (errorparameter_t)address->type,
 2836              		.loc 1 700 0
 2837 0f98 9BB2     		uxth	r3, r3
 2838 0f9a 0D20     		movs	r0, #13
 2839 0f9c 3121     		movs	r1, #49
 2840 0f9e 1A46     		mov	r2, r3
 2841 0fa0 0323     		movs	r3, #3
 2842 0fa2 FFF7FEFF 		bl	openserial_printCritical
 702:build/OpenMote-CC2538_armgcc/openstack/02b-MAChigh/neighbors.c ****                                (errorparameter_t)3);
 703:build/OpenMote-CC2538_armgcc/openstack/02b-MAChigh/neighbors.c ****          return FALSE;
 2843              		.loc 1 703 0
 2844 0fa6 0023     		movs	r3, #0
 2845              	.L162:
 704:build/OpenMote-CC2538_armgcc/openstack/02b-MAChigh/neighbors.c ****    }
 705:build/OpenMote-CC2538_armgcc/openstack/02b-MAChigh/neighbors.c **** }
 2846              		.loc 1 705 0
 2847 0fa8 1846     		mov	r0, r3
 2848 0faa 0837     		adds	r7, r7, #8
 2849              		.cfi_def_cfa_offset 8
 2850 0fac BD46     		mov	sp, r7
 2851              		.cfi_def_cfa_register 13
 2852              		@ sp needed
 2853 0fae 80BD     		pop	{r7, pc}
 2854              	.L165:
 2855              		.align	2
 2856              	.L164:
 2857 0fb0 00000000 		.word	neighbors_vars
 2858              		.cfi_endproc
 2859              	.LFE20:
 2861              	.Letext0:
 2862              		.file 2 "/usr/arm-none-eabi/include/machine/_default_types.h"
 2863              		.file 3 "/usr/arm-none-eabi/include/sys/_stdint.h"
 2864              		.file 4 "inc/opendefs.h"
 2865              		.file 5 "openstack/03b-IPv6/icmpv6rpl.h"
 2866              		.file 6 "build/OpenMote-CC2538_armgcc/openstack/02b-MAChigh/neighbors.h"
 2867              		.file 7 "bsp/boards/OpenMote-CC2538/board_info.h"
 2868              		.file 8 "openstack/02a-MAClow/IEEE802154E.h"