   1              		.syntax unified
   2              		.cpu cortex-m3
   3              		.fpu softvfp
   4              		.eabi_attribute 20, 1
   5              		.eabi_attribute 21, 1
   6              		.eabi_attribute 23, 3
   7              		.eabi_attribute 24, 1
   8              		.eabi_attribute 25, 1
   9              		.eabi_attribute 26, 1
  10              		.eabi_attribute 30, 6
  11              		.eabi_attribute 34, 1
  12              		.eabi_attribute 18, 4
  13              		.thumb
  14              		.file	"sixtop.c"
  15              		.text
  16              	.Ltext0:
  17              		.cfi_sections	.debug_frame
  18              		.section	.rodata
  19              		.align	2
  22              	rreg_uriquery:
  23 0000 683D7563 		.ascii	"h=ucb\000"
  23      6200
  24 0006 0000     		.align	2
  27              	infoBoardname:
  28 0008 43433235 		.ascii	"CC2538\000"
  28      333800
  29 000f 00       		.align	2
  32              	infouCName:
  33 0010 43433235 		.ascii	"CC2538\000"
  33      333800
  34 0017 00       		.align	2
  37              	infoRadioName:
  38 0018 43433235 		.ascii	"CC2538 SoC\000"
  38      33382053 
  38      6F4300
  39 0023 00       		.align	2
  42              	infoStackName:
  43 0024 4F70656E 		.ascii	"OpenWSN \000"
  43      57534E20 
  43      00
  44 002d 000000   		.align	2
  47              	all_routers_multicast:
  48 0030 FF       		.byte	-1
  49 0031 02       		.byte	2
  50 0032 00       		.byte	0
  51 0033 00       		.byte	0
  52 0034 00       		.byte	0
  53 0035 00       		.byte	0
  54 0036 00       		.byte	0
  55 0037 00       		.byte	0
  56 0038 00       		.byte	0
  57 0039 00       		.byte	0
  58 003a 00       		.byte	0
  59 003b 00       		.byte	0
  60 003c 00       		.byte	0
  61 003d 00       		.byte	0
  62 003e 00       		.byte	0
  63 003f 1A       		.byte	26
  64              		.align	2
  67              	chTemplate_default:
  68 0040 05       		.byte	5
  69 0041 06       		.byte	6
  70 0042 0C       		.byte	12
  71 0043 07       		.byte	7
  72 0044 0F       		.byte	15
  73 0045 04       		.byte	4
  74 0046 0E       		.byte	14
  75 0047 0B       		.byte	11
  76 0048 08       		.byte	8
  77 0049 00       		.byte	0
  78 004a 01       		.byte	1
  79 004b 02       		.byte	2
  80 004c 0D       		.byte	13
  81 004d 03       		.byte	3
  82 004e 09       		.byte	9
  83 004f 0A       		.byte	10
  84              		.comm	sixtop_vars,16,4
  85              		.text
  86              		.align	2
  87              		.global	sixtop_init
  88              		.thumb
  89              		.thumb_func
  91              	sixtop_init:
  92              	.LFB0:
  93              		.file 1 "build/OpenMote-CC2538_armgcc/openstack/02b-MAChigh/sixtop.c"
   1:build/OpenMote-CC2538_armgcc/openstack/02b-MAChigh/sixtop.c **** #include "opendefs.h"
   2:build/OpenMote-CC2538_armgcc/openstack/02b-MAChigh/sixtop.c **** #include "sixtop.h"
   3:build/OpenMote-CC2538_armgcc/openstack/02b-MAChigh/sixtop.c **** #include "openserial.h"
   4:build/OpenMote-CC2538_armgcc/openstack/02b-MAChigh/sixtop.c **** #include "openqueue.h"
   5:build/OpenMote-CC2538_armgcc/openstack/02b-MAChigh/sixtop.c **** #include "neighbors.h"
   6:build/OpenMote-CC2538_armgcc/openstack/02b-MAChigh/sixtop.c **** #include "IEEE802154E.h"
   7:build/OpenMote-CC2538_armgcc/openstack/02b-MAChigh/sixtop.c **** #include "iphc.h"
   8:build/OpenMote-CC2538_armgcc/openstack/02b-MAChigh/sixtop.c **** #include "otf.h"
   9:build/OpenMote-CC2538_armgcc/openstack/02b-MAChigh/sixtop.c **** #include "packetfunctions.h"
  10:build/OpenMote-CC2538_armgcc/openstack/02b-MAChigh/sixtop.c **** #include "openrandom.h"
  11:build/OpenMote-CC2538_armgcc/openstack/02b-MAChigh/sixtop.c **** #include "scheduler.h"
  12:build/OpenMote-CC2538_armgcc/openstack/02b-MAChigh/sixtop.c **** #include "opentimers.h"
  13:build/OpenMote-CC2538_armgcc/openstack/02b-MAChigh/sixtop.c **** #include "debugpins.h"
  14:build/OpenMote-CC2538_armgcc/openstack/02b-MAChigh/sixtop.c **** #include "leds.h"
  15:build/OpenMote-CC2538_armgcc/openstack/02b-MAChigh/sixtop.c **** #include "processIE.h"
  16:build/OpenMote-CC2538_armgcc/openstack/02b-MAChigh/sixtop.c **** #include "IEEE802154.h"
  17:build/OpenMote-CC2538_armgcc/openstack/02b-MAChigh/sixtop.c **** #include "IEEE802154_security.h"
  18:build/OpenMote-CC2538_armgcc/openstack/02b-MAChigh/sixtop.c **** #include "idmanager.h"
  19:build/OpenMote-CC2538_armgcc/openstack/02b-MAChigh/sixtop.c **** #include "schedule.h"
  20:build/OpenMote-CC2538_armgcc/openstack/02b-MAChigh/sixtop.c **** 
  21:build/OpenMote-CC2538_armgcc/openstack/02b-MAChigh/sixtop.c **** //=========================== variables =======================================
  22:build/OpenMote-CC2538_armgcc/openstack/02b-MAChigh/sixtop.c **** 
  23:build/OpenMote-CC2538_armgcc/openstack/02b-MAChigh/sixtop.c **** sixtop_vars_t sixtop_vars;
  24:build/OpenMote-CC2538_armgcc/openstack/02b-MAChigh/sixtop.c **** 
  25:build/OpenMote-CC2538_armgcc/openstack/02b-MAChigh/sixtop.c **** //=========================== prototypes ======================================
  26:build/OpenMote-CC2538_armgcc/openstack/02b-MAChigh/sixtop.c **** 
  27:build/OpenMote-CC2538_armgcc/openstack/02b-MAChigh/sixtop.c **** // send internal
  28:build/OpenMote-CC2538_armgcc/openstack/02b-MAChigh/sixtop.c **** owerror_t     sixtop_send_internal(
  29:build/OpenMote-CC2538_armgcc/openstack/02b-MAChigh/sixtop.c ****    OpenQueueEntry_t*    msg,
  30:build/OpenMote-CC2538_armgcc/openstack/02b-MAChigh/sixtop.c ****    bool                 payloadIEPresent
  31:build/OpenMote-CC2538_armgcc/openstack/02b-MAChigh/sixtop.c **** );
  32:build/OpenMote-CC2538_armgcc/openstack/02b-MAChigh/sixtop.c **** 
  33:build/OpenMote-CC2538_armgcc/openstack/02b-MAChigh/sixtop.c **** // timer interrupt callbacks
  34:build/OpenMote-CC2538_armgcc/openstack/02b-MAChigh/sixtop.c **** void          sixtop_maintenance_timer_cb(opentimer_id_t id);
  35:build/OpenMote-CC2538_armgcc/openstack/02b-MAChigh/sixtop.c **** void          sixtop_timeout_timer_cb(opentimer_id_t id);
  36:build/OpenMote-CC2538_armgcc/openstack/02b-MAChigh/sixtop.c **** 
  37:build/OpenMote-CC2538_armgcc/openstack/02b-MAChigh/sixtop.c **** //=== EB/KA task
  38:build/OpenMote-CC2538_armgcc/openstack/02b-MAChigh/sixtop.c **** 
  39:build/OpenMote-CC2538_armgcc/openstack/02b-MAChigh/sixtop.c **** void          timer_sixtop_management_fired(void);
  40:build/OpenMote-CC2538_armgcc/openstack/02b-MAChigh/sixtop.c **** void          sixtop_sendEB(void);
  41:build/OpenMote-CC2538_armgcc/openstack/02b-MAChigh/sixtop.c **** void          sixtop_sendKA(void);
  42:build/OpenMote-CC2538_armgcc/openstack/02b-MAChigh/sixtop.c **** 
  43:build/OpenMote-CC2538_armgcc/openstack/02b-MAChigh/sixtop.c **** //=== six2six task
  44:build/OpenMote-CC2538_armgcc/openstack/02b-MAChigh/sixtop.c **** 
  45:build/OpenMote-CC2538_armgcc/openstack/02b-MAChigh/sixtop.c **** void          timer_sixtop_six2six_timeout_fired(void);
  46:build/OpenMote-CC2538_armgcc/openstack/02b-MAChigh/sixtop.c **** void          sixtop_six2six_sendDone(
  47:build/OpenMote-CC2538_armgcc/openstack/02b-MAChigh/sixtop.c ****    OpenQueueEntry_t*    msg,
  48:build/OpenMote-CC2538_armgcc/openstack/02b-MAChigh/sixtop.c ****    owerror_t            error
  49:build/OpenMote-CC2538_armgcc/openstack/02b-MAChigh/sixtop.c **** );
  50:build/OpenMote-CC2538_armgcc/openstack/02b-MAChigh/sixtop.c **** bool          sixtop_processIEs(
  51:build/OpenMote-CC2538_armgcc/openstack/02b-MAChigh/sixtop.c ****    OpenQueueEntry_t*    pkt,
  52:build/OpenMote-CC2538_armgcc/openstack/02b-MAChigh/sixtop.c ****    uint16_t*            lenIE
  53:build/OpenMote-CC2538_armgcc/openstack/02b-MAChigh/sixtop.c **** );
  54:build/OpenMote-CC2538_armgcc/openstack/02b-MAChigh/sixtop.c **** void sixtop_notifyReceiveCommand(
  55:build/OpenMote-CC2538_armgcc/openstack/02b-MAChigh/sixtop.c ****    uint8_t              version, 
  56:build/OpenMote-CC2538_armgcc/openstack/02b-MAChigh/sixtop.c ****    uint8_t              commandId, 
  57:build/OpenMote-CC2538_armgcc/openstack/02b-MAChigh/sixtop.c ****    uint8_t              sfId,
  58:build/OpenMote-CC2538_armgcc/openstack/02b-MAChigh/sixtop.c ****    uint8_t              ptr,
  59:build/OpenMote-CC2538_armgcc/openstack/02b-MAChigh/sixtop.c ****    uint8_t              length,
  60:build/OpenMote-CC2538_armgcc/openstack/02b-MAChigh/sixtop.c ****    OpenQueueEntry_t*    pkt
  61:build/OpenMote-CC2538_armgcc/openstack/02b-MAChigh/sixtop.c **** );
  62:build/OpenMote-CC2538_armgcc/openstack/02b-MAChigh/sixtop.c **** 
  63:build/OpenMote-CC2538_armgcc/openstack/02b-MAChigh/sixtop.c **** uint8_t sixtop_getCelllist(
  64:build/OpenMote-CC2538_armgcc/openstack/02b-MAChigh/sixtop.c ****    uint8_t             frameID,
  65:build/OpenMote-CC2538_armgcc/openstack/02b-MAChigh/sixtop.c ****    open_addr_t*         neighbor,
  66:build/OpenMote-CC2538_armgcc/openstack/02b-MAChigh/sixtop.c ****    cellInfo_ht*         cellList
  67:build/OpenMote-CC2538_armgcc/openstack/02b-MAChigh/sixtop.c **** );
  68:build/OpenMote-CC2538_armgcc/openstack/02b-MAChigh/sixtop.c **** 
  69:build/OpenMote-CC2538_armgcc/openstack/02b-MAChigh/sixtop.c **** //=== helper functions
  70:build/OpenMote-CC2538_armgcc/openstack/02b-MAChigh/sixtop.c **** 
  71:build/OpenMote-CC2538_armgcc/openstack/02b-MAChigh/sixtop.c **** bool          sixtop_candidateAddCellList(
  72:build/OpenMote-CC2538_armgcc/openstack/02b-MAChigh/sixtop.c ****    uint8_t*             frameID,
  73:build/OpenMote-CC2538_armgcc/openstack/02b-MAChigh/sixtop.c ****    cellInfo_ht*         cellList,
  74:build/OpenMote-CC2538_armgcc/openstack/02b-MAChigh/sixtop.c ****    uint8_t              requiredCells
  75:build/OpenMote-CC2538_armgcc/openstack/02b-MAChigh/sixtop.c **** );
  76:build/OpenMote-CC2538_armgcc/openstack/02b-MAChigh/sixtop.c **** bool          sixtop_candidateRemoveCellList(
  77:build/OpenMote-CC2538_armgcc/openstack/02b-MAChigh/sixtop.c ****    uint8_t*             frameID,
  78:build/OpenMote-CC2538_armgcc/openstack/02b-MAChigh/sixtop.c ****    cellInfo_ht*         cellList,
  79:build/OpenMote-CC2538_armgcc/openstack/02b-MAChigh/sixtop.c ****    open_addr_t*         neighbor,
  80:build/OpenMote-CC2538_armgcc/openstack/02b-MAChigh/sixtop.c ****    uint8_t              requiredCells
  81:build/OpenMote-CC2538_armgcc/openstack/02b-MAChigh/sixtop.c **** );
  82:build/OpenMote-CC2538_armgcc/openstack/02b-MAChigh/sixtop.c **** void          sixtop_addCellsByState(
  83:build/OpenMote-CC2538_armgcc/openstack/02b-MAChigh/sixtop.c ****    uint8_t              slotframeID,
  84:build/OpenMote-CC2538_armgcc/openstack/02b-MAChigh/sixtop.c ****    cellInfo_ht*         cellList,
  85:build/OpenMote-CC2538_armgcc/openstack/02b-MAChigh/sixtop.c ****    open_addr_t*         previousHop,
  86:build/OpenMote-CC2538_armgcc/openstack/02b-MAChigh/sixtop.c ****    uint8_t              state
  87:build/OpenMote-CC2538_armgcc/openstack/02b-MAChigh/sixtop.c **** );
  88:build/OpenMote-CC2538_armgcc/openstack/02b-MAChigh/sixtop.c **** void          sixtop_removeCellsByState(
  89:build/OpenMote-CC2538_armgcc/openstack/02b-MAChigh/sixtop.c ****    uint8_t              slotframeID,
  90:build/OpenMote-CC2538_armgcc/openstack/02b-MAChigh/sixtop.c ****    cellInfo_ht*         cellList,
  91:build/OpenMote-CC2538_armgcc/openstack/02b-MAChigh/sixtop.c ****    open_addr_t*         previousHop
  92:build/OpenMote-CC2538_armgcc/openstack/02b-MAChigh/sixtop.c **** );
  93:build/OpenMote-CC2538_armgcc/openstack/02b-MAChigh/sixtop.c **** bool          sixtop_areAvailableCellsToBeScheduled(
  94:build/OpenMote-CC2538_armgcc/openstack/02b-MAChigh/sixtop.c ****     uint8_t              frameID, 
  95:build/OpenMote-CC2538_armgcc/openstack/02b-MAChigh/sixtop.c ****     uint8_t              numOfCells, 
  96:build/OpenMote-CC2538_armgcc/openstack/02b-MAChigh/sixtop.c ****     cellInfo_ht*         cellList
  97:build/OpenMote-CC2538_armgcc/openstack/02b-MAChigh/sixtop.c **** );
  98:build/OpenMote-CC2538_armgcc/openstack/02b-MAChigh/sixtop.c **** bool sixtop_areAvailableCellsToBeRemoved(      
  99:build/OpenMote-CC2538_armgcc/openstack/02b-MAChigh/sixtop.c ****     uint8_t      frameID, 
 100:build/OpenMote-CC2538_armgcc/openstack/02b-MAChigh/sixtop.c ****     uint8_t      numOfCells, 
 101:build/OpenMote-CC2538_armgcc/openstack/02b-MAChigh/sixtop.c ****     cellInfo_ht* cellList,
 102:build/OpenMote-CC2538_armgcc/openstack/02b-MAChigh/sixtop.c ****     open_addr_t* neighbor
 103:build/OpenMote-CC2538_armgcc/openstack/02b-MAChigh/sixtop.c **** );
 104:build/OpenMote-CC2538_armgcc/openstack/02b-MAChigh/sixtop.c **** 
 105:build/OpenMote-CC2538_armgcc/openstack/02b-MAChigh/sixtop.c **** //=========================== public ==========================================
 106:build/OpenMote-CC2538_armgcc/openstack/02b-MAChigh/sixtop.c **** 
 107:build/OpenMote-CC2538_armgcc/openstack/02b-MAChigh/sixtop.c **** void sixtop_init() {
  94              		.loc 1 107 0
  95              		.cfi_startproc
  96              		@ args = 0, pretend = 0, frame = 0
  97              		@ frame_needed = 1, uses_anonymous_args = 0
  98 0000 80B5     		push	{r7, lr}
  99              		.cfi_def_cfa_offset 8
 100              		.cfi_offset 7, -8
 101              		.cfi_offset 14, -4
 102 0002 00AF     		add	r7, sp, #0
 103              		.cfi_def_cfa_register 7
 108:build/OpenMote-CC2538_armgcc/openstack/02b-MAChigh/sixtop.c ****    
 109:build/OpenMote-CC2538_armgcc/openstack/02b-MAChigh/sixtop.c ****    sixtop_vars.periodMaintenance  = 872 +(openrandom_get16b()&0xff);
 104              		.loc 1 109 0
 105 0004 FFF7FEFF 		bl	openrandom_get16b
 106 0008 0346     		mov	r3, r0
 107 000a DBB2     		uxtb	r3, r3
 108 000c 9BB2     		uxth	r3, r3
 109 000e 03F55A73 		add	r3, r3, #872
 110 0012 9AB2     		uxth	r2, r3
 111 0014 174B     		ldr	r3, .L2
 112 0016 1A80     		strh	r2, [r3]	@ movhi
 110:build/OpenMote-CC2538_armgcc/openstack/02b-MAChigh/sixtop.c ****    sixtop_vars.busySendingKA      = FALSE;
 113              		.loc 1 110 0
 114 0018 164B     		ldr	r3, .L2
 115 001a 0022     		movs	r2, #0
 116 001c 9A70     		strb	r2, [r3, #2]
 111:build/OpenMote-CC2538_armgcc/openstack/02b-MAChigh/sixtop.c ****    sixtop_vars.busySendingEB      = FALSE;
 117              		.loc 1 111 0
 118 001e 154B     		ldr	r3, .L2
 119 0020 0022     		movs	r2, #0
 120 0022 DA70     		strb	r2, [r3, #3]
 112:build/OpenMote-CC2538_armgcc/openstack/02b-MAChigh/sixtop.c ****    sixtop_vars.dsn                = 0;
 121              		.loc 1 112 0
 122 0024 134B     		ldr	r3, .L2
 123 0026 0022     		movs	r2, #0
 124 0028 1A71     		strb	r2, [r3, #4]
 113:build/OpenMote-CC2538_armgcc/openstack/02b-MAChigh/sixtop.c ****    sixtop_vars.mgtTaskCounter     = 0;
 125              		.loc 1 113 0
 126 002a 124B     		ldr	r3, .L2
 127 002c 0022     		movs	r2, #0
 128 002e 5A71     		strb	r2, [r3, #5]
 114:build/OpenMote-CC2538_armgcc/openstack/02b-MAChigh/sixtop.c ****    sixtop_vars.kaPeriod           = MAXKAPERIOD;
 129              		.loc 1 114 0
 130 0030 104B     		ldr	r3, .L2
 131 0032 4FF4FA62 		mov	r2, #2000
 132 0036 1A81     		strh	r2, [r3, #8]	@ movhi
 115:build/OpenMote-CC2538_armgcc/openstack/02b-MAChigh/sixtop.c ****    sixtop_vars.ebPeriod           = EBPERIOD;
 133              		.loc 1 115 0
 134 0038 0E4B     		ldr	r3, .L2
 135 003a 1E22     		movs	r2, #30
 136 003c 5A81     		strh	r2, [r3, #10]	@ movhi
 116:build/OpenMote-CC2538_armgcc/openstack/02b-MAChigh/sixtop.c ****    sixtop_vars.isResponseEnabled  = TRUE;
 137              		.loc 1 116 0
 138 003e 0D4B     		ldr	r3, .L2
 139 0040 0122     		movs	r2, #1
 140 0042 DA73     		strb	r2, [r3, #15]
 117:build/OpenMote-CC2538_armgcc/openstack/02b-MAChigh/sixtop.c ****    
 118:build/OpenMote-CC2538_armgcc/openstack/02b-MAChigh/sixtop.c ****    sixtop_vars.maintenanceTimerId = opentimers_start(
 119:build/OpenMote-CC2538_armgcc/openstack/02b-MAChigh/sixtop.c ****       sixtop_vars.periodMaintenance,
 141              		.loc 1 119 0
 142 0044 0B4B     		ldr	r3, .L2
 143 0046 1B88     		ldrh	r3, [r3]
 118:build/OpenMote-CC2538_armgcc/openstack/02b-MAChigh/sixtop.c ****       sixtop_vars.periodMaintenance,
 144              		.loc 1 118 0
 145 0048 1846     		mov	r0, r3
 146 004a 0021     		movs	r1, #0
 147 004c 0022     		movs	r2, #0
 148 004e 0A4B     		ldr	r3, .L2+4
 149 0050 FFF7FEFF 		bl	opentimers_start
 150 0054 0346     		mov	r3, r0
 151 0056 1A46     		mov	r2, r3
 152 0058 064B     		ldr	r3, .L2
 153 005a 9A71     		strb	r2, [r3, #6]
 120:build/OpenMote-CC2538_armgcc/openstack/02b-MAChigh/sixtop.c ****       TIMER_PERIODIC,
 121:build/OpenMote-CC2538_armgcc/openstack/02b-MAChigh/sixtop.c ****       TIME_MS,
 122:build/OpenMote-CC2538_armgcc/openstack/02b-MAChigh/sixtop.c ****       sixtop_maintenance_timer_cb
 123:build/OpenMote-CC2538_armgcc/openstack/02b-MAChigh/sixtop.c ****    );
 124:build/OpenMote-CC2538_armgcc/openstack/02b-MAChigh/sixtop.c ****    
 125:build/OpenMote-CC2538_armgcc/openstack/02b-MAChigh/sixtop.c ****    sixtop_vars.timeoutTimerId     = opentimers_start(
 154              		.loc 1 125 0
 155 005c 4FF47A60 		mov	r0, #4000
 156 0060 0121     		movs	r1, #1
 157 0062 0022     		movs	r2, #0
 158 0064 054B     		ldr	r3, .L2+8
 159 0066 FFF7FEFF 		bl	opentimers_start
 160 006a 0346     		mov	r3, r0
 161 006c 1A46     		mov	r2, r3
 162 006e 014B     		ldr	r3, .L2
 163 0070 DA71     		strb	r2, [r3, #7]
 126:build/OpenMote-CC2538_armgcc/openstack/02b-MAChigh/sixtop.c ****       SIX2SIX_TIMEOUT_MS,
 127:build/OpenMote-CC2538_armgcc/openstack/02b-MAChigh/sixtop.c ****       TIMER_ONESHOT,
 128:build/OpenMote-CC2538_armgcc/openstack/02b-MAChigh/sixtop.c ****       TIME_MS,
 129:build/OpenMote-CC2538_armgcc/openstack/02b-MAChigh/sixtop.c ****       sixtop_timeout_timer_cb
 130:build/OpenMote-CC2538_armgcc/openstack/02b-MAChigh/sixtop.c ****    );
 131:build/OpenMote-CC2538_armgcc/openstack/02b-MAChigh/sixtop.c **** }
 164              		.loc 1 131 0
 165 0072 80BD     		pop	{r7, pc}
 166              	.L3:
 167              		.align	2
 168              	.L2:
 169 0074 00000000 		.word	sixtop_vars
 170 0078 00000000 		.word	sixtop_maintenance_timer_cb
 171 007c 00000000 		.word	sixtop_timeout_timer_cb
 172              		.cfi_endproc
 173              	.LFE0:
 175              		.align	2
 176              		.global	sixtop_setKaPeriod
 177              		.thumb
 178              		.thumb_func
 180              	sixtop_setKaPeriod:
 181              	.LFB1:
 132:build/OpenMote-CC2538_armgcc/openstack/02b-MAChigh/sixtop.c **** 
 133:build/OpenMote-CC2538_armgcc/openstack/02b-MAChigh/sixtop.c **** void sixtop_setKaPeriod(uint16_t kaPeriod) {
 182              		.loc 1 133 0
 183              		.cfi_startproc
 184              		@ args = 0, pretend = 0, frame = 8
 185              		@ frame_needed = 1, uses_anonymous_args = 0
 186              		@ link register save eliminated.
 187 0080 80B4     		push	{r7}
 188              		.cfi_def_cfa_offset 4
 189              		.cfi_offset 7, -4
 190 0082 83B0     		sub	sp, sp, #12
 191              		.cfi_def_cfa_offset 16
 192 0084 00AF     		add	r7, sp, #0
 193              		.cfi_def_cfa_register 7
 194 0086 0346     		mov	r3, r0
 195 0088 FB80     		strh	r3, [r7, #6]	@ movhi
 134:build/OpenMote-CC2538_armgcc/openstack/02b-MAChigh/sixtop.c ****    if(kaPeriod > MAXKAPERIOD) {
 196              		.loc 1 134 0
 197 008a FB88     		ldrh	r3, [r7, #6]
 198 008c B3F5FA6F 		cmp	r3, #2000
 199 0090 04D9     		bls	.L5
 135:build/OpenMote-CC2538_armgcc/openstack/02b-MAChigh/sixtop.c ****       sixtop_vars.kaPeriod = MAXKAPERIOD;
 200              		.loc 1 135 0
 201 0092 064B     		ldr	r3, .L7
 202 0094 4FF4FA62 		mov	r2, #2000
 203 0098 1A81     		strh	r2, [r3, #8]	@ movhi
 204 009a 02E0     		b	.L4
 205              	.L5:
 136:build/OpenMote-CC2538_armgcc/openstack/02b-MAChigh/sixtop.c ****    } else {
 137:build/OpenMote-CC2538_armgcc/openstack/02b-MAChigh/sixtop.c ****       sixtop_vars.kaPeriod = kaPeriod;
 206              		.loc 1 137 0
 207 009c 034A     		ldr	r2, .L7
 208 009e FB88     		ldrh	r3, [r7, #6]	@ movhi
 209 00a0 1381     		strh	r3, [r2, #8]	@ movhi
 210              	.L4:
 138:build/OpenMote-CC2538_armgcc/openstack/02b-MAChigh/sixtop.c ****    } 
 139:build/OpenMote-CC2538_armgcc/openstack/02b-MAChigh/sixtop.c **** }
 211              		.loc 1 139 0
 212 00a2 0C37     		adds	r7, r7, #12
 213              		.cfi_def_cfa_offset 4
 214 00a4 BD46     		mov	sp, r7
 215              		.cfi_def_cfa_register 13
 216              		@ sp needed
 217 00a6 5DF8047B 		ldr	r7, [sp], #4
 218              		.cfi_restore 7
 219              		.cfi_def_cfa_offset 0
 220 00aa 7047     		bx	lr
 221              	.L8:
 222              		.align	2
 223              	.L7:
 224 00ac 00000000 		.word	sixtop_vars
 225              		.cfi_endproc
 226              	.LFE1:
 228              		.align	2
 229              		.global	sixtop_setEBPeriod
 230              		.thumb
 231              		.thumb_func
 233              	sixtop_setEBPeriod:
 234              	.LFB2:
 140:build/OpenMote-CC2538_armgcc/openstack/02b-MAChigh/sixtop.c **** 
 141:build/OpenMote-CC2538_armgcc/openstack/02b-MAChigh/sixtop.c **** void sixtop_setEBPeriod(uint8_t ebPeriod) {
 235              		.loc 1 141 0
 236              		.cfi_startproc
 237              		@ args = 0, pretend = 0, frame = 8
 238              		@ frame_needed = 1, uses_anonymous_args = 0
 239              		@ link register save eliminated.
 240 00b0 80B4     		push	{r7}
 241              		.cfi_def_cfa_offset 4
 242              		.cfi_offset 7, -4
 243 00b2 83B0     		sub	sp, sp, #12
 244              		.cfi_def_cfa_offset 16
 245 00b4 00AF     		add	r7, sp, #0
 246              		.cfi_def_cfa_register 7
 247 00b6 0346     		mov	r3, r0
 248 00b8 FB71     		strb	r3, [r7, #7]
 142:build/OpenMote-CC2538_armgcc/openstack/02b-MAChigh/sixtop.c ****    if(ebPeriod < SIXTOP_MINIMAL_EBPERIOD) {
 249              		.loc 1 142 0
 250 00ba FB79     		ldrb	r3, [r7, #7]	@ zero_extendqisi2
 251 00bc 042B     		cmp	r3, #4
 252 00be 03D8     		bhi	.L10
 143:build/OpenMote-CC2538_armgcc/openstack/02b-MAChigh/sixtop.c ****       sixtop_vars.ebPeriod = SIXTOP_MINIMAL_EBPERIOD;
 253              		.loc 1 143 0
 254 00c0 064B     		ldr	r3, .L12
 255 00c2 0522     		movs	r2, #5
 256 00c4 5A81     		strh	r2, [r3, #10]	@ movhi
 257 00c6 03E0     		b	.L9
 258              	.L10:
 144:build/OpenMote-CC2538_armgcc/openstack/02b-MAChigh/sixtop.c ****    } else {
 145:build/OpenMote-CC2538_armgcc/openstack/02b-MAChigh/sixtop.c ****       sixtop_vars.ebPeriod = ebPeriod;
 259              		.loc 1 145 0
 260 00c8 FB79     		ldrb	r3, [r7, #7]	@ zero_extendqisi2
 261 00ca 9AB2     		uxth	r2, r3
 262 00cc 034B     		ldr	r3, .L12
 263 00ce 5A81     		strh	r2, [r3, #10]	@ movhi
 264              	.L9:
 146:build/OpenMote-CC2538_armgcc/openstack/02b-MAChigh/sixtop.c ****    } 
 147:build/OpenMote-CC2538_armgcc/openstack/02b-MAChigh/sixtop.c **** }
 265              		.loc 1 147 0
 266 00d0 0C37     		adds	r7, r7, #12
 267              		.cfi_def_cfa_offset 4
 268 00d2 BD46     		mov	sp, r7
 269              		.cfi_def_cfa_register 13
 270              		@ sp needed
 271 00d4 5DF8047B 		ldr	r7, [sp], #4
 272              		.cfi_restore 7
 273              		.cfi_def_cfa_offset 0
 274 00d8 7047     		bx	lr
 275              	.L13:
 276 00da 00BF     		.align	2
 277              	.L12:
 278 00dc 00000000 		.word	sixtop_vars
 279              		.cfi_endproc
 280              	.LFE2:
 282              		.align	2
 283              		.global	sixtop_setHandler
 284              		.thumb
 285              		.thumb_func
 287              	sixtop_setHandler:
 288              	.LFB3:
 148:build/OpenMote-CC2538_armgcc/openstack/02b-MAChigh/sixtop.c **** 
 149:build/OpenMote-CC2538_armgcc/openstack/02b-MAChigh/sixtop.c **** void sixtop_setHandler(six2six_handler_t handler) {
 289              		.loc 1 149 0
 290              		.cfi_startproc
 291              		@ args = 0, pretend = 0, frame = 8
 292              		@ frame_needed = 1, uses_anonymous_args = 0
 293              		@ link register save eliminated.
 294 00e0 80B4     		push	{r7}
 295              		.cfi_def_cfa_offset 4
 296              		.cfi_offset 7, -4
 297 00e2 83B0     		sub	sp, sp, #12
 298              		.cfi_def_cfa_offset 16
 299 00e4 00AF     		add	r7, sp, #0
 300              		.cfi_def_cfa_register 7
 301 00e6 0346     		mov	r3, r0
 302 00e8 FB71     		strb	r3, [r7, #7]
 150:build/OpenMote-CC2538_armgcc/openstack/02b-MAChigh/sixtop.c ****     sixtop_vars.handler = handler;
 303              		.loc 1 150 0
 304 00ea 044A     		ldr	r2, .L15
 305 00ec FB79     		ldrb	r3, [r7, #7]
 306 00ee 9373     		strb	r3, [r2, #14]
 151:build/OpenMote-CC2538_armgcc/openstack/02b-MAChigh/sixtop.c **** }
 307              		.loc 1 151 0
 308 00f0 0C37     		adds	r7, r7, #12
 309              		.cfi_def_cfa_offset 4
 310 00f2 BD46     		mov	sp, r7
 311              		.cfi_def_cfa_register 13
 312              		@ sp needed
 313 00f4 5DF8047B 		ldr	r7, [sp], #4
 314              		.cfi_restore 7
 315              		.cfi_def_cfa_offset 0
 316 00f8 7047     		bx	lr
 317              	.L16:
 318 00fa 00BF     		.align	2
 319              	.L15:
 320 00fc 00000000 		.word	sixtop_vars
 321              		.cfi_endproc
 322              	.LFE3:
 324              		.align	2
 325              		.global	sixtop_request
 326              		.thumb
 327              		.thumb_func
 329              	sixtop_request:
 330              	.LFB4:
 152:build/OpenMote-CC2538_armgcc/openstack/02b-MAChigh/sixtop.c **** 
 153:build/OpenMote-CC2538_armgcc/openstack/02b-MAChigh/sixtop.c **** //======= scheduling
 154:build/OpenMote-CC2538_armgcc/openstack/02b-MAChigh/sixtop.c **** 
 155:build/OpenMote-CC2538_armgcc/openstack/02b-MAChigh/sixtop.c **** void sixtop_request(uint8_t code, open_addr_t* neighbor, uint8_t numCells){
 331              		.loc 1 155 0
 332              		.cfi_startproc
 333              		@ args = 0, pretend = 0, frame = 40
 334              		@ frame_needed = 1, uses_anonymous_args = 0
 335 0100 80B5     		push	{r7, lr}
 336              		.cfi_def_cfa_offset 8
 337              		.cfi_offset 7, -8
 338              		.cfi_offset 14, -4
 339 0102 8AB0     		sub	sp, sp, #40
 340              		.cfi_def_cfa_offset 48
 341 0104 00AF     		add	r7, sp, #0
 342              		.cfi_def_cfa_register 7
 343 0106 0346     		mov	r3, r0
 344 0108 3960     		str	r1, [r7]
 345 010a FB71     		strb	r3, [r7, #7]
 346 010c 1346     		mov	r3, r2
 347 010e BB71     		strb	r3, [r7, #6]
 156:build/OpenMote-CC2538_armgcc/openstack/02b-MAChigh/sixtop.c ****     OpenQueueEntry_t* pkt;
 157:build/OpenMote-CC2538_armgcc/openstack/02b-MAChigh/sixtop.c ****     uint8_t           len;
 158:build/OpenMote-CC2538_armgcc/openstack/02b-MAChigh/sixtop.c ****     uint8_t           container;
 159:build/OpenMote-CC2538_armgcc/openstack/02b-MAChigh/sixtop.c ****     uint8_t           frameID;
 160:build/OpenMote-CC2538_armgcc/openstack/02b-MAChigh/sixtop.c ****     cellInfo_ht       cellList[SCHEDULEIEMAXNUMCELLS];
 161:build/OpenMote-CC2538_armgcc/openstack/02b-MAChigh/sixtop.c ****    
 162:build/OpenMote-CC2538_armgcc/openstack/02b-MAChigh/sixtop.c ****     memset(cellList,0,sizeof(cellList));
 348              		.loc 1 162 0
 349 0110 07F10C03 		add	r3, r7, #12
 350 0114 1846     		mov	r0, r3
 351 0116 0021     		movs	r1, #0
 352 0118 0F22     		movs	r2, #15
 353 011a FFF7FEFF 		bl	memset
 163:build/OpenMote-CC2538_armgcc/openstack/02b-MAChigh/sixtop.c ****    
 164:build/OpenMote-CC2538_armgcc/openstack/02b-MAChigh/sixtop.c ****     // filter parameters
 165:build/OpenMote-CC2538_armgcc/openstack/02b-MAChigh/sixtop.c ****     if(sixtop_vars.six2six_state!=SIX_IDLE){
 354              		.loc 1 165 0
 355 011e 684B     		ldr	r3, .L35
 356 0120 1B7B     		ldrb	r3, [r3, #12]	@ zero_extendqisi2
 357 0122 002B     		cmp	r3, #0
 358 0124 00D0     		beq	.L18
 166:build/OpenMote-CC2538_armgcc/openstack/02b-MAChigh/sixtop.c ****         return;
 359              		.loc 1 166 0
 360 0126 C8E0     		b	.L17
 361              	.L18:
 167:build/OpenMote-CC2538_armgcc/openstack/02b-MAChigh/sixtop.c ****     }
 168:build/OpenMote-CC2538_armgcc/openstack/02b-MAChigh/sixtop.c ****     if (neighbor==NULL){
 362              		.loc 1 168 0
 363 0128 3B68     		ldr	r3, [r7]
 364 012a 002B     		cmp	r3, #0
 365 012c 00D1     		bne	.L20
 169:build/OpenMote-CC2538_armgcc/openstack/02b-MAChigh/sixtop.c ****         return;
 366              		.loc 1 169 0
 367 012e C4E0     		b	.L17
 368              	.L20:
 170:build/OpenMote-CC2538_armgcc/openstack/02b-MAChigh/sixtop.c ****     }
 171:build/OpenMote-CC2538_armgcc/openstack/02b-MAChigh/sixtop.c ****    
 172:build/OpenMote-CC2538_armgcc/openstack/02b-MAChigh/sixtop.c ****     if (sixtop_vars.handler == SIX_HANDLER_NONE) {
 369              		.loc 1 172 0
 370 0130 634B     		ldr	r3, .L35
 371 0132 9B7B     		ldrb	r3, [r3, #14]	@ zero_extendqisi2
 372 0134 002B     		cmp	r3, #0
 373 0136 00D1     		bne	.L21
 173:build/OpenMote-CC2538_armgcc/openstack/02b-MAChigh/sixtop.c ****         // sxitop handler must not be NONE
 174:build/OpenMote-CC2538_armgcc/openstack/02b-MAChigh/sixtop.c ****         return;
 374              		.loc 1 174 0
 375 0138 BFE0     		b	.L17
 376              	.L21:
 175:build/OpenMote-CC2538_armgcc/openstack/02b-MAChigh/sixtop.c ****     }
 176:build/OpenMote-CC2538_armgcc/openstack/02b-MAChigh/sixtop.c ****    
 177:build/OpenMote-CC2538_armgcc/openstack/02b-MAChigh/sixtop.c ****     // generate candidate cell list
 178:build/OpenMote-CC2538_armgcc/openstack/02b-MAChigh/sixtop.c ****     if (code == IANA_6TOP_CMD_ADD){
 377              		.loc 1 178 0
 378 013a FB79     		ldrb	r3, [r7, #7]	@ zero_extendqisi2
 379 013c 012B     		cmp	r3, #1
 380 013e 13D1     		bne	.L22
 179:build/OpenMote-CC2538_armgcc/openstack/02b-MAChigh/sixtop.c ****         if (sixtop_candidateAddCellList(&frameID,cellList,numCells)==FALSE){
 381              		.loc 1 179 0
 382 0140 07F11E01 		add	r1, r7, #30
 383 0144 07F10C02 		add	r2, r7, #12
 384 0148 BB79     		ldrb	r3, [r7, #6]	@ zero_extendqisi2
 385 014a 0846     		mov	r0, r1
 386 014c 1146     		mov	r1, r2
 387 014e 1A46     		mov	r2, r3
 388 0150 FFF7FEFF 		bl	sixtop_candidateAddCellList
 389 0154 0346     		mov	r3, r0
 390 0156 83F00103 		eor	r3, r3, #1
 391 015a DBB2     		uxtb	r3, r3
 392 015c 002B     		cmp	r3, #0
 393 015e 00D0     		beq	.L23
 180:build/OpenMote-CC2538_armgcc/openstack/02b-MAChigh/sixtop.c ****               return;
 394              		.loc 1 180 0
 395 0160 ABE0     		b	.L17
 396              	.L23:
 181:build/OpenMote-CC2538_armgcc/openstack/02b-MAChigh/sixtop.c ****         } else{
 182:build/OpenMote-CC2538_armgcc/openstack/02b-MAChigh/sixtop.c ****             // container to be define by SF, currently equals to frameID
 183:build/OpenMote-CC2538_armgcc/openstack/02b-MAChigh/sixtop.c ****             container  = frameID;
 397              		.loc 1 183 0
 398 0162 BB7F     		ldrb	r3, [r7, #30]
 399 0164 87F82730 		strb	r3, [r7, #39]
 400              	.L22:
 184:build/OpenMote-CC2538_armgcc/openstack/02b-MAChigh/sixtop.c ****         }
 185:build/OpenMote-CC2538_armgcc/openstack/02b-MAChigh/sixtop.c ****     }
 186:build/OpenMote-CC2538_armgcc/openstack/02b-MAChigh/sixtop.c ****     if (code == IANA_6TOP_CMD_DELETE){
 401              		.loc 1 186 0
 402 0168 FB79     		ldrb	r3, [r7, #7]	@ zero_extendqisi2
 403 016a 022B     		cmp	r3, #2
 404 016c 13D1     		bne	.L24
 187:build/OpenMote-CC2538_armgcc/openstack/02b-MAChigh/sixtop.c ****         if (sixtop_candidateRemoveCellList(&frameID,cellList,neighbor,numCells)==FALSE){
 405              		.loc 1 187 0
 406 016e 07F11E01 		add	r1, r7, #30
 407 0172 07F10C02 		add	r2, r7, #12
 408 0176 BB79     		ldrb	r3, [r7, #6]	@ zero_extendqisi2
 409 0178 0846     		mov	r0, r1
 410 017a 1146     		mov	r1, r2
 411 017c 3A68     		ldr	r2, [r7]
 412 017e FFF7FEFF 		bl	sixtop_candidateRemoveCellList
 413 0182 0346     		mov	r3, r0
 414 0184 83F00103 		eor	r3, r3, #1
 415 0188 DBB2     		uxtb	r3, r3
 416 018a 002B     		cmp	r3, #0
 417 018c 00D0     		beq	.L25
 188:build/OpenMote-CC2538_armgcc/openstack/02b-MAChigh/sixtop.c ****               return;
 418              		.loc 1 188 0
 419 018e 94E0     		b	.L17
 420              	.L25:
 189:build/OpenMote-CC2538_armgcc/openstack/02b-MAChigh/sixtop.c ****         } else{
 190:build/OpenMote-CC2538_armgcc/openstack/02b-MAChigh/sixtop.c ****             // container to be define by SF, currently equals to frameID
 191:build/OpenMote-CC2538_armgcc/openstack/02b-MAChigh/sixtop.c ****             container  = frameID;
 421              		.loc 1 191 0
 422 0190 BB7F     		ldrb	r3, [r7, #30]
 423 0192 87F82730 		strb	r3, [r7, #39]
 424              	.L24:
 192:build/OpenMote-CC2538_armgcc/openstack/02b-MAChigh/sixtop.c ****         }
 193:build/OpenMote-CC2538_armgcc/openstack/02b-MAChigh/sixtop.c ****     }
 194:build/OpenMote-CC2538_armgcc/openstack/02b-MAChigh/sixtop.c ****     
 195:build/OpenMote-CC2538_armgcc/openstack/02b-MAChigh/sixtop.c ****     // get a free packet buffer
 196:build/OpenMote-CC2538_armgcc/openstack/02b-MAChigh/sixtop.c ****     pkt = openqueue_getFreePacketBuffer(COMPONENT_SIXTOP_RES);
 425              		.loc 1 196 0
 426 0196 0F20     		movs	r0, #15
 427 0198 FFF7FEFF 		bl	openqueue_getFreePacketBuffer
 428 019c 3862     		str	r0, [r7, #32]
 197:build/OpenMote-CC2538_armgcc/openstack/02b-MAChigh/sixtop.c ****     if (pkt==NULL) {
 429              		.loc 1 197 0
 430 019e 3B6A     		ldr	r3, [r7, #32]
 431 01a0 002B     		cmp	r3, #0
 432 01a2 06D1     		bne	.L26
 198:build/OpenMote-CC2538_armgcc/openstack/02b-MAChigh/sixtop.c ****         openserial_printError(
 433              		.loc 1 198 0
 434 01a4 0F20     		movs	r0, #15
 435 01a6 2C21     		movs	r1, #44
 436 01a8 0022     		movs	r2, #0
 437 01aa 0023     		movs	r3, #0
 438 01ac FFF7FEFF 		bl	openserial_printError
 199:build/OpenMote-CC2538_armgcc/openstack/02b-MAChigh/sixtop.c ****             COMPONENT_SIXTOP_RES,
 200:build/OpenMote-CC2538_armgcc/openstack/02b-MAChigh/sixtop.c ****             ERR_NO_FREE_PACKET_BUFFER,
 201:build/OpenMote-CC2538_armgcc/openstack/02b-MAChigh/sixtop.c ****             (errorparameter_t)0,
 202:build/OpenMote-CC2538_armgcc/openstack/02b-MAChigh/sixtop.c ****             (errorparameter_t)0
 203:build/OpenMote-CC2538_armgcc/openstack/02b-MAChigh/sixtop.c ****         );
 204:build/OpenMote-CC2538_armgcc/openstack/02b-MAChigh/sixtop.c ****         return;
 439              		.loc 1 204 0
 440 01b0 83E0     		b	.L17
 441              	.L26:
 205:build/OpenMote-CC2538_armgcc/openstack/02b-MAChigh/sixtop.c ****     }
 206:build/OpenMote-CC2538_armgcc/openstack/02b-MAChigh/sixtop.c ****    
 207:build/OpenMote-CC2538_armgcc/openstack/02b-MAChigh/sixtop.c ****     // update state
 208:build/OpenMote-CC2538_armgcc/openstack/02b-MAChigh/sixtop.c ****     sixtop_vars.six2six_state  = SIX_SENDING_REQUEST;
 442              		.loc 1 208 0
 443 01b2 434B     		ldr	r3, .L35
 444 01b4 0122     		movs	r2, #1
 445 01b6 1A73     		strb	r2, [r3, #12]
 209:build/OpenMote-CC2538_armgcc/openstack/02b-MAChigh/sixtop.c ****    
 210:build/OpenMote-CC2538_armgcc/openstack/02b-MAChigh/sixtop.c ****     // take ownership
 211:build/OpenMote-CC2538_armgcc/openstack/02b-MAChigh/sixtop.c ****     pkt->creator = COMPONENT_SIXTOP_RES;
 446              		.loc 1 211 0
 447 01b8 3B6A     		ldr	r3, [r7, #32]
 448 01ba 0F22     		movs	r2, #15
 449 01bc 1A70     		strb	r2, [r3]
 212:build/OpenMote-CC2538_armgcc/openstack/02b-MAChigh/sixtop.c ****     pkt->owner   = COMPONENT_SIXTOP_RES;
 450              		.loc 1 212 0
 451 01be 3B6A     		ldr	r3, [r7, #32]
 452 01c0 0F22     		movs	r2, #15
 453 01c2 5A70     		strb	r2, [r3, #1]
 213:build/OpenMote-CC2538_armgcc/openstack/02b-MAChigh/sixtop.c ****    
 214:build/OpenMote-CC2538_armgcc/openstack/02b-MAChigh/sixtop.c ****     memcpy(&(pkt->l2_nextORpreviousHop),neighbor,sizeof(open_addr_t));
 454              		.loc 1 214 0
 455 01c4 3B6A     		ldr	r3, [r7, #32]
 456 01c6 3833     		adds	r3, r3, #56
 457 01c8 1846     		mov	r0, r3
 458 01ca 3968     		ldr	r1, [r7]
 459 01cc 1122     		movs	r2, #17
 460 01ce FFF7FEFF 		bl	memcpy
 215:build/OpenMote-CC2538_armgcc/openstack/02b-MAChigh/sixtop.c ****    
 216:build/OpenMote-CC2538_armgcc/openstack/02b-MAChigh/sixtop.c ****     // create packet
 217:build/OpenMote-CC2538_armgcc/openstack/02b-MAChigh/sixtop.c ****     len  = 0;
 461              		.loc 1 217 0
 462 01d2 0023     		movs	r3, #0
 463 01d4 FB77     		strb	r3, [r7, #31]
 218:build/OpenMote-CC2538_armgcc/openstack/02b-MAChigh/sixtop.c ****     if (code == IANA_6TOP_CMD_ADD || IANA_6TOP_CMD_DELETE){
 219:build/OpenMote-CC2538_armgcc/openstack/02b-MAChigh/sixtop.c ****         len += processIE_prepend_sixCelllist(pkt,cellList);
 464              		.loc 1 219 0
 465 01d6 07F10C03 		add	r3, r7, #12
 466 01da 386A     		ldr	r0, [r7, #32]
 467 01dc 1946     		mov	r1, r3
 468 01de FFF7FEFF 		bl	processIE_prepend_sixCelllist
 469 01e2 0346     		mov	r3, r0
 470 01e4 1A46     		mov	r2, r3
 471 01e6 FB7F     		ldrb	r3, [r7, #31]
 472 01e8 1344     		add	r3, r3, r2
 473 01ea FB77     		strb	r3, [r7, #31]
 220:build/OpenMote-CC2538_armgcc/openstack/02b-MAChigh/sixtop.c ****         // reserve space for container
 221:build/OpenMote-CC2538_armgcc/openstack/02b-MAChigh/sixtop.c ****         packetfunctions_reserveHeaderSize(pkt,sizeof(uint8_t));
 474              		.loc 1 221 0
 475 01ec 386A     		ldr	r0, [r7, #32]
 476 01ee 0121     		movs	r1, #1
 477 01f0 FFF7FEFF 		bl	packetfunctions_reserveHeaderSize
 222:build/OpenMote-CC2538_armgcc/openstack/02b-MAChigh/sixtop.c ****         // write header
 223:build/OpenMote-CC2538_armgcc/openstack/02b-MAChigh/sixtop.c ****         *((uint8_t*)(pkt->payload)) = container;
 478              		.loc 1 223 0
 479 01f4 3B6A     		ldr	r3, [r7, #32]
 480 01f6 5B68     		ldr	r3, [r3, #4]
 481 01f8 97F82720 		ldrb	r2, [r7, #39]
 482 01fc 1A70     		strb	r2, [r3]
 224:build/OpenMote-CC2538_armgcc/openstack/02b-MAChigh/sixtop.c ****         len+=1;
 483              		.loc 1 224 0
 484 01fe FB7F     		ldrb	r3, [r7, #31]
 485 0200 0133     		adds	r3, r3, #1
 486 0202 FB77     		strb	r3, [r7, #31]
 225:build/OpenMote-CC2538_armgcc/openstack/02b-MAChigh/sixtop.c ****         // reserve space for numCells
 226:build/OpenMote-CC2538_armgcc/openstack/02b-MAChigh/sixtop.c ****         packetfunctions_reserveHeaderSize(pkt,sizeof(uint8_t));
 487              		.loc 1 226 0
 488 0204 386A     		ldr	r0, [r7, #32]
 489 0206 0121     		movs	r1, #1
 490 0208 FFF7FEFF 		bl	packetfunctions_reserveHeaderSize
 227:build/OpenMote-CC2538_armgcc/openstack/02b-MAChigh/sixtop.c ****         // write header
 228:build/OpenMote-CC2538_armgcc/openstack/02b-MAChigh/sixtop.c ****         *((uint8_t*)(pkt->payload)) = numCells;
 491              		.loc 1 228 0
 492 020c 3B6A     		ldr	r3, [r7, #32]
 493 020e 5B68     		ldr	r3, [r3, #4]
 494 0210 BA79     		ldrb	r2, [r7, #6]
 495 0212 1A70     		strb	r2, [r3]
 229:build/OpenMote-CC2538_armgcc/openstack/02b-MAChigh/sixtop.c ****         len+=1;
 496              		.loc 1 229 0
 497 0214 FB7F     		ldrb	r3, [r7, #31]
 498 0216 0133     		adds	r3, r3, #1
 499 0218 FB77     		strb	r3, [r7, #31]
 230:build/OpenMote-CC2538_armgcc/openstack/02b-MAChigh/sixtop.c ****     } else {
 231:build/OpenMote-CC2538_armgcc/openstack/02b-MAChigh/sixtop.c ****         // reserve space for container
 232:build/OpenMote-CC2538_armgcc/openstack/02b-MAChigh/sixtop.c ****         packetfunctions_reserveHeaderSize(pkt,sizeof(uint8_t));
 233:build/OpenMote-CC2538_armgcc/openstack/02b-MAChigh/sixtop.c ****         // write header
 234:build/OpenMote-CC2538_armgcc/openstack/02b-MAChigh/sixtop.c ****         *((uint8_t*)(pkt->payload)) = container;
 235:build/OpenMote-CC2538_armgcc/openstack/02b-MAChigh/sixtop.c ****         len+=1;
 236:build/OpenMote-CC2538_armgcc/openstack/02b-MAChigh/sixtop.c ****     }
 237:build/OpenMote-CC2538_armgcc/openstack/02b-MAChigh/sixtop.c ****     
 238:build/OpenMote-CC2538_armgcc/openstack/02b-MAChigh/sixtop.c ****     len += processIE_prepend_sixGeneralMessage(pkt,code);
 500              		.loc 1 238 0
 501 021a FB79     		ldrb	r3, [r7, #7]	@ zero_extendqisi2
 502 021c 386A     		ldr	r0, [r7, #32]
 503 021e 1946     		mov	r1, r3
 504 0220 FFF7FEFF 		bl	processIE_prepend_sixGeneralMessage
 505 0224 0346     		mov	r3, r0
 506 0226 1A46     		mov	r2, r3
 507 0228 FB7F     		ldrb	r3, [r7, #31]
 508 022a 1344     		add	r3, r3, r2
 509 022c FB77     		strb	r3, [r7, #31]
 239:build/OpenMote-CC2538_armgcc/openstack/02b-MAChigh/sixtop.c ****     len += processIE_prepend_sixSubID(pkt);
 510              		.loc 1 239 0
 511 022e 386A     		ldr	r0, [r7, #32]
 512 0230 FFF7FEFF 		bl	processIE_prepend_sixSubID
 513 0234 0346     		mov	r3, r0
 514 0236 1A46     		mov	r2, r3
 515 0238 FB7F     		ldrb	r3, [r7, #31]
 516 023a 1344     		add	r3, r3, r2
 517 023c FB77     		strb	r3, [r7, #31]
 240:build/OpenMote-CC2538_armgcc/openstack/02b-MAChigh/sixtop.c ****     processIE_prepend_sixtopIE(pkt,len);
 518              		.loc 1 240 0
 519 023e FB7F     		ldrb	r3, [r7, #31]	@ zero_extendqisi2
 520 0240 386A     		ldr	r0, [r7, #32]
 521 0242 1946     		mov	r1, r3
 522 0244 FFF7FEFF 		bl	processIE_prepend_sixtopIE
 241:build/OpenMote-CC2538_armgcc/openstack/02b-MAChigh/sixtop.c ****    
 242:build/OpenMote-CC2538_armgcc/openstack/02b-MAChigh/sixtop.c ****     // indicate IEs present
 243:build/OpenMote-CC2538_armgcc/openstack/02b-MAChigh/sixtop.c ****     pkt->l2_payloadIEpresent = TRUE;
 523              		.loc 1 243 0
 524 0248 3B6A     		ldr	r3, [r7, #32]
 525 024a 0122     		movs	r2, #1
 526 024c 83F86620 		strb	r2, [r3, #102]
 244:build/OpenMote-CC2538_armgcc/openstack/02b-MAChigh/sixtop.c ****    
 245:build/OpenMote-CC2538_armgcc/openstack/02b-MAChigh/sixtop.c ****     // send packet
 246:build/OpenMote-CC2538_armgcc/openstack/02b-MAChigh/sixtop.c ****     sixtop_send(pkt);
 527              		.loc 1 246 0
 528 0250 386A     		ldr	r0, [r7, #32]
 529 0252 FFF7FEFF 		bl	sixtop_send
 247:build/OpenMote-CC2538_armgcc/openstack/02b-MAChigh/sixtop.c ****     
 248:build/OpenMote-CC2538_armgcc/openstack/02b-MAChigh/sixtop.c ****     //update states
 249:build/OpenMote-CC2538_armgcc/openstack/02b-MAChigh/sixtop.c ****     switch(code){
 530              		.loc 1 249 0
 531 0256 FB79     		ldrb	r3, [r7, #7]	@ zero_extendqisi2
 532 0258 013B     		subs	r3, r3, #1
 533 025a 042B     		cmp	r3, #4
 534 025c 20D8     		bhi	.L27
 535 025e 01A2     		adr	r2, .L29
 536 0260 52F823F0 		ldr	pc, [r2, r3, lsl #2]
 537              		.p2align 2
 538              	.L29:
 539 0264 79020000 		.word	.L28+1
 540 0268 81020000 		.word	.L30+1
 541 026c 89020000 		.word	.L31+1
 542 0270 91020000 		.word	.L32+1
 543 0274 99020000 		.word	.L33+1
 544              		.p2align 1
 545              	.L28:
 250:build/OpenMote-CC2538_armgcc/openstack/02b-MAChigh/sixtop.c ****     case IANA_6TOP_CMD_ADD:
 251:build/OpenMote-CC2538_armgcc/openstack/02b-MAChigh/sixtop.c ****         sixtop_vars.six2six_state = SIX_WAIT_ADDREQUEST_SENDDONE;
 546              		.loc 1 251 0
 547 0278 114B     		ldr	r3, .L35
 548 027a 0222     		movs	r2, #2
 549 027c 1A73     		strb	r2, [r3, #12]
 252:build/OpenMote-CC2538_armgcc/openstack/02b-MAChigh/sixtop.c ****         break;
 550              		.loc 1 252 0
 551 027e 0FE0     		b	.L27
 552              	.L30:
 253:build/OpenMote-CC2538_armgcc/openstack/02b-MAChigh/sixtop.c ****     case IANA_6TOP_CMD_DELETE:
 254:build/OpenMote-CC2538_armgcc/openstack/02b-MAChigh/sixtop.c ****         sixtop_vars.six2six_state = SIX_WAIT_DELETEREQUEST_SENDDONE;
 553              		.loc 1 254 0
 554 0280 0F4B     		ldr	r3, .L35
 555 0282 0322     		movs	r2, #3
 556 0284 1A73     		strb	r2, [r3, #12]
 255:build/OpenMote-CC2538_armgcc/openstack/02b-MAChigh/sixtop.c ****         break;
 557              		.loc 1 255 0
 558 0286 0BE0     		b	.L27
 559              	.L31:
 256:build/OpenMote-CC2538_armgcc/openstack/02b-MAChigh/sixtop.c ****     case IANA_6TOP_CMD_COUNT:
 257:build/OpenMote-CC2538_armgcc/openstack/02b-MAChigh/sixtop.c ****         sixtop_vars.six2six_state = SIX_WAIT_COUNTREQUEST_SENDDONE;
 560              		.loc 1 257 0
 561 0288 0D4B     		ldr	r3, .L35
 562 028a 0422     		movs	r2, #4
 563 028c 1A73     		strb	r2, [r3, #12]
 258:build/OpenMote-CC2538_armgcc/openstack/02b-MAChigh/sixtop.c ****         break;
 564              		.loc 1 258 0
 565 028e 07E0     		b	.L27
 566              	.L32:
 259:build/OpenMote-CC2538_armgcc/openstack/02b-MAChigh/sixtop.c ****     case IANA_6TOP_CMD_LIST:
 260:build/OpenMote-CC2538_armgcc/openstack/02b-MAChigh/sixtop.c ****         sixtop_vars.six2six_state = SIX_WAIT_LISTREQUEST_SENDDONE;
 567              		.loc 1 260 0
 568 0290 0B4B     		ldr	r3, .L35
 569 0292 0522     		movs	r2, #5
 570 0294 1A73     		strb	r2, [r3, #12]
 261:build/OpenMote-CC2538_armgcc/openstack/02b-MAChigh/sixtop.c ****         break;
 571              		.loc 1 261 0
 572 0296 03E0     		b	.L27
 573              	.L33:
 262:build/OpenMote-CC2538_armgcc/openstack/02b-MAChigh/sixtop.c ****     case IANA_6TOP_CMD_CLEAR:
 263:build/OpenMote-CC2538_armgcc/openstack/02b-MAChigh/sixtop.c ****         sixtop_vars.six2six_state = SIX_WAIT_CLEARREQUEST_SENDDONE;
 574              		.loc 1 263 0
 575 0298 094B     		ldr	r3, .L35
 576 029a 0622     		movs	r2, #6
 577 029c 1A73     		strb	r2, [r3, #12]
 264:build/OpenMote-CC2538_armgcc/openstack/02b-MAChigh/sixtop.c ****         break;
 578              		.loc 1 264 0
 579 029e 00BF     		nop
 580              	.L27:
 265:build/OpenMote-CC2538_armgcc/openstack/02b-MAChigh/sixtop.c ****     }
 266:build/OpenMote-CC2538_armgcc/openstack/02b-MAChigh/sixtop.c ****    
 267:build/OpenMote-CC2538_armgcc/openstack/02b-MAChigh/sixtop.c ****     // arm timeout
 268:build/OpenMote-CC2538_armgcc/openstack/02b-MAChigh/sixtop.c ****     opentimers_setPeriod(
 581              		.loc 1 268 0
 582 02a0 074B     		ldr	r3, .L35
 583 02a2 DB79     		ldrb	r3, [r3, #7]	@ zero_extendqisi2
 584 02a4 1846     		mov	r0, r3
 585 02a6 0021     		movs	r1, #0
 586 02a8 4FF47A62 		mov	r2, #4000
 587 02ac FFF7FEFF 		bl	opentimers_setPeriod
 269:build/OpenMote-CC2538_armgcc/openstack/02b-MAChigh/sixtop.c ****         sixtop_vars.timeoutTimerId,
 270:build/OpenMote-CC2538_armgcc/openstack/02b-MAChigh/sixtop.c ****         TIME_MS,
 271:build/OpenMote-CC2538_armgcc/openstack/02b-MAChigh/sixtop.c ****         SIX2SIX_TIMEOUT_MS
 272:build/OpenMote-CC2538_armgcc/openstack/02b-MAChigh/sixtop.c ****     );
 273:build/OpenMote-CC2538_armgcc/openstack/02b-MAChigh/sixtop.c ****     opentimers_restart(sixtop_vars.timeoutTimerId);
 588              		.loc 1 273 0
 589 02b0 034B     		ldr	r3, .L35
 590 02b2 DB79     		ldrb	r3, [r3, #7]	@ zero_extendqisi2
 591 02b4 1846     		mov	r0, r3
 592 02b6 FFF7FEFF 		bl	opentimers_restart
 593              	.L17:
 274:build/OpenMote-CC2538_armgcc/openstack/02b-MAChigh/sixtop.c **** }
 594              		.loc 1 274 0
 595 02ba 2837     		adds	r7, r7, #40
 596              		.cfi_def_cfa_offset 8
 597 02bc BD46     		mov	sp, r7
 598              		.cfi_def_cfa_register 13
 599              		@ sp needed
 600 02be 80BD     		pop	{r7, pc}
 601              	.L36:
 602              		.align	2
 603              	.L35:
 604 02c0 00000000 		.word	sixtop_vars
 605              		.cfi_endproc
 606              	.LFE4:
 608              		.align	2
 609              		.global	sixtop_addORremoveCellByInfo
 610              		.thumb
 611              		.thumb_func
 613              	sixtop_addORremoveCellByInfo:
 614              	.LFB5:
 275:build/OpenMote-CC2538_armgcc/openstack/02b-MAChigh/sixtop.c **** 
 276:build/OpenMote-CC2538_armgcc/openstack/02b-MAChigh/sixtop.c **** void sixtop_addORremoveCellByInfo(uint8_t code,open_addr_t* neighbor,cellInfo_ht* cellInfo){
 615              		.loc 1 276 0
 616              		.cfi_startproc
 617              		@ args = 0, pretend = 0, frame = 40
 618              		@ frame_needed = 1, uses_anonymous_args = 0
 619 02c4 80B5     		push	{r7, lr}
 620              		.cfi_def_cfa_offset 8
 621              		.cfi_offset 7, -8
 622              		.cfi_offset 14, -4
 623 02c6 8AB0     		sub	sp, sp, #40
 624              		.cfi_def_cfa_offset 48
 625 02c8 00AF     		add	r7, sp, #0
 626              		.cfi_def_cfa_register 7
 627 02ca 0346     		mov	r3, r0
 628 02cc B960     		str	r1, [r7, #8]
 629 02ce 7A60     		str	r2, [r7, #4]
 630 02d0 FB73     		strb	r3, [r7, #15]
 277:build/OpenMote-CC2538_armgcc/openstack/02b-MAChigh/sixtop.c ****     OpenQueueEntry_t* pkt;
 278:build/OpenMote-CC2538_armgcc/openstack/02b-MAChigh/sixtop.c ****     uint8_t           len;
 279:build/OpenMote-CC2538_armgcc/openstack/02b-MAChigh/sixtop.c ****     uint8_t           frameID;
 280:build/OpenMote-CC2538_armgcc/openstack/02b-MAChigh/sixtop.c ****     uint8_t           container;
 281:build/OpenMote-CC2538_armgcc/openstack/02b-MAChigh/sixtop.c ****     cellInfo_ht       cellList[SCHEDULEIEMAXNUMCELLS];
 282:build/OpenMote-CC2538_armgcc/openstack/02b-MAChigh/sixtop.c ****    
 283:build/OpenMote-CC2538_armgcc/openstack/02b-MAChigh/sixtop.c ****     memset(cellList,0,sizeof(cellList));
 631              		.loc 1 283 0
 632 02d2 07F11003 		add	r3, r7, #16
 633 02d6 1846     		mov	r0, r3
 634 02d8 0021     		movs	r1, #0
 635 02da 0F22     		movs	r2, #15
 636 02dc FFF7FEFF 		bl	memset
 284:build/OpenMote-CC2538_armgcc/openstack/02b-MAChigh/sixtop.c ****    
 285:build/OpenMote-CC2538_armgcc/openstack/02b-MAChigh/sixtop.c ****     // filter parameters
 286:build/OpenMote-CC2538_armgcc/openstack/02b-MAChigh/sixtop.c ****     if (sixtop_vars.six2six_state!=SIX_IDLE){
 637              		.loc 1 286 0
 638 02e0 4C4B     		ldr	r3, .L47
 639 02e2 1B7B     		ldrb	r3, [r3, #12]	@ zero_extendqisi2
 640 02e4 002B     		cmp	r3, #0
 641 02e6 00D0     		beq	.L38
 287:build/OpenMote-CC2538_armgcc/openstack/02b-MAChigh/sixtop.c ****         return;
 642              		.loc 1 287 0
 643 02e8 91E0     		b	.L37
 644              	.L38:
 288:build/OpenMote-CC2538_armgcc/openstack/02b-MAChigh/sixtop.c ****     }
 289:build/OpenMote-CC2538_armgcc/openstack/02b-MAChigh/sixtop.c ****     if (neighbor==NULL){
 645              		.loc 1 289 0
 646 02ea BB68     		ldr	r3, [r7, #8]
 647 02ec 002B     		cmp	r3, #0
 648 02ee 00D1     		bne	.L40
 290:build/OpenMote-CC2538_armgcc/openstack/02b-MAChigh/sixtop.c ****         return;
 649              		.loc 1 290 0
 650 02f0 8DE0     		b	.L37
 651              	.L40:
 291:build/OpenMote-CC2538_armgcc/openstack/02b-MAChigh/sixtop.c ****     }
 292:build/OpenMote-CC2538_armgcc/openstack/02b-MAChigh/sixtop.c ****     if (sixtop_vars.handler == SIX_HANDLER_NONE) {
 652              		.loc 1 292 0
 653 02f2 484B     		ldr	r3, .L47
 654 02f4 9B7B     		ldrb	r3, [r3, #14]	@ zero_extendqisi2
 655 02f6 002B     		cmp	r3, #0
 656 02f8 00D1     		bne	.L41
 293:build/OpenMote-CC2538_armgcc/openstack/02b-MAChigh/sixtop.c ****         // sixtop handler must not be NONE
 294:build/OpenMote-CC2538_armgcc/openstack/02b-MAChigh/sixtop.c ****         return;
 657              		.loc 1 294 0
 658 02fa 88E0     		b	.L37
 659              	.L41:
 295:build/OpenMote-CC2538_armgcc/openstack/02b-MAChigh/sixtop.c ****     }
 296:build/OpenMote-CC2538_armgcc/openstack/02b-MAChigh/sixtop.c ****    
 297:build/OpenMote-CC2538_armgcc/openstack/02b-MAChigh/sixtop.c ****     // set cell list (only first one is to be removed)
 298:build/OpenMote-CC2538_armgcc/openstack/02b-MAChigh/sixtop.c ****     frameID        = SCHEDULE_MINIMAL_6TISCH_DEFAULT_SLOTFRAME_HANDLE;
 660              		.loc 1 298 0
 661 02fc 0123     		movs	r3, #1
 662 02fe 87F82730 		strb	r3, [r7, #39]
 299:build/OpenMote-CC2538_armgcc/openstack/02b-MAChigh/sixtop.c ****     container      = frameID;
 663              		.loc 1 299 0
 664 0302 97F82730 		ldrb	r3, [r7, #39]
 665 0306 87F82630 		strb	r3, [r7, #38]
 300:build/OpenMote-CC2538_armgcc/openstack/02b-MAChigh/sixtop.c ****     memcpy(&(cellList[0]),cellInfo,sizeof(cellList));
 666              		.loc 1 300 0
 667 030a 07F11003 		add	r3, r7, #16
 668 030e 1846     		mov	r0, r3
 669 0310 7968     		ldr	r1, [r7, #4]
 670 0312 0F22     		movs	r2, #15
 671 0314 FFF7FEFF 		bl	memcpy
 301:build/OpenMote-CC2538_armgcc/openstack/02b-MAChigh/sixtop.c ****    
 302:build/OpenMote-CC2538_armgcc/openstack/02b-MAChigh/sixtop.c ****    
 303:build/OpenMote-CC2538_armgcc/openstack/02b-MAChigh/sixtop.c ****     // get a free packet buffer
 304:build/OpenMote-CC2538_armgcc/openstack/02b-MAChigh/sixtop.c ****     pkt = openqueue_getFreePacketBuffer(COMPONENT_SIXTOP_RES);
 672              		.loc 1 304 0
 673 0318 0F20     		movs	r0, #15
 674 031a FFF7FEFF 		bl	openqueue_getFreePacketBuffer
 675 031e 3862     		str	r0, [r7, #32]
 305:build/OpenMote-CC2538_armgcc/openstack/02b-MAChigh/sixtop.c ****     if(pkt==NULL) {
 676              		.loc 1 305 0
 677 0320 3B6A     		ldr	r3, [r7, #32]
 678 0322 002B     		cmp	r3, #0
 679 0324 06D1     		bne	.L42
 306:build/OpenMote-CC2538_armgcc/openstack/02b-MAChigh/sixtop.c ****         openserial_printError(
 680              		.loc 1 306 0
 681 0326 0F20     		movs	r0, #15
 682 0328 2C21     		movs	r1, #44
 683 032a 0022     		movs	r2, #0
 684 032c 0023     		movs	r3, #0
 685 032e FFF7FEFF 		bl	openserial_printError
 307:build/OpenMote-CC2538_armgcc/openstack/02b-MAChigh/sixtop.c ****             COMPONENT_SIXTOP_RES,
 308:build/OpenMote-CC2538_armgcc/openstack/02b-MAChigh/sixtop.c ****             ERR_NO_FREE_PACKET_BUFFER,
 309:build/OpenMote-CC2538_armgcc/openstack/02b-MAChigh/sixtop.c ****             (errorparameter_t)0,
 310:build/OpenMote-CC2538_armgcc/openstack/02b-MAChigh/sixtop.c ****             (errorparameter_t)0
 311:build/OpenMote-CC2538_armgcc/openstack/02b-MAChigh/sixtop.c ****         );
 312:build/OpenMote-CC2538_armgcc/openstack/02b-MAChigh/sixtop.c ****         return;
 686              		.loc 1 312 0
 687 0332 6CE0     		b	.L37
 688              	.L42:
 313:build/OpenMote-CC2538_armgcc/openstack/02b-MAChigh/sixtop.c ****     }
 314:build/OpenMote-CC2538_armgcc/openstack/02b-MAChigh/sixtop.c ****    
 315:build/OpenMote-CC2538_armgcc/openstack/02b-MAChigh/sixtop.c ****     // update state
 316:build/OpenMote-CC2538_armgcc/openstack/02b-MAChigh/sixtop.c ****     sixtop_vars.six2six_state = SIX_SENDING_REQUEST;
 689              		.loc 1 316 0
 690 0334 374B     		ldr	r3, .L47
 691 0336 0122     		movs	r2, #1
 692 0338 1A73     		strb	r2, [r3, #12]
 317:build/OpenMote-CC2538_armgcc/openstack/02b-MAChigh/sixtop.c ****    
 318:build/OpenMote-CC2538_armgcc/openstack/02b-MAChigh/sixtop.c ****     // declare ownership over that packet
 319:build/OpenMote-CC2538_armgcc/openstack/02b-MAChigh/sixtop.c ****     pkt->creator = COMPONENT_SIXTOP_RES;
 693              		.loc 1 319 0
 694 033a 3B6A     		ldr	r3, [r7, #32]
 695 033c 0F22     		movs	r2, #15
 696 033e 1A70     		strb	r2, [r3]
 320:build/OpenMote-CC2538_armgcc/openstack/02b-MAChigh/sixtop.c ****     pkt->owner   = COMPONENT_SIXTOP_RES;
 697              		.loc 1 320 0
 698 0340 3B6A     		ldr	r3, [r7, #32]
 699 0342 0F22     		movs	r2, #15
 700 0344 5A70     		strb	r2, [r3, #1]
 321:build/OpenMote-CC2538_armgcc/openstack/02b-MAChigh/sixtop.c ****       
 322:build/OpenMote-CC2538_armgcc/openstack/02b-MAChigh/sixtop.c ****     memcpy(&(pkt->l2_nextORpreviousHop),neighbor,sizeof(open_addr_t));
 701              		.loc 1 322 0
 702 0346 3B6A     		ldr	r3, [r7, #32]
 703 0348 3833     		adds	r3, r3, #56
 704 034a 1846     		mov	r0, r3
 705 034c B968     		ldr	r1, [r7, #8]
 706 034e 1122     		movs	r2, #17
 707 0350 FFF7FEFF 		bl	memcpy
 323:build/OpenMote-CC2538_armgcc/openstack/02b-MAChigh/sixtop.c ****     
 324:build/OpenMote-CC2538_armgcc/openstack/02b-MAChigh/sixtop.c ****     len  = 0;
 708              		.loc 1 324 0
 709 0354 0023     		movs	r3, #0
 710 0356 FB77     		strb	r3, [r7, #31]
 325:build/OpenMote-CC2538_armgcc/openstack/02b-MAChigh/sixtop.c ****     len += processIE_prepend_sixCelllist(pkt,cellList);
 711              		.loc 1 325 0
 712 0358 07F11003 		add	r3, r7, #16
 713 035c 386A     		ldr	r0, [r7, #32]
 714 035e 1946     		mov	r1, r3
 715 0360 FFF7FEFF 		bl	processIE_prepend_sixCelllist
 716 0364 0346     		mov	r3, r0
 717 0366 1A46     		mov	r2, r3
 718 0368 FB7F     		ldrb	r3, [r7, #31]
 719 036a 1344     		add	r3, r3, r2
 720 036c FB77     		strb	r3, [r7, #31]
 326:build/OpenMote-CC2538_armgcc/openstack/02b-MAChigh/sixtop.c ****     // reserve space for container
 327:build/OpenMote-CC2538_armgcc/openstack/02b-MAChigh/sixtop.c ****     packetfunctions_reserveHeaderSize(pkt,sizeof(uint8_t));
 721              		.loc 1 327 0
 722 036e 386A     		ldr	r0, [r7, #32]
 723 0370 0121     		movs	r1, #1
 724 0372 FFF7FEFF 		bl	packetfunctions_reserveHeaderSize
 328:build/OpenMote-CC2538_armgcc/openstack/02b-MAChigh/sixtop.c ****     // write header
 329:build/OpenMote-CC2538_armgcc/openstack/02b-MAChigh/sixtop.c ****     *((uint8_t*)(pkt->payload)) = container;
 725              		.loc 1 329 0
 726 0376 3B6A     		ldr	r3, [r7, #32]
 727 0378 5B68     		ldr	r3, [r3, #4]
 728 037a 97F82620 		ldrb	r2, [r7, #38]
 729 037e 1A70     		strb	r2, [r3]
 330:build/OpenMote-CC2538_armgcc/openstack/02b-MAChigh/sixtop.c ****     len+=1;
 730              		.loc 1 330 0
 731 0380 FB7F     		ldrb	r3, [r7, #31]
 732 0382 0133     		adds	r3, r3, #1
 733 0384 FB77     		strb	r3, [r7, #31]
 331:build/OpenMote-CC2538_armgcc/openstack/02b-MAChigh/sixtop.c ****     // reserve space for numCells
 332:build/OpenMote-CC2538_armgcc/openstack/02b-MAChigh/sixtop.c ****     packetfunctions_reserveHeaderSize(pkt,sizeof(uint8_t));
 734              		.loc 1 332 0
 735 0386 386A     		ldr	r0, [r7, #32]
 736 0388 0121     		movs	r1, #1
 737 038a FFF7FEFF 		bl	packetfunctions_reserveHeaderSize
 333:build/OpenMote-CC2538_armgcc/openstack/02b-MAChigh/sixtop.c ****     // write header
 334:build/OpenMote-CC2538_armgcc/openstack/02b-MAChigh/sixtop.c ****     *((uint8_t*)(pkt->payload)) = 1;
 738              		.loc 1 334 0
 739 038e 3B6A     		ldr	r3, [r7, #32]
 740 0390 5B68     		ldr	r3, [r3, #4]
 741 0392 0122     		movs	r2, #1
 742 0394 1A70     		strb	r2, [r3]
 335:build/OpenMote-CC2538_armgcc/openstack/02b-MAChigh/sixtop.c ****     len+=1;
 743              		.loc 1 335 0
 744 0396 FB7F     		ldrb	r3, [r7, #31]
 745 0398 0133     		adds	r3, r3, #1
 746 039a FB77     		strb	r3, [r7, #31]
 336:build/OpenMote-CC2538_armgcc/openstack/02b-MAChigh/sixtop.c ****     
 337:build/OpenMote-CC2538_armgcc/openstack/02b-MAChigh/sixtop.c ****     len += processIE_prepend_sixGeneralMessage(pkt,code);
 747              		.loc 1 337 0
 748 039c FB7B     		ldrb	r3, [r7, #15]	@ zero_extendqisi2
 749 039e 386A     		ldr	r0, [r7, #32]
 750 03a0 1946     		mov	r1, r3
 751 03a2 FFF7FEFF 		bl	processIE_prepend_sixGeneralMessage
 752 03a6 0346     		mov	r3, r0
 753 03a8 1A46     		mov	r2, r3
 754 03aa FB7F     		ldrb	r3, [r7, #31]
 755 03ac 1344     		add	r3, r3, r2
 756 03ae FB77     		strb	r3, [r7, #31]
 338:build/OpenMote-CC2538_armgcc/openstack/02b-MAChigh/sixtop.c ****     len += processIE_prepend_sixSubID(pkt);
 757              		.loc 1 338 0
 758 03b0 386A     		ldr	r0, [r7, #32]
 759 03b2 FFF7FEFF 		bl	processIE_prepend_sixSubID
 760 03b6 0346     		mov	r3, r0
 761 03b8 1A46     		mov	r2, r3
 762 03ba FB7F     		ldrb	r3, [r7, #31]
 763 03bc 1344     		add	r3, r3, r2
 764 03be FB77     		strb	r3, [r7, #31]
 339:build/OpenMote-CC2538_armgcc/openstack/02b-MAChigh/sixtop.c ****     processIE_prepend_sixtopIE(pkt,len);
 765              		.loc 1 339 0
 766 03c0 FB7F     		ldrb	r3, [r7, #31]	@ zero_extendqisi2
 767 03c2 386A     		ldr	r0, [r7, #32]
 768 03c4 1946     		mov	r1, r3
 769 03c6 FFF7FEFF 		bl	processIE_prepend_sixtopIE
 340:build/OpenMote-CC2538_armgcc/openstack/02b-MAChigh/sixtop.c ****    
 341:build/OpenMote-CC2538_armgcc/openstack/02b-MAChigh/sixtop.c ****     // indicate IEs present
 342:build/OpenMote-CC2538_armgcc/openstack/02b-MAChigh/sixtop.c ****     pkt->l2_payloadIEpresent = TRUE;
 770              		.loc 1 342 0
 771 03ca 3B6A     		ldr	r3, [r7, #32]
 772 03cc 0122     		movs	r2, #1
 773 03ce 83F86620 		strb	r2, [r3, #102]
 343:build/OpenMote-CC2538_armgcc/openstack/02b-MAChigh/sixtop.c ****    
 344:build/OpenMote-CC2538_armgcc/openstack/02b-MAChigh/sixtop.c ****     // send packet
 345:build/OpenMote-CC2538_armgcc/openstack/02b-MAChigh/sixtop.c ****     sixtop_send(pkt);
 774              		.loc 1 345 0
 775 03d2 386A     		ldr	r0, [r7, #32]
 776 03d4 FFF7FEFF 		bl	sixtop_send
 346:build/OpenMote-CC2538_armgcc/openstack/02b-MAChigh/sixtop.c ****    
 347:build/OpenMote-CC2538_armgcc/openstack/02b-MAChigh/sixtop.c ****     //update states
 348:build/OpenMote-CC2538_armgcc/openstack/02b-MAChigh/sixtop.c ****     switch(code){
 777              		.loc 1 348 0
 778 03d8 FB7B     		ldrb	r3, [r7, #15]	@ zero_extendqisi2
 779 03da 012B     		cmp	r3, #1
 780 03dc 02D0     		beq	.L44
 781 03de 022B     		cmp	r3, #2
 782 03e0 04D0     		beq	.L45
 783 03e2 07E0     		b	.L43
 784              	.L44:
 349:build/OpenMote-CC2538_armgcc/openstack/02b-MAChigh/sixtop.c ****     case IANA_6TOP_CMD_ADD:
 350:build/OpenMote-CC2538_armgcc/openstack/02b-MAChigh/sixtop.c ****         sixtop_vars.six2six_state = SIX_WAIT_ADDREQUEST_SENDDONE;
 785              		.loc 1 350 0
 786 03e4 0B4B     		ldr	r3, .L47
 787 03e6 0222     		movs	r2, #2
 788 03e8 1A73     		strb	r2, [r3, #12]
 351:build/OpenMote-CC2538_armgcc/openstack/02b-MAChigh/sixtop.c ****         break;
 789              		.loc 1 351 0
 790 03ea 03E0     		b	.L43
 791              	.L45:
 352:build/OpenMote-CC2538_armgcc/openstack/02b-MAChigh/sixtop.c ****     case IANA_6TOP_CMD_DELETE:
 353:build/OpenMote-CC2538_armgcc/openstack/02b-MAChigh/sixtop.c ****         sixtop_vars.six2six_state = SIX_WAIT_DELETEREQUEST_SENDDONE;
 792              		.loc 1 353 0
 793 03ec 094B     		ldr	r3, .L47
 794 03ee 0322     		movs	r2, #3
 795 03f0 1A73     		strb	r2, [r3, #12]
 354:build/OpenMote-CC2538_armgcc/openstack/02b-MAChigh/sixtop.c ****         break;
 796              		.loc 1 354 0
 797 03f2 00BF     		nop
 798              	.L43:
 355:build/OpenMote-CC2538_armgcc/openstack/02b-MAChigh/sixtop.c ****     }
 356:build/OpenMote-CC2538_armgcc/openstack/02b-MAChigh/sixtop.c ****    
 357:build/OpenMote-CC2538_armgcc/openstack/02b-MAChigh/sixtop.c ****    // arm timeout
 358:build/OpenMote-CC2538_armgcc/openstack/02b-MAChigh/sixtop.c ****    opentimers_setPeriod(
 799              		.loc 1 358 0
 800 03f4 074B     		ldr	r3, .L47
 801 03f6 DB79     		ldrb	r3, [r3, #7]	@ zero_extendqisi2
 802 03f8 1846     		mov	r0, r3
 803 03fa 0021     		movs	r1, #0
 804 03fc 4FF47A62 		mov	r2, #4000
 805 0400 FFF7FEFF 		bl	opentimers_setPeriod
 359:build/OpenMote-CC2538_armgcc/openstack/02b-MAChigh/sixtop.c ****       sixtop_vars.timeoutTimerId,
 360:build/OpenMote-CC2538_armgcc/openstack/02b-MAChigh/sixtop.c ****       TIME_MS,
 361:build/OpenMote-CC2538_armgcc/openstack/02b-MAChigh/sixtop.c ****       SIX2SIX_TIMEOUT_MS
 362:build/OpenMote-CC2538_armgcc/openstack/02b-MAChigh/sixtop.c ****    );
 363:build/OpenMote-CC2538_armgcc/openstack/02b-MAChigh/sixtop.c ****    opentimers_restart(sixtop_vars.timeoutTimerId);
 806              		.loc 1 363 0
 807 0404 034B     		ldr	r3, .L47
 808 0406 DB79     		ldrb	r3, [r3, #7]	@ zero_extendqisi2
 809 0408 1846     		mov	r0, r3
 810 040a FFF7FEFF 		bl	opentimers_restart
 811              	.L37:
 364:build/OpenMote-CC2538_armgcc/openstack/02b-MAChigh/sixtop.c **** }
 812              		.loc 1 364 0
 813 040e 2837     		adds	r7, r7, #40
 814              		.cfi_def_cfa_offset 8
 815 0410 BD46     		mov	sp, r7
 816              		.cfi_def_cfa_register 13
 817              		@ sp needed
 818 0412 80BD     		pop	{r7, pc}
 819              	.L48:
 820              		.align	2
 821              	.L47:
 822 0414 00000000 		.word	sixtop_vars
 823              		.cfi_endproc
 824              	.LFE5:
 826              		.align	2
 827              		.global	sixtop_maintaining
 828              		.thumb
 829              		.thumb_func
 831              	sixtop_maintaining:
 832              	.LFB6:
 365:build/OpenMote-CC2538_armgcc/openstack/02b-MAChigh/sixtop.c **** 
 366:build/OpenMote-CC2538_armgcc/openstack/02b-MAChigh/sixtop.c **** //======= maintaning 
 367:build/OpenMote-CC2538_armgcc/openstack/02b-MAChigh/sixtop.c **** void sixtop_maintaining(uint16_t slotOffset,open_addr_t* neighbor){
 833              		.loc 1 367 0
 834              		.cfi_startproc
 835              		@ args = 0, pretend = 0, frame = 32
 836              		@ frame_needed = 1, uses_anonymous_args = 0
 837 0418 80B5     		push	{r7, lr}
 838              		.cfi_def_cfa_offset 8
 839              		.cfi_offset 7, -8
 840              		.cfi_offset 14, -4
 841 041a 88B0     		sub	sp, sp, #32
 842              		.cfi_def_cfa_offset 40
 843 041c 00AF     		add	r7, sp, #0
 844              		.cfi_def_cfa_register 7
 845 041e 0346     		mov	r3, r0
 846 0420 3960     		str	r1, [r7]
 847 0422 FB80     		strh	r3, [r7, #6]	@ movhi
 368:build/OpenMote-CC2538_armgcc/openstack/02b-MAChigh/sixtop.c ****     slotinfo_element_t info;
 369:build/OpenMote-CC2538_armgcc/openstack/02b-MAChigh/sixtop.c ****     cellInfo_ht linkInfo;
 370:build/OpenMote-CC2538_armgcc/openstack/02b-MAChigh/sixtop.c ****     schedule_getSlotInfo(slotOffset,neighbor,&info);
 848              		.loc 1 370 0
 849 0424 FA88     		ldrh	r2, [r7, #6]
 850 0426 07F11003 		add	r3, r7, #16
 851 042a 1046     		mov	r0, r2
 852 042c 3968     		ldr	r1, [r7]
 853 042e 1A46     		mov	r2, r3
 854 0430 FFF7FEFF 		bl	schedule_getSlotInfo
 371:build/OpenMote-CC2538_armgcc/openstack/02b-MAChigh/sixtop.c ****     if(info.link_type != CELLTYPE_OFF){
 855              		.loc 1 371 0
 856 0434 3B7E     		ldrb	r3, [r7, #24]	@ zero_extendqisi2
 857 0436 002B     		cmp	r3, #0
 858 0438 10D0     		beq	.L49
 372:build/OpenMote-CC2538_armgcc/openstack/02b-MAChigh/sixtop.c ****         linkInfo.tsNum       = slotOffset;
 859              		.loc 1 372 0
 860 043a FB88     		ldrh	r3, [r7, #6]	@ movhi
 861 043c 3B81     		strh	r3, [r7, #8]	@ movhi
 373:build/OpenMote-CC2538_armgcc/openstack/02b-MAChigh/sixtop.c ****         linkInfo.choffset    = info.channelOffset;
 862              		.loc 1 373 0
 863 043e 3B7F     		ldrb	r3, [r7, #28]	@ zero_extendqisi2
 864 0440 9BB2     		uxth	r3, r3
 865 0442 7B81     		strh	r3, [r7, #10]	@ movhi
 374:build/OpenMote-CC2538_armgcc/openstack/02b-MAChigh/sixtop.c ****         linkInfo.linkoptions = info.link_type;
 866              		.loc 1 374 0
 867 0444 3B7E     		ldrb	r3, [r7, #24]	@ zero_extendqisi2
 868 0446 3B73     		strb	r3, [r7, #12]
 375:build/OpenMote-CC2538_armgcc/openstack/02b-MAChigh/sixtop.c ****         sixtop_vars.handler  = SIX_HANDLER_MAINTAIN;
 869              		.loc 1 375 0
 870 0448 064B     		ldr	r3, .L52
 871 044a 0122     		movs	r2, #1
 872 044c 9A73     		strb	r2, [r3, #14]
 376:build/OpenMote-CC2538_armgcc/openstack/02b-MAChigh/sixtop.c ****         sixtop_addORremoveCellByInfo(IANA_6TOP_CMD_DELETE,neighbor, &linkInfo);
 873              		.loc 1 376 0
 874 044e 07F10803 		add	r3, r7, #8
 875 0452 0220     		movs	r0, #2
 876 0454 3968     		ldr	r1, [r7]
 877 0456 1A46     		mov	r2, r3
 878 0458 FFF7FEFF 		bl	sixtop_addORremoveCellByInfo
 879              	.L49:
 377:build/OpenMote-CC2538_armgcc/openstack/02b-MAChigh/sixtop.c ****     } else {
 378:build/OpenMote-CC2538_armgcc/openstack/02b-MAChigh/sixtop.c ****         //should log this error
 379:build/OpenMote-CC2538_armgcc/openstack/02b-MAChigh/sixtop.c ****         
 380:build/OpenMote-CC2538_armgcc/openstack/02b-MAChigh/sixtop.c ****         return;
 381:build/OpenMote-CC2538_armgcc/openstack/02b-MAChigh/sixtop.c ****     }
 382:build/OpenMote-CC2538_armgcc/openstack/02b-MAChigh/sixtop.c **** }
 880              		.loc 1 382 0
 881 045c 2037     		adds	r7, r7, #32
 882              		.cfi_def_cfa_offset 8
 883 045e BD46     		mov	sp, r7
 884              		.cfi_def_cfa_register 13
 885              		@ sp needed
 886 0460 80BD     		pop	{r7, pc}
 887              	.L53:
 888 0462 00BF     		.align	2
 889              	.L52:
 890 0464 00000000 		.word	sixtop_vars
 891              		.cfi_endproc
 892              	.LFE6:
 894              		.align	2
 895              		.global	sixtop_send
 896              		.thumb
 897              		.thumb_func
 899              	sixtop_send:
 900              	.LFB7:
 383:build/OpenMote-CC2538_armgcc/openstack/02b-MAChigh/sixtop.c **** 
 384:build/OpenMote-CC2538_armgcc/openstack/02b-MAChigh/sixtop.c **** //======= from upper layer
 385:build/OpenMote-CC2538_armgcc/openstack/02b-MAChigh/sixtop.c **** 
 386:build/OpenMote-CC2538_armgcc/openstack/02b-MAChigh/sixtop.c **** owerror_t sixtop_send(OpenQueueEntry_t *msg) {
 901              		.loc 1 386 0
 902              		.cfi_startproc
 903              		@ args = 0, pretend = 0, frame = 8
 904              		@ frame_needed = 1, uses_anonymous_args = 0
 905 0468 80B5     		push	{r7, lr}
 906              		.cfi_def_cfa_offset 8
 907              		.cfi_offset 7, -8
 908              		.cfi_offset 14, -4
 909 046a 82B0     		sub	sp, sp, #8
 910              		.cfi_def_cfa_offset 16
 911 046c 00AF     		add	r7, sp, #0
 912              		.cfi_def_cfa_register 7
 913 046e 7860     		str	r0, [r7, #4]
 387:build/OpenMote-CC2538_armgcc/openstack/02b-MAChigh/sixtop.c ****    
 388:build/OpenMote-CC2538_armgcc/openstack/02b-MAChigh/sixtop.c ****    // set metadata
 389:build/OpenMote-CC2538_armgcc/openstack/02b-MAChigh/sixtop.c ****    msg->owner        = COMPONENT_SIXTOP;
 914              		.loc 1 389 0
 915 0470 7B68     		ldr	r3, [r7, #4]
 916 0472 0C22     		movs	r2, #12
 917 0474 5A70     		strb	r2, [r3, #1]
 390:build/OpenMote-CC2538_armgcc/openstack/02b-MAChigh/sixtop.c ****    msg->l2_frameType = IEEE154_TYPE_DATA;
 918              		.loc 1 390 0
 919 0476 7B68     		ldr	r3, [r7, #4]
 920 0478 0122     		movs	r2, #1
 921 047a 83F84920 		strb	r2, [r3, #73]
 391:build/OpenMote-CC2538_armgcc/openstack/02b-MAChigh/sixtop.c **** 
 392:build/OpenMote-CC2538_armgcc/openstack/02b-MAChigh/sixtop.c **** 
 393:build/OpenMote-CC2538_armgcc/openstack/02b-MAChigh/sixtop.c ****    // set l2-security attributes
 394:build/OpenMote-CC2538_armgcc/openstack/02b-MAChigh/sixtop.c ****    msg->l2_securityLevel   = IEEE802154_SECURITY_LEVEL;
 922              		.loc 1 394 0
 923 047e 7B68     		ldr	r3, [r7, #4]
 924 0480 0022     		movs	r2, #0
 925 0482 83F86A20 		strb	r2, [r3, #106]
 395:build/OpenMote-CC2538_armgcc/openstack/02b-MAChigh/sixtop.c ****    msg->l2_keyIdMode       = IEEE802154_SECURITY_KEYIDMODE; 
 926              		.loc 1 395 0
 927 0486 7B68     		ldr	r3, [r7, #4]
 928 0488 0022     		movs	r2, #0
 929 048a 83F86B20 		strb	r2, [r3, #107]
 396:build/OpenMote-CC2538_armgcc/openstack/02b-MAChigh/sixtop.c ****    msg->l2_keyIndex        = IEEE802154_SECURITY_K2_KEY_INDEX;
 930              		.loc 1 396 0
 931 048e 7B68     		ldr	r3, [r7, #4]
 932 0490 0022     		movs	r2, #0
 933 0492 83F86C20 		strb	r2, [r3, #108]
 397:build/OpenMote-CC2538_armgcc/openstack/02b-MAChigh/sixtop.c **** 
 398:build/OpenMote-CC2538_armgcc/openstack/02b-MAChigh/sixtop.c ****    if (msg->l2_payloadIEpresent == FALSE) {
 934              		.loc 1 398 0
 935 0496 7B68     		ldr	r3, [r7, #4]
 936 0498 93F86630 		ldrb	r3, [r3, #102]	@ zero_extendqisi2
 937 049c 83F00103 		eor	r3, r3, #1
 938 04a0 DBB2     		uxtb	r3, r3
 939 04a2 002B     		cmp	r3, #0
 940 04a4 05D0     		beq	.L55
 399:build/OpenMote-CC2538_armgcc/openstack/02b-MAChigh/sixtop.c ****       return sixtop_send_internal(
 941              		.loc 1 399 0
 942 04a6 7868     		ldr	r0, [r7, #4]
 943 04a8 0021     		movs	r1, #0
 944 04aa FFF7FEFF 		bl	sixtop_send_internal
 945 04ae 0346     		mov	r3, r0
 946 04b0 04E0     		b	.L56
 947              	.L55:
 400:build/OpenMote-CC2538_armgcc/openstack/02b-MAChigh/sixtop.c ****          msg,
 401:build/OpenMote-CC2538_armgcc/openstack/02b-MAChigh/sixtop.c ****          FALSE
 402:build/OpenMote-CC2538_armgcc/openstack/02b-MAChigh/sixtop.c ****       );
 403:build/OpenMote-CC2538_armgcc/openstack/02b-MAChigh/sixtop.c ****    } else {
 404:build/OpenMote-CC2538_armgcc/openstack/02b-MAChigh/sixtop.c ****       return sixtop_send_internal(
 948              		.loc 1 404 0
 949 04b2 7868     		ldr	r0, [r7, #4]
 950 04b4 0121     		movs	r1, #1
 951 04b6 FFF7FEFF 		bl	sixtop_send_internal
 952 04ba 0346     		mov	r3, r0
 953              	.L56:
 405:build/OpenMote-CC2538_armgcc/openstack/02b-MAChigh/sixtop.c ****          msg,
 406:build/OpenMote-CC2538_armgcc/openstack/02b-MAChigh/sixtop.c ****          TRUE
 407:build/OpenMote-CC2538_armgcc/openstack/02b-MAChigh/sixtop.c ****       );
 408:build/OpenMote-CC2538_armgcc/openstack/02b-MAChigh/sixtop.c ****    }
 409:build/OpenMote-CC2538_armgcc/openstack/02b-MAChigh/sixtop.c **** }
 954              		.loc 1 409 0
 955 04bc 1846     		mov	r0, r3
 956 04be 0837     		adds	r7, r7, #8
 957              		.cfi_def_cfa_offset 8
 958 04c0 BD46     		mov	sp, r7
 959              		.cfi_def_cfa_register 13
 960              		@ sp needed
 961 04c2 80BD     		pop	{r7, pc}
 962              		.cfi_endproc
 963              	.LFE7:
 965              		.align	2
 966              		.global	task_sixtopNotifSendDone
 967              		.thumb
 968              		.thumb_func
 970              	task_sixtopNotifSendDone:
 971              	.LFB8:
 410:build/OpenMote-CC2538_armgcc/openstack/02b-MAChigh/sixtop.c **** 
 411:build/OpenMote-CC2538_armgcc/openstack/02b-MAChigh/sixtop.c **** //======= from lower layer
 412:build/OpenMote-CC2538_armgcc/openstack/02b-MAChigh/sixtop.c **** 
 413:build/OpenMote-CC2538_armgcc/openstack/02b-MAChigh/sixtop.c **** void task_sixtopNotifSendDone() {
 972              		.loc 1 413 0
 973              		.cfi_startproc
 974              		@ args = 0, pretend = 0, frame = 8
 975              		@ frame_needed = 1, uses_anonymous_args = 0
 976 04c4 80B5     		push	{r7, lr}
 977              		.cfi_def_cfa_offset 8
 978              		.cfi_offset 7, -8
 979              		.cfi_offset 14, -4
 980 04c6 82B0     		sub	sp, sp, #8
 981              		.cfi_def_cfa_offset 16
 982 04c8 00AF     		add	r7, sp, #0
 983              		.cfi_def_cfa_register 7
 414:build/OpenMote-CC2538_armgcc/openstack/02b-MAChigh/sixtop.c ****    OpenQueueEntry_t* msg;
 415:build/OpenMote-CC2538_armgcc/openstack/02b-MAChigh/sixtop.c ****    
 416:build/OpenMote-CC2538_armgcc/openstack/02b-MAChigh/sixtop.c ****    // get recently-sent packet from openqueue
 417:build/OpenMote-CC2538_armgcc/openstack/02b-MAChigh/sixtop.c ****    msg = openqueue_sixtopGetSentPacket();
 984              		.loc 1 417 0
 985 04ca FFF7FEFF 		bl	openqueue_sixtopGetSentPacket
 986 04ce 7860     		str	r0, [r7, #4]
 418:build/OpenMote-CC2538_armgcc/openstack/02b-MAChigh/sixtop.c ****    if (msg==NULL) {
 987              		.loc 1 418 0
 988 04d0 7B68     		ldr	r3, [r7, #4]
 989 04d2 002B     		cmp	r3, #0
 990 04d4 06D1     		bne	.L58
 419:build/OpenMote-CC2538_armgcc/openstack/02b-MAChigh/sixtop.c ****       openserial_printCritical(
 991              		.loc 1 419 0
 992 04d6 0C20     		movs	r0, #12
 993 04d8 1521     		movs	r1, #21
 994 04da 0022     		movs	r2, #0
 995 04dc 0023     		movs	r3, #0
 996 04de FFF7FEFF 		bl	openserial_printCritical
 420:build/OpenMote-CC2538_armgcc/openstack/02b-MAChigh/sixtop.c ****          COMPONENT_SIXTOP,
 421:build/OpenMote-CC2538_armgcc/openstack/02b-MAChigh/sixtop.c ****          ERR_NO_SENT_PACKET,
 422:build/OpenMote-CC2538_armgcc/openstack/02b-MAChigh/sixtop.c ****          (errorparameter_t)0,
 423:build/OpenMote-CC2538_armgcc/openstack/02b-MAChigh/sixtop.c ****          (errorparameter_t)0
 424:build/OpenMote-CC2538_armgcc/openstack/02b-MAChigh/sixtop.c ****       );
 425:build/OpenMote-CC2538_armgcc/openstack/02b-MAChigh/sixtop.c ****       return;
 997              		.loc 1 425 0
 998 04e2 5CE0     		b	.L57
 999              	.L58:
 426:build/OpenMote-CC2538_armgcc/openstack/02b-MAChigh/sixtop.c ****    }
 427:build/OpenMote-CC2538_armgcc/openstack/02b-MAChigh/sixtop.c ****    
 428:build/OpenMote-CC2538_armgcc/openstack/02b-MAChigh/sixtop.c ****    // take ownership
 429:build/OpenMote-CC2538_armgcc/openstack/02b-MAChigh/sixtop.c ****    msg->owner = COMPONENT_SIXTOP;
 1000              		.loc 1 429 0
 1001 04e4 7B68     		ldr	r3, [r7, #4]
 1002 04e6 0C22     		movs	r2, #12
 1003 04e8 5A70     		strb	r2, [r3, #1]
 430:build/OpenMote-CC2538_armgcc/openstack/02b-MAChigh/sixtop.c ****    
 431:build/OpenMote-CC2538_armgcc/openstack/02b-MAChigh/sixtop.c ****    // update neighbor statistics
 432:build/OpenMote-CC2538_armgcc/openstack/02b-MAChigh/sixtop.c ****    if (msg->l2_sendDoneError==E_SUCCESS) {
 1004              		.loc 1 432 0
 1005 04ea 7B68     		ldr	r3, [r7, #4]
 1006 04ec 93F83730 		ldrb	r3, [r3, #55]	@ zero_extendqisi2
 1007 04f0 002B     		cmp	r3, #0
 1008 04f2 0DD1     		bne	.L60
 433:build/OpenMote-CC2538_armgcc/openstack/02b-MAChigh/sixtop.c ****       neighbors_indicateTx(
 1009              		.loc 1 433 0
 1010 04f4 7B68     		ldr	r3, [r7, #4]
 1011 04f6 03F13801 		add	r1, r3, #56
 1012 04fa 7B68     		ldr	r3, [r7, #4]
 1013 04fc 93F84C20 		ldrb	r2, [r3, #76]	@ zero_extendqisi2
 1014 0500 7B68     		ldr	r3, [r7, #4]
 1015 0502 4D33     		adds	r3, r3, #77
 1016 0504 0846     		mov	r0, r1
 1017 0506 1146     		mov	r1, r2
 1018 0508 0122     		movs	r2, #1
 1019 050a FFF7FEFF 		bl	neighbors_indicateTx
 1020 050e 0CE0     		b	.L61
 1021              	.L60:
 434:build/OpenMote-CC2538_armgcc/openstack/02b-MAChigh/sixtop.c ****          &(msg->l2_nextORpreviousHop),
 435:build/OpenMote-CC2538_armgcc/openstack/02b-MAChigh/sixtop.c ****          msg->l2_numTxAttempts,
 436:build/OpenMote-CC2538_armgcc/openstack/02b-MAChigh/sixtop.c ****          TRUE,
 437:build/OpenMote-CC2538_armgcc/openstack/02b-MAChigh/sixtop.c ****          &msg->l2_asn
 438:build/OpenMote-CC2538_armgcc/openstack/02b-MAChigh/sixtop.c ****       );
 439:build/OpenMote-CC2538_armgcc/openstack/02b-MAChigh/sixtop.c ****    } else {
 440:build/OpenMote-CC2538_armgcc/openstack/02b-MAChigh/sixtop.c ****       neighbors_indicateTx(
 1022              		.loc 1 440 0
 1023 0510 7B68     		ldr	r3, [r7, #4]
 1024 0512 03F13801 		add	r1, r3, #56
 1025 0516 7B68     		ldr	r3, [r7, #4]
 1026 0518 93F84C20 		ldrb	r2, [r3, #76]	@ zero_extendqisi2
 1027 051c 7B68     		ldr	r3, [r7, #4]
 1028 051e 4D33     		adds	r3, r3, #77
 1029 0520 0846     		mov	r0, r1
 1030 0522 1146     		mov	r1, r2
 1031 0524 0022     		movs	r2, #0
 1032 0526 FFF7FEFF 		bl	neighbors_indicateTx
 1033              	.L61:
 441:build/OpenMote-CC2538_armgcc/openstack/02b-MAChigh/sixtop.c ****          &(msg->l2_nextORpreviousHop),
 442:build/OpenMote-CC2538_armgcc/openstack/02b-MAChigh/sixtop.c ****          msg->l2_numTxAttempts,
 443:build/OpenMote-CC2538_armgcc/openstack/02b-MAChigh/sixtop.c ****          FALSE,
 444:build/OpenMote-CC2538_armgcc/openstack/02b-MAChigh/sixtop.c ****          &msg->l2_asn
 445:build/OpenMote-CC2538_armgcc/openstack/02b-MAChigh/sixtop.c ****       );
 446:build/OpenMote-CC2538_armgcc/openstack/02b-MAChigh/sixtop.c ****    }
 447:build/OpenMote-CC2538_armgcc/openstack/02b-MAChigh/sixtop.c ****    
 448:build/OpenMote-CC2538_armgcc/openstack/02b-MAChigh/sixtop.c ****    // send the packet to where it belongs
 449:build/OpenMote-CC2538_armgcc/openstack/02b-MAChigh/sixtop.c ****    switch (msg->creator) {
 1034              		.loc 1 449 0
 1035 052a 7B68     		ldr	r3, [r7, #4]
 1036 052c 1B78     		ldrb	r3, [r3]	@ zero_extendqisi2
 1037 052e 0C2B     		cmp	r3, #12
 1038 0530 02D0     		beq	.L63
 1039 0532 0F2B     		cmp	r3, #15
 1040 0534 23D0     		beq	.L64
 1041 0536 2AE0     		b	.L67
 1042              	.L63:
 450:build/OpenMote-CC2538_armgcc/openstack/02b-MAChigh/sixtop.c ****       
 451:build/OpenMote-CC2538_armgcc/openstack/02b-MAChigh/sixtop.c ****       case COMPONENT_SIXTOP:
 452:build/OpenMote-CC2538_armgcc/openstack/02b-MAChigh/sixtop.c ****          if (msg->l2_frameType==IEEE154_TYPE_BEACON) {
 1043              		.loc 1 452 0
 1044 0538 7B68     		ldr	r3, [r7, #4]
 1045 053a 93F84930 		ldrb	r3, [r3, #73]	@ zero_extendqisi2
 1046 053e 002B     		cmp	r3, #0
 1047 0540 03D1     		bne	.L65
 453:build/OpenMote-CC2538_armgcc/openstack/02b-MAChigh/sixtop.c ****             // this is a EB
 454:build/OpenMote-CC2538_armgcc/openstack/02b-MAChigh/sixtop.c ****             
 455:build/OpenMote-CC2538_armgcc/openstack/02b-MAChigh/sixtop.c ****             // not busy sending EB anymore
 456:build/OpenMote-CC2538_armgcc/openstack/02b-MAChigh/sixtop.c ****             sixtop_vars.busySendingEB = FALSE;
 1048              		.loc 1 456 0
 1049 0542 184B     		ldr	r3, .L68
 1050 0544 0022     		movs	r2, #0
 1051 0546 DA70     		strb	r2, [r3, #3]
 1052 0548 02E0     		b	.L66
 1053              	.L65:
 457:build/OpenMote-CC2538_armgcc/openstack/02b-MAChigh/sixtop.c ****          } else {
 458:build/OpenMote-CC2538_armgcc/openstack/02b-MAChigh/sixtop.c ****             // this is a KA
 459:build/OpenMote-CC2538_armgcc/openstack/02b-MAChigh/sixtop.c ****             
 460:build/OpenMote-CC2538_armgcc/openstack/02b-MAChigh/sixtop.c ****             // not busy sending KA anymore
 461:build/OpenMote-CC2538_armgcc/openstack/02b-MAChigh/sixtop.c ****             sixtop_vars.busySendingKA = FALSE;
 1054              		.loc 1 461 0
 1055 054a 164B     		ldr	r3, .L68
 1056 054c 0022     		movs	r2, #0
 1057 054e 9A70     		strb	r2, [r3, #2]
 1058              	.L66:
 462:build/OpenMote-CC2538_armgcc/openstack/02b-MAChigh/sixtop.c ****          }
 463:build/OpenMote-CC2538_armgcc/openstack/02b-MAChigh/sixtop.c ****          // discard packets
 464:build/OpenMote-CC2538_armgcc/openstack/02b-MAChigh/sixtop.c ****          openqueue_freePacketBuffer(msg);
 1059              		.loc 1 464 0
 1060 0550 7868     		ldr	r0, [r7, #4]
 1061 0552 FFF7FEFF 		bl	openqueue_freePacketBuffer
 465:build/OpenMote-CC2538_armgcc/openstack/02b-MAChigh/sixtop.c ****          
 466:build/OpenMote-CC2538_armgcc/openstack/02b-MAChigh/sixtop.c ****          // restart a random timer
 467:build/OpenMote-CC2538_armgcc/openstack/02b-MAChigh/sixtop.c ****          sixtop_vars.periodMaintenance = 872+(openrandom_get16b()&0xff);
 1062              		.loc 1 467 0
 1063 0556 FFF7FEFF 		bl	openrandom_get16b
 1064 055a 0346     		mov	r3, r0
 1065 055c DBB2     		uxtb	r3, r3
 1066 055e 9BB2     		uxth	r3, r3
 1067 0560 03F55A73 		add	r3, r3, #872
 1068 0564 9AB2     		uxth	r2, r3
 1069 0566 0F4B     		ldr	r3, .L68
 1070 0568 1A80     		strh	r2, [r3]	@ movhi
 468:build/OpenMote-CC2538_armgcc/openstack/02b-MAChigh/sixtop.c ****          opentimers_setPeriod(
 1071              		.loc 1 468 0
 1072 056a 0E4B     		ldr	r3, .L68
 1073 056c 9A79     		ldrb	r2, [r3, #6]	@ zero_extendqisi2
 469:build/OpenMote-CC2538_armgcc/openstack/02b-MAChigh/sixtop.c ****             sixtop_vars.maintenanceTimerId,
 470:build/OpenMote-CC2538_armgcc/openstack/02b-MAChigh/sixtop.c ****             TIME_MS,
 471:build/OpenMote-CC2538_armgcc/openstack/02b-MAChigh/sixtop.c ****             sixtop_vars.periodMaintenance
 1074              		.loc 1 471 0
 1075 056e 0D4B     		ldr	r3, .L68
 1076 0570 1B88     		ldrh	r3, [r3]
 468:build/OpenMote-CC2538_armgcc/openstack/02b-MAChigh/sixtop.c ****          opentimers_setPeriod(
 1077              		.loc 1 468 0
 1078 0572 1046     		mov	r0, r2
 1079 0574 0021     		movs	r1, #0
 1080 0576 1A46     		mov	r2, r3
 1081 0578 FFF7FEFF 		bl	opentimers_setPeriod
 472:build/OpenMote-CC2538_armgcc/openstack/02b-MAChigh/sixtop.c ****          );
 473:build/OpenMote-CC2538_armgcc/openstack/02b-MAChigh/sixtop.c ****          break;
 1082              		.loc 1 473 0
 1083 057c 0FE0     		b	.L57
 1084              	.L64:
 474:build/OpenMote-CC2538_armgcc/openstack/02b-MAChigh/sixtop.c ****       
 475:build/OpenMote-CC2538_armgcc/openstack/02b-MAChigh/sixtop.c ****       case COMPONENT_SIXTOP_RES:
 476:build/OpenMote-CC2538_armgcc/openstack/02b-MAChigh/sixtop.c ****          sixtop_six2six_sendDone(msg,msg->l2_sendDoneError);
 1085              		.loc 1 476 0
 1086 057e 7B68     		ldr	r3, [r7, #4]
 1087 0580 93F83730 		ldrb	r3, [r3, #55]	@ zero_extendqisi2
 1088 0584 7868     		ldr	r0, [r7, #4]
 1089 0586 1946     		mov	r1, r3
 1090 0588 FFF7FEFF 		bl	sixtop_six2six_sendDone
 477:build/OpenMote-CC2538_armgcc/openstack/02b-MAChigh/sixtop.c ****          break;
 1091              		.loc 1 477 0
 1092 058c 07E0     		b	.L57
 1093              	.L67:
 478:build/OpenMote-CC2538_armgcc/openstack/02b-MAChigh/sixtop.c ****       
 479:build/OpenMote-CC2538_armgcc/openstack/02b-MAChigh/sixtop.c ****       default:
 480:build/OpenMote-CC2538_armgcc/openstack/02b-MAChigh/sixtop.c ****          // send the rest up the stack
 481:build/OpenMote-CC2538_armgcc/openstack/02b-MAChigh/sixtop.c ****          iphc_sendDone(msg,msg->l2_sendDoneError);
 1094              		.loc 1 481 0
 1095 058e 7B68     		ldr	r3, [r7, #4]
 1096 0590 93F83730 		ldrb	r3, [r3, #55]	@ zero_extendqisi2
 1097 0594 7868     		ldr	r0, [r7, #4]
 1098 0596 1946     		mov	r1, r3
 1099 0598 FFF7FEFF 		bl	iphc_sendDone
 482:build/OpenMote-CC2538_armgcc/openstack/02b-MAChigh/sixtop.c ****          break;
 1100              		.loc 1 482 0
 1101 059c 00BF     		nop
 1102              	.L57:
 483:build/OpenMote-CC2538_armgcc/openstack/02b-MAChigh/sixtop.c ****    }
 484:build/OpenMote-CC2538_armgcc/openstack/02b-MAChigh/sixtop.c **** }
 1103              		.loc 1 484 0
 1104 059e 0837     		adds	r7, r7, #8
 1105              		.cfi_def_cfa_offset 8
 1106 05a0 BD46     		mov	sp, r7
 1107              		.cfi_def_cfa_register 13
 1108              		@ sp needed
 1109 05a2 80BD     		pop	{r7, pc}
 1110              	.L69:
 1111              		.align	2
 1112              	.L68:
 1113 05a4 00000000 		.word	sixtop_vars
 1114              		.cfi_endproc
 1115              	.LFE8:
 1117              		.align	2
 1118              		.global	task_sixtopNotifReceive
 1119              		.thumb
 1120              		.thumb_func
 1122              	task_sixtopNotifReceive:
 1123              	.LFB9:
 485:build/OpenMote-CC2538_armgcc/openstack/02b-MAChigh/sixtop.c **** 
 486:build/OpenMote-CC2538_armgcc/openstack/02b-MAChigh/sixtop.c **** void task_sixtopNotifReceive() {
 1124              		.loc 1 486 0
 1125              		.cfi_startproc
 1126              		@ args = 0, pretend = 0, frame = 8
 1127              		@ frame_needed = 1, uses_anonymous_args = 0
 1128 05a8 90B5     		push	{r4, r7, lr}
 1129              		.cfi_def_cfa_offset 12
 1130              		.cfi_offset 4, -12
 1131              		.cfi_offset 7, -8
 1132              		.cfi_offset 14, -4
 1133 05aa 85B0     		sub	sp, sp, #20
 1134              		.cfi_def_cfa_offset 32
 1135 05ac 02AF     		add	r7, sp, #8
 1136              		.cfi_def_cfa 7, 24
 487:build/OpenMote-CC2538_armgcc/openstack/02b-MAChigh/sixtop.c ****     OpenQueueEntry_t* msg;
 488:build/OpenMote-CC2538_armgcc/openstack/02b-MAChigh/sixtop.c ****     uint16_t          lenIE;
 489:build/OpenMote-CC2538_armgcc/openstack/02b-MAChigh/sixtop.c ****     // get received packet from openqueue
 490:build/OpenMote-CC2538_armgcc/openstack/02b-MAChigh/sixtop.c ****     msg = openqueue_sixtopGetReceivedPacket();
 1137              		.loc 1 490 0
 1138 05ae FFF7FEFF 		bl	openqueue_sixtopGetReceivedPacket
 1139 05b2 7860     		str	r0, [r7, #4]
 491:build/OpenMote-CC2538_armgcc/openstack/02b-MAChigh/sixtop.c ****     if (msg==NULL) {
 1140              		.loc 1 491 0
 1141 05b4 7B68     		ldr	r3, [r7, #4]
 1142 05b6 002B     		cmp	r3, #0
 1143 05b8 06D1     		bne	.L71
 492:build/OpenMote-CC2538_armgcc/openstack/02b-MAChigh/sixtop.c ****         openserial_printCritical(
 1144              		.loc 1 492 0
 1145 05ba 0C20     		movs	r0, #12
 1146 05bc 1621     		movs	r1, #22
 1147 05be 0022     		movs	r2, #0
 1148 05c0 0023     		movs	r3, #0
 1149 05c2 FFF7FEFF 		bl	openserial_printCritical
 493:build/OpenMote-CC2538_armgcc/openstack/02b-MAChigh/sixtop.c ****             COMPONENT_SIXTOP,
 494:build/OpenMote-CC2538_armgcc/openstack/02b-MAChigh/sixtop.c ****             ERR_NO_RECEIVED_PACKET,
 495:build/OpenMote-CC2538_armgcc/openstack/02b-MAChigh/sixtop.c ****             (errorparameter_t)0,
 496:build/OpenMote-CC2538_armgcc/openstack/02b-MAChigh/sixtop.c ****             (errorparameter_t)0
 497:build/OpenMote-CC2538_armgcc/openstack/02b-MAChigh/sixtop.c ****         );
 498:build/OpenMote-CC2538_armgcc/openstack/02b-MAChigh/sixtop.c ****         return;
 1150              		.loc 1 498 0
 1151 05c6 5EE0     		b	.L70
 1152              	.L71:
 499:build/OpenMote-CC2538_armgcc/openstack/02b-MAChigh/sixtop.c ****     }
 500:build/OpenMote-CC2538_armgcc/openstack/02b-MAChigh/sixtop.c ****    
 501:build/OpenMote-CC2538_armgcc/openstack/02b-MAChigh/sixtop.c ****     // take ownership
 502:build/OpenMote-CC2538_armgcc/openstack/02b-MAChigh/sixtop.c ****     msg->owner = COMPONENT_SIXTOP;
 1153              		.loc 1 502 0
 1154 05c8 7B68     		ldr	r3, [r7, #4]
 1155 05ca 0C22     		movs	r2, #12
 1156 05cc 5A70     		strb	r2, [r3, #1]
 503:build/OpenMote-CC2538_armgcc/openstack/02b-MAChigh/sixtop.c ****    
 504:build/OpenMote-CC2538_armgcc/openstack/02b-MAChigh/sixtop.c ****     // process the header IEs
 505:build/OpenMote-CC2538_armgcc/openstack/02b-MAChigh/sixtop.c ****     lenIE=0;
 1157              		.loc 1 505 0
 1158 05ce 0023     		movs	r3, #0
 1159 05d0 7B80     		strh	r3, [r7, #2]	@ movhi
 506:build/OpenMote-CC2538_armgcc/openstack/02b-MAChigh/sixtop.c ****     if(
 507:build/OpenMote-CC2538_armgcc/openstack/02b-MAChigh/sixtop.c ****         msg->l2_frameType              == IEEE154_TYPE_DATA  &&
 1160              		.loc 1 507 0
 1161 05d2 7B68     		ldr	r3, [r7, #4]
 1162 05d4 93F84930 		ldrb	r3, [r3, #73]	@ zero_extendqisi2
 506:build/OpenMote-CC2538_armgcc/openstack/02b-MAChigh/sixtop.c ****     if(
 1163              		.loc 1 506 0
 1164 05d8 012B     		cmp	r3, #1
 1165 05da 13D1     		bne	.L73
 508:build/OpenMote-CC2538_armgcc/openstack/02b-MAChigh/sixtop.c ****         msg->l2_payloadIEpresent       == TRUE               &&
 1166              		.loc 1 508 0
 1167 05dc 7B68     		ldr	r3, [r7, #4]
 1168 05de 93F86630 		ldrb	r3, [r3, #102]	@ zero_extendqisi2
 507:build/OpenMote-CC2538_armgcc/openstack/02b-MAChigh/sixtop.c ****         msg->l2_payloadIEpresent       == TRUE               &&
 1169              		.loc 1 507 0
 1170 05e2 002B     		cmp	r3, #0
 1171 05e4 0ED0     		beq	.L73
 509:build/OpenMote-CC2538_armgcc/openstack/02b-MAChigh/sixtop.c ****         sixtop_processIEs(msg, &lenIE) == FALSE
 1172              		.loc 1 509 0
 1173 05e6 BB1C     		adds	r3, r7, #2
 1174 05e8 7868     		ldr	r0, [r7, #4]
 1175 05ea 1946     		mov	r1, r3
 1176 05ec FFF7FEFF 		bl	sixtop_processIEs
 1177 05f0 0346     		mov	r3, r0
 1178 05f2 83F00103 		eor	r3, r3, #1
 1179 05f6 DBB2     		uxtb	r3, r3
 508:build/OpenMote-CC2538_armgcc/openstack/02b-MAChigh/sixtop.c ****         msg->l2_payloadIEpresent       == TRUE               &&
 1180              		.loc 1 508 0
 1181 05f8 002B     		cmp	r3, #0
 1182 05fa 03D0     		beq	.L73
 510:build/OpenMote-CC2538_armgcc/openstack/02b-MAChigh/sixtop.c ****     ) {
 511:build/OpenMote-CC2538_armgcc/openstack/02b-MAChigh/sixtop.c ****         // free the packet's RAM memory
 512:build/OpenMote-CC2538_armgcc/openstack/02b-MAChigh/sixtop.c ****         openqueue_freePacketBuffer(msg);
 1183              		.loc 1 512 0
 1184 05fc 7868     		ldr	r0, [r7, #4]
 1185 05fe FFF7FEFF 		bl	openqueue_freePacketBuffer
 513:build/OpenMote-CC2538_armgcc/openstack/02b-MAChigh/sixtop.c ****         //log error
 514:build/OpenMote-CC2538_armgcc/openstack/02b-MAChigh/sixtop.c ****         return;
 1186              		.loc 1 514 0
 1187 0602 40E0     		b	.L70
 1188              	.L73:
 515:build/OpenMote-CC2538_armgcc/openstack/02b-MAChigh/sixtop.c ****     }
 516:build/OpenMote-CC2538_armgcc/openstack/02b-MAChigh/sixtop.c ****    
 517:build/OpenMote-CC2538_armgcc/openstack/02b-MAChigh/sixtop.c ****     // toss the header IEs
 518:build/OpenMote-CC2538_armgcc/openstack/02b-MAChigh/sixtop.c ****     packetfunctions_tossHeader(msg,lenIE);
 1189              		.loc 1 518 0
 1190 0604 7B88     		ldrh	r3, [r7, #2]
 1191 0606 DBB2     		uxtb	r3, r3
 1192 0608 7868     		ldr	r0, [r7, #4]
 1193 060a 1946     		mov	r1, r3
 1194 060c FFF7FEFF 		bl	packetfunctions_tossHeader
 519:build/OpenMote-CC2538_armgcc/openstack/02b-MAChigh/sixtop.c ****    
 520:build/OpenMote-CC2538_armgcc/openstack/02b-MAChigh/sixtop.c ****     // update neighbor statistics
 521:build/OpenMote-CC2538_armgcc/openstack/02b-MAChigh/sixtop.c ****     neighbors_indicateRx(
 1195              		.loc 1 521 0
 1196 0610 7B68     		ldr	r3, [r7, #4]
 1197 0612 03F13800 		add	r0, r3, #56
 1198 0616 7B68     		ldr	r3, [r7, #4]
 1199 0618 93F88510 		ldrb	r1, [r3, #133]	@ zero_extendqisi2
 1200 061c 7B68     		ldr	r3, [r7, #4]
 1201 061e 03F14D02 		add	r2, r3, #77
 1202 0622 7B68     		ldr	r3, [r7, #4]
 1203 0624 93F86740 		ldrb	r4, [r3, #103]	@ zero_extendqisi2
 1204 0628 7B68     		ldr	r3, [r7, #4]
 1205 062a 93F86430 		ldrb	r3, [r3, #100]	@ zero_extendqisi2
 1206 062e 49B2     		sxtb	r1, r1
 1207 0630 0093     		str	r3, [sp]
 1208 0632 2346     		mov	r3, r4
 1209 0634 FFF7FEFF 		bl	neighbors_indicateRx
 522:build/OpenMote-CC2538_armgcc/openstack/02b-MAChigh/sixtop.c ****         &(msg->l2_nextORpreviousHop),
 523:build/OpenMote-CC2538_armgcc/openstack/02b-MAChigh/sixtop.c ****         msg->l1_rssi,
 524:build/OpenMote-CC2538_armgcc/openstack/02b-MAChigh/sixtop.c ****         &msg->l2_asn,
 525:build/OpenMote-CC2538_armgcc/openstack/02b-MAChigh/sixtop.c ****         msg->l2_joinPriorityPresent,
 526:build/OpenMote-CC2538_armgcc/openstack/02b-MAChigh/sixtop.c ****         msg->l2_joinPriority
 527:build/OpenMote-CC2538_armgcc/openstack/02b-MAChigh/sixtop.c ****     );
 528:build/OpenMote-CC2538_armgcc/openstack/02b-MAChigh/sixtop.c ****    
 529:build/OpenMote-CC2538_armgcc/openstack/02b-MAChigh/sixtop.c ****     // reset it to avoid race conditions with this var.
 530:build/OpenMote-CC2538_armgcc/openstack/02b-MAChigh/sixtop.c ****     msg->l2_joinPriorityPresent = FALSE; 
 1210              		.loc 1 530 0
 1211 0638 7B68     		ldr	r3, [r7, #4]
 1212 063a 0022     		movs	r2, #0
 1213 063c 83F86720 		strb	r2, [r3, #103]
 531:build/OpenMote-CC2538_armgcc/openstack/02b-MAChigh/sixtop.c ****    
 532:build/OpenMote-CC2538_armgcc/openstack/02b-MAChigh/sixtop.c ****     // send the packet up the stack, if it qualifies
 533:build/OpenMote-CC2538_armgcc/openstack/02b-MAChigh/sixtop.c ****     switch (msg->l2_frameType) {
 1214              		.loc 1 533 0
 1215 0640 7B68     		ldr	r3, [r7, #4]
 1216 0642 93F84930 		ldrb	r3, [r3, #73]	@ zero_extendqisi2
 1217 0646 002B     		cmp	r3, #0
 1218 0648 0FDB     		blt	.L74
 1219 064a 012B     		cmp	r3, #1
 1220 064c 01DD     		ble	.L75
 1221 064e 032B     		cmp	r3, #3
 1222 0650 0BD1     		bne	.L74
 1223              	.L75:
 534:build/OpenMote-CC2538_armgcc/openstack/02b-MAChigh/sixtop.c ****     case IEEE154_TYPE_BEACON:
 535:build/OpenMote-CC2538_armgcc/openstack/02b-MAChigh/sixtop.c ****     case IEEE154_TYPE_DATA:
 536:build/OpenMote-CC2538_armgcc/openstack/02b-MAChigh/sixtop.c ****     case IEEE154_TYPE_CMD:
 537:build/OpenMote-CC2538_armgcc/openstack/02b-MAChigh/sixtop.c ****         if (msg->length>0) {
 1224              		.loc 1 537 0
 1225 0652 7B68     		ldr	r3, [r7, #4]
 1226 0654 1B7A     		ldrb	r3, [r3, #8]	@ zero_extendqisi2
 1227 0656 002B     		cmp	r3, #0
 1228 0658 03D0     		beq	.L76
 538:build/OpenMote-CC2538_armgcc/openstack/02b-MAChigh/sixtop.c ****             // send to upper layer
 539:build/OpenMote-CC2538_armgcc/openstack/02b-MAChigh/sixtop.c ****             iphc_receive(msg);
 1229              		.loc 1 539 0
 1230 065a 7868     		ldr	r0, [r7, #4]
 1231 065c FFF7FEFF 		bl	iphc_receive
 540:build/OpenMote-CC2538_armgcc/openstack/02b-MAChigh/sixtop.c ****         } else {
 541:build/OpenMote-CC2538_armgcc/openstack/02b-MAChigh/sixtop.c ****             // free up the RAM
 542:build/OpenMote-CC2538_armgcc/openstack/02b-MAChigh/sixtop.c ****             openqueue_freePacketBuffer(msg);
 543:build/OpenMote-CC2538_armgcc/openstack/02b-MAChigh/sixtop.c ****         }
 544:build/OpenMote-CC2538_armgcc/openstack/02b-MAChigh/sixtop.c ****             break;
 1232              		.loc 1 544 0
 1233 0660 11E0     		b	.L78
 1234              	.L76:
 542:build/OpenMote-CC2538_armgcc/openstack/02b-MAChigh/sixtop.c ****         }
 1235              		.loc 1 542 0
 1236 0662 7868     		ldr	r0, [r7, #4]
 1237 0664 FFF7FEFF 		bl	openqueue_freePacketBuffer
 1238              		.loc 1 544 0
 1239 0668 0DE0     		b	.L78
 1240              	.L74:
 545:build/OpenMote-CC2538_armgcc/openstack/02b-MAChigh/sixtop.c ****     case IEEE154_TYPE_ACK:
 546:build/OpenMote-CC2538_armgcc/openstack/02b-MAChigh/sixtop.c ****     default:
 547:build/OpenMote-CC2538_armgcc/openstack/02b-MAChigh/sixtop.c ****         // free the packet's RAM memory
 548:build/OpenMote-CC2538_armgcc/openstack/02b-MAChigh/sixtop.c ****         openqueue_freePacketBuffer(msg);
 1241              		.loc 1 548 0
 1242 066a 7868     		ldr	r0, [r7, #4]
 1243 066c FFF7FEFF 		bl	openqueue_freePacketBuffer
 549:build/OpenMote-CC2538_armgcc/openstack/02b-MAChigh/sixtop.c ****         // log the error
 550:build/OpenMote-CC2538_armgcc/openstack/02b-MAChigh/sixtop.c ****         openserial_printError(
 551:build/OpenMote-CC2538_armgcc/openstack/02b-MAChigh/sixtop.c ****             COMPONENT_SIXTOP,
 552:build/OpenMote-CC2538_armgcc/openstack/02b-MAChigh/sixtop.c ****             ERR_MSG_UNKNOWN_TYPE,
 553:build/OpenMote-CC2538_armgcc/openstack/02b-MAChigh/sixtop.c ****             (errorparameter_t)msg->l2_frameType,
 1244              		.loc 1 553 0
 1245 0670 7B68     		ldr	r3, [r7, #4]
 1246 0672 93F84930 		ldrb	r3, [r3, #73]	@ zero_extendqisi2
 550:build/OpenMote-CC2538_armgcc/openstack/02b-MAChigh/sixtop.c ****             COMPONENT_SIXTOP,
 1247              		.loc 1 550 0
 1248 0676 9BB2     		uxth	r3, r3
 1249 0678 0C20     		movs	r0, #12
 1250 067a 3021     		movs	r1, #48
 1251 067c 1A46     		mov	r2, r3
 1252 067e 0023     		movs	r3, #0
 1253 0680 FFF7FEFF 		bl	openserial_printError
 554:build/OpenMote-CC2538_armgcc/openstack/02b-MAChigh/sixtop.c ****             (errorparameter_t)0
 555:build/OpenMote-CC2538_armgcc/openstack/02b-MAChigh/sixtop.c ****         );
 556:build/OpenMote-CC2538_armgcc/openstack/02b-MAChigh/sixtop.c ****         break;
 1254              		.loc 1 556 0
 1255 0684 00BF     		nop
 1256              	.L78:
 1257              	.L70:
 557:build/OpenMote-CC2538_armgcc/openstack/02b-MAChigh/sixtop.c ****     }
 558:build/OpenMote-CC2538_armgcc/openstack/02b-MAChigh/sixtop.c **** }
 1258              		.loc 1 558 0
 1259 0686 0C37     		adds	r7, r7, #12
 1260              		.cfi_def_cfa_offset 12
 1261 0688 BD46     		mov	sp, r7
 1262              		.cfi_def_cfa_register 13
 1263              		@ sp needed
 1264 068a 90BD     		pop	{r4, r7, pc}
 1265              		.cfi_endproc
 1266              	.LFE9:
 1268              		.align	2
 1269              		.global	debugPrint_myDAGrank
 1270              		.thumb
 1271              		.thumb_func
 1273              	debugPrint_myDAGrank:
 1274              	.LFB10:
 559:build/OpenMote-CC2538_armgcc/openstack/02b-MAChigh/sixtop.c **** 
 560:build/OpenMote-CC2538_armgcc/openstack/02b-MAChigh/sixtop.c **** //======= debugging
 561:build/OpenMote-CC2538_armgcc/openstack/02b-MAChigh/sixtop.c **** 
 562:build/OpenMote-CC2538_armgcc/openstack/02b-MAChigh/sixtop.c **** /**
 563:build/OpenMote-CC2538_armgcc/openstack/02b-MAChigh/sixtop.c **** \brief Trigger this module to print status information, over serial.
 564:build/OpenMote-CC2538_armgcc/openstack/02b-MAChigh/sixtop.c **** 
 565:build/OpenMote-CC2538_armgcc/openstack/02b-MAChigh/sixtop.c **** debugPrint_* functions are used by the openserial module to continuously print
 566:build/OpenMote-CC2538_armgcc/openstack/02b-MAChigh/sixtop.c **** status information about several modules in the OpenWSN stack.
 567:build/OpenMote-CC2538_armgcc/openstack/02b-MAChigh/sixtop.c **** 
 568:build/OpenMote-CC2538_armgcc/openstack/02b-MAChigh/sixtop.c **** \returns TRUE if this function printed something, FALSE otherwise.
 569:build/OpenMote-CC2538_armgcc/openstack/02b-MAChigh/sixtop.c **** */
 570:build/OpenMote-CC2538_armgcc/openstack/02b-MAChigh/sixtop.c **** bool debugPrint_myDAGrank() {
 1275              		.loc 1 570 0
 1276              		.cfi_startproc
 1277              		@ args = 0, pretend = 0, frame = 8
 1278              		@ frame_needed = 1, uses_anonymous_args = 0
 1279 068c 80B5     		push	{r7, lr}
 1280              		.cfi_def_cfa_offset 8
 1281              		.cfi_offset 7, -8
 1282              		.cfi_offset 14, -4
 1283 068e 82B0     		sub	sp, sp, #8
 1284              		.cfi_def_cfa_offset 16
 1285 0690 00AF     		add	r7, sp, #0
 1286              		.cfi_def_cfa_register 7
 571:build/OpenMote-CC2538_armgcc/openstack/02b-MAChigh/sixtop.c ****    uint16_t output;
 572:build/OpenMote-CC2538_armgcc/openstack/02b-MAChigh/sixtop.c ****    
 573:build/OpenMote-CC2538_armgcc/openstack/02b-MAChigh/sixtop.c ****    output = 0;
 1287              		.loc 1 573 0
 1288 0692 0023     		movs	r3, #0
 1289 0694 FB80     		strh	r3, [r7, #6]	@ movhi
 574:build/OpenMote-CC2538_armgcc/openstack/02b-MAChigh/sixtop.c ****    
 575:build/OpenMote-CC2538_armgcc/openstack/02b-MAChigh/sixtop.c ****    output = neighbors_getMyDAGrank();
 1290              		.loc 1 575 0
 1291 0696 FFF7FEFF 		bl	neighbors_getMyDAGrank
 1292 069a 0346     		mov	r3, r0
 1293 069c FB80     		strh	r3, [r7, #6]	@ movhi
 576:build/OpenMote-CC2538_armgcc/openstack/02b-MAChigh/sixtop.c ****    openserial_printStatus(STATUS_DAGRANK,(uint8_t*)&output,sizeof(uint16_t));
 1294              		.loc 1 576 0
 1295 069e BB1D     		adds	r3, r7, #6
 1296 06a0 0220     		movs	r0, #2
 1297 06a2 1946     		mov	r1, r3
 1298 06a4 0222     		movs	r2, #2
 1299 06a6 FFF7FEFF 		bl	openserial_printStatus
 577:build/OpenMote-CC2538_armgcc/openstack/02b-MAChigh/sixtop.c ****    return TRUE;
 1300              		.loc 1 577 0
 1301 06aa 0123     		movs	r3, #1
 578:build/OpenMote-CC2538_armgcc/openstack/02b-MAChigh/sixtop.c **** }
 1302              		.loc 1 578 0
 1303 06ac 1846     		mov	r0, r3
 1304 06ae 0837     		adds	r7, r7, #8
 1305              		.cfi_def_cfa_offset 8
 1306 06b0 BD46     		mov	sp, r7
 1307              		.cfi_def_cfa_register 13
 1308              		@ sp needed
 1309 06b2 80BD     		pop	{r7, pc}
 1310              		.cfi_endproc
 1311              	.LFE10:
 1313              		.align	2
 1314              		.global	debugPrint_kaPeriod
 1315              		.thumb
 1316              		.thumb_func
 1318              	debugPrint_kaPeriod:
 1319              	.LFB11:
 579:build/OpenMote-CC2538_armgcc/openstack/02b-MAChigh/sixtop.c **** 
 580:build/OpenMote-CC2538_armgcc/openstack/02b-MAChigh/sixtop.c **** /**
 581:build/OpenMote-CC2538_armgcc/openstack/02b-MAChigh/sixtop.c **** \brief Trigger this module to print status information, over serial.
 582:build/OpenMote-CC2538_armgcc/openstack/02b-MAChigh/sixtop.c **** 
 583:build/OpenMote-CC2538_armgcc/openstack/02b-MAChigh/sixtop.c **** debugPrint_* functions are used by the openserial module to continuously print
 584:build/OpenMote-CC2538_armgcc/openstack/02b-MAChigh/sixtop.c **** status information about several modules in the OpenWSN stack.
 585:build/OpenMote-CC2538_armgcc/openstack/02b-MAChigh/sixtop.c **** 
 586:build/OpenMote-CC2538_armgcc/openstack/02b-MAChigh/sixtop.c **** \returns TRUE if this function printed something, FALSE otherwise.
 587:build/OpenMote-CC2538_armgcc/openstack/02b-MAChigh/sixtop.c **** */
 588:build/OpenMote-CC2538_armgcc/openstack/02b-MAChigh/sixtop.c **** bool debugPrint_kaPeriod() {
 1320              		.loc 1 588 0
 1321              		.cfi_startproc
 1322              		@ args = 0, pretend = 0, frame = 8
 1323              		@ frame_needed = 1, uses_anonymous_args = 0
 1324 06b4 80B5     		push	{r7, lr}
 1325              		.cfi_def_cfa_offset 8
 1326              		.cfi_offset 7, -8
 1327              		.cfi_offset 14, -4
 1328 06b6 82B0     		sub	sp, sp, #8
 1329              		.cfi_def_cfa_offset 16
 1330 06b8 00AF     		add	r7, sp, #0
 1331              		.cfi_def_cfa_register 7
 589:build/OpenMote-CC2538_armgcc/openstack/02b-MAChigh/sixtop.c ****    uint16_t output;
 590:build/OpenMote-CC2538_armgcc/openstack/02b-MAChigh/sixtop.c ****    
 591:build/OpenMote-CC2538_armgcc/openstack/02b-MAChigh/sixtop.c ****    output = sixtop_vars.kaPeriod;
 1332              		.loc 1 591 0
 1333 06ba 074B     		ldr	r3, .L84
 1334 06bc 1B89     		ldrh	r3, [r3, #8]
 1335 06be FB80     		strh	r3, [r7, #6]	@ movhi
 592:build/OpenMote-CC2538_armgcc/openstack/02b-MAChigh/sixtop.c ****    
 593:build/OpenMote-CC2538_armgcc/openstack/02b-MAChigh/sixtop.c ****    openserial_printStatus(
 1336              		.loc 1 593 0
 1337 06c0 BB1D     		adds	r3, r7, #6
 1338 06c2 0A20     		movs	r0, #10
 1339 06c4 1946     		mov	r1, r3
 1340 06c6 0222     		movs	r2, #2
 1341 06c8 FFF7FEFF 		bl	openserial_printStatus
 594:build/OpenMote-CC2538_armgcc/openstack/02b-MAChigh/sixtop.c ****        STATUS_KAPERIOD,
 595:build/OpenMote-CC2538_armgcc/openstack/02b-MAChigh/sixtop.c ****        (uint8_t*)&output,
 596:build/OpenMote-CC2538_armgcc/openstack/02b-MAChigh/sixtop.c ****        sizeof(output)
 597:build/OpenMote-CC2538_armgcc/openstack/02b-MAChigh/sixtop.c ****    );
 598:build/OpenMote-CC2538_armgcc/openstack/02b-MAChigh/sixtop.c ****    return TRUE;
 1342              		.loc 1 598 0
 1343 06cc 0123     		movs	r3, #1
 599:build/OpenMote-CC2538_armgcc/openstack/02b-MAChigh/sixtop.c **** }
 1344              		.loc 1 599 0
 1345 06ce 1846     		mov	r0, r3
 1346 06d0 0837     		adds	r7, r7, #8
 1347              		.cfi_def_cfa_offset 8
 1348 06d2 BD46     		mov	sp, r7
 1349              		.cfi_def_cfa_register 13
 1350              		@ sp needed
 1351 06d4 80BD     		pop	{r7, pc}
 1352              	.L85:
 1353 06d6 00BF     		.align	2
 1354              	.L84:
 1355 06d8 00000000 		.word	sixtop_vars
 1356              		.cfi_endproc
 1357              	.LFE11:
 1359              		.align	2
 1360              		.global	sixtop_setIsResponseEnabled
 1361              		.thumb
 1362              		.thumb_func
 1364              	sixtop_setIsResponseEnabled:
 1365              	.LFB12:
 600:build/OpenMote-CC2538_armgcc/openstack/02b-MAChigh/sixtop.c **** 
 601:build/OpenMote-CC2538_armgcc/openstack/02b-MAChigh/sixtop.c **** void sixtop_setIsResponseEnabled(bool isEnabled){
 1366              		.loc 1 601 0
 1367              		.cfi_startproc
 1368              		@ args = 0, pretend = 0, frame = 8
 1369              		@ frame_needed = 1, uses_anonymous_args = 0
 1370              		@ link register save eliminated.
 1371 06dc 80B4     		push	{r7}
 1372              		.cfi_def_cfa_offset 4
 1373              		.cfi_offset 7, -4
 1374 06de 83B0     		sub	sp, sp, #12
 1375              		.cfi_def_cfa_offset 16
 1376 06e0 00AF     		add	r7, sp, #0
 1377              		.cfi_def_cfa_register 7
 1378 06e2 0346     		mov	r3, r0
 1379 06e4 FB71     		strb	r3, [r7, #7]
 602:build/OpenMote-CC2538_armgcc/openstack/02b-MAChigh/sixtop.c ****     sixtop_vars.isResponseEnabled = isEnabled;
 1380              		.loc 1 602 0
 1381 06e6 044A     		ldr	r2, .L87
 1382 06e8 FB79     		ldrb	r3, [r7, #7]
 1383 06ea D373     		strb	r3, [r2, #15]
 603:build/OpenMote-CC2538_armgcc/openstack/02b-MAChigh/sixtop.c **** }
 1384              		.loc 1 603 0
 1385 06ec 0C37     		adds	r7, r7, #12
 1386              		.cfi_def_cfa_offset 4
 1387 06ee BD46     		mov	sp, r7
 1388              		.cfi_def_cfa_register 13
 1389              		@ sp needed
 1390 06f0 5DF8047B 		ldr	r7, [sp], #4
 1391              		.cfi_restore 7
 1392              		.cfi_def_cfa_offset 0
 1393 06f4 7047     		bx	lr
 1394              	.L88:
 1395 06f6 00BF     		.align	2
 1396              	.L87:
 1397 06f8 00000000 		.word	sixtop_vars
 1398              		.cfi_endproc
 1399              	.LFE12:
 1401              		.align	2
 1402              		.global	sixtop_send_internal
 1403              		.thumb
 1404              		.thumb_func
 1406              	sixtop_send_internal:
 1407              	.LFB13:
 604:build/OpenMote-CC2538_armgcc/openstack/02b-MAChigh/sixtop.c **** 
 605:build/OpenMote-CC2538_armgcc/openstack/02b-MAChigh/sixtop.c **** //=========================== private =========================================
 606:build/OpenMote-CC2538_armgcc/openstack/02b-MAChigh/sixtop.c **** 
 607:build/OpenMote-CC2538_armgcc/openstack/02b-MAChigh/sixtop.c **** /**
 608:build/OpenMote-CC2538_armgcc/openstack/02b-MAChigh/sixtop.c **** \brief Transfer packet to MAC.
 609:build/OpenMote-CC2538_armgcc/openstack/02b-MAChigh/sixtop.c **** 
 610:build/OpenMote-CC2538_armgcc/openstack/02b-MAChigh/sixtop.c **** This function adds a IEEE802.15.4 header to the packet and leaves it the 
 611:build/OpenMote-CC2538_armgcc/openstack/02b-MAChigh/sixtop.c **** OpenQueue buffer. The very last thing it does is assigning this packet to the 
 612:build/OpenMote-CC2538_armgcc/openstack/02b-MAChigh/sixtop.c **** virtual component COMPONENT_SIXTOP_TO_IEEE802154E. Whenever it gets a change,
 613:build/OpenMote-CC2538_armgcc/openstack/02b-MAChigh/sixtop.c **** IEEE802154E will handle the packet.
 614:build/OpenMote-CC2538_armgcc/openstack/02b-MAChigh/sixtop.c **** 
 615:build/OpenMote-CC2538_armgcc/openstack/02b-MAChigh/sixtop.c **** \param[in] msg The packet to the transmitted
 616:build/OpenMote-CC2538_armgcc/openstack/02b-MAChigh/sixtop.c **** \param[in] iePresent Indicates wheter an Information Element is present in the
 617:build/OpenMote-CC2538_armgcc/openstack/02b-MAChigh/sixtop.c ****    packet.
 618:build/OpenMote-CC2538_armgcc/openstack/02b-MAChigh/sixtop.c **** \param[in] frameVersion The frame version to write in the packet.
 619:build/OpenMote-CC2538_armgcc/openstack/02b-MAChigh/sixtop.c **** 
 620:build/OpenMote-CC2538_armgcc/openstack/02b-MAChigh/sixtop.c **** \returns E_SUCCESS iff successful.
 621:build/OpenMote-CC2538_armgcc/openstack/02b-MAChigh/sixtop.c **** */
 622:build/OpenMote-CC2538_armgcc/openstack/02b-MAChigh/sixtop.c **** owerror_t sixtop_send_internal(
 623:build/OpenMote-CC2538_armgcc/openstack/02b-MAChigh/sixtop.c ****    OpenQueueEntry_t* msg, 
 624:build/OpenMote-CC2538_armgcc/openstack/02b-MAChigh/sixtop.c ****    bool    payloadIEPresent) {
 1408              		.loc 1 624 0
 1409              		.cfi_startproc
 1410              		@ args = 0, pretend = 0, frame = 8
 1411              		@ frame_needed = 1, uses_anonymous_args = 0
 1412 06fc 90B5     		push	{r4, r7, lr}
 1413              		.cfi_def_cfa_offset 12
 1414              		.cfi_offset 4, -12
 1415              		.cfi_offset 7, -8
 1416              		.cfi_offset 14, -4
 1417 06fe 85B0     		sub	sp, sp, #20
 1418              		.cfi_def_cfa_offset 32
 1419 0700 02AF     		add	r7, sp, #8
 1420              		.cfi_def_cfa 7, 24
 1421 0702 7860     		str	r0, [r7, #4]
 1422 0704 0B46     		mov	r3, r1
 1423 0706 FB70     		strb	r3, [r7, #3]
 625:build/OpenMote-CC2538_armgcc/openstack/02b-MAChigh/sixtop.c **** 
 626:build/OpenMote-CC2538_armgcc/openstack/02b-MAChigh/sixtop.c ****    // assign a number of retries
 627:build/OpenMote-CC2538_armgcc/openstack/02b-MAChigh/sixtop.c ****    if (
 628:build/OpenMote-CC2538_armgcc/openstack/02b-MAChigh/sixtop.c ****       packetfunctions_isBroadcastMulticast(&(msg->l2_nextORpreviousHop))==TRUE
 1424              		.loc 1 628 0
 1425 0708 7B68     		ldr	r3, [r7, #4]
 1426 070a 3833     		adds	r3, r3, #56
 1427 070c 1846     		mov	r0, r3
 1428 070e FFF7FEFF 		bl	packetfunctions_isBroadcastMulticast
 1429 0712 0346     		mov	r3, r0
 627:build/OpenMote-CC2538_armgcc/openstack/02b-MAChigh/sixtop.c ****       packetfunctions_isBroadcastMulticast(&(msg->l2_nextORpreviousHop))==TRUE
 1430              		.loc 1 627 0
 1431 0714 002B     		cmp	r3, #0
 1432 0716 04D0     		beq	.L90
 629:build/OpenMote-CC2538_armgcc/openstack/02b-MAChigh/sixtop.c ****       ) {
 630:build/OpenMote-CC2538_armgcc/openstack/02b-MAChigh/sixtop.c ****       msg->l2_retriesLeft = 1;
 1433              		.loc 1 630 0
 1434 0718 7B68     		ldr	r3, [r7, #4]
 1435 071a 0122     		movs	r2, #1
 1436 071c 83F84B20 		strb	r2, [r3, #75]
 1437 0720 03E0     		b	.L91
 1438              	.L90:
 631:build/OpenMote-CC2538_armgcc/openstack/02b-MAChigh/sixtop.c ****    } else {
 632:build/OpenMote-CC2538_armgcc/openstack/02b-MAChigh/sixtop.c ****       msg->l2_retriesLeft = TXRETRIES + 1;
 1439              		.loc 1 632 0
 1440 0722 7B68     		ldr	r3, [r7, #4]
 1441 0724 0422     		movs	r2, #4
 1442 0726 83F84B20 		strb	r2, [r3, #75]
 1443              	.L91:
 633:build/OpenMote-CC2538_armgcc/openstack/02b-MAChigh/sixtop.c ****    }
 634:build/OpenMote-CC2538_armgcc/openstack/02b-MAChigh/sixtop.c ****    // record this packet's dsn (for matching the ACK)
 635:build/OpenMote-CC2538_armgcc/openstack/02b-MAChigh/sixtop.c ****    msg->l2_dsn = sixtop_vars.dsn++;
 1444              		.loc 1 635 0
 1445 072a 134B     		ldr	r3, .L93
 1446 072c 1B79     		ldrb	r3, [r3, #4]	@ zero_extendqisi2
 1447 072e 5A1C     		adds	r2, r3, #1
 1448 0730 D1B2     		uxtb	r1, r2
 1449 0732 114A     		ldr	r2, .L93
 1450 0734 1171     		strb	r1, [r2, #4]
 1451 0736 7A68     		ldr	r2, [r7, #4]
 1452 0738 82F84A30 		strb	r3, [r2, #74]
 636:build/OpenMote-CC2538_armgcc/openstack/02b-MAChigh/sixtop.c ****    // this is a new packet which I never attempted to send
 637:build/OpenMote-CC2538_armgcc/openstack/02b-MAChigh/sixtop.c ****    msg->l2_numTxAttempts = 0;
 1453              		.loc 1 637 0
 1454 073c 7B68     		ldr	r3, [r7, #4]
 1455 073e 0022     		movs	r2, #0
 1456 0740 83F84C20 		strb	r2, [r3, #76]
 638:build/OpenMote-CC2538_armgcc/openstack/02b-MAChigh/sixtop.c ****    // transmit with the default TX power
 639:build/OpenMote-CC2538_armgcc/openstack/02b-MAChigh/sixtop.c ****    msg->l1_txPower = TX_POWER;
 1457              		.loc 1 639 0
 1458 0744 7B68     		ldr	r3, [r7, #4]
 1459 0746 1F22     		movs	r2, #31
 1460 0748 83F88420 		strb	r2, [r3, #132]
 640:build/OpenMote-CC2538_armgcc/openstack/02b-MAChigh/sixtop.c ****    // add a IEEE802.15.4 header
 641:build/OpenMote-CC2538_armgcc/openstack/02b-MAChigh/sixtop.c ****    ieee802154_prependHeader(msg,
 1461              		.loc 1 641 0
 1462 074c 7B68     		ldr	r3, [r7, #4]
 1463 074e 93F84910 		ldrb	r1, [r3, #73]	@ zero_extendqisi2
 1464 0752 7B68     		ldr	r3, [r7, #4]
 1465 0754 93F84A40 		ldrb	r4, [r3, #74]	@ zero_extendqisi2
 1466 0758 7B68     		ldr	r3, [r7, #4]
 1467 075a 3833     		adds	r3, r3, #56
 1468 075c FA78     		ldrb	r2, [r7, #3]	@ zero_extendqisi2
 1469 075e 0093     		str	r3, [sp]
 1470 0760 7868     		ldr	r0, [r7, #4]
 1471 0762 2346     		mov	r3, r4
 1472 0764 FFF7FEFF 		bl	ieee802154_prependHeader
 642:build/OpenMote-CC2538_armgcc/openstack/02b-MAChigh/sixtop.c ****                             msg->l2_frameType,
 643:build/OpenMote-CC2538_armgcc/openstack/02b-MAChigh/sixtop.c ****                             payloadIEPresent,
 644:build/OpenMote-CC2538_armgcc/openstack/02b-MAChigh/sixtop.c ****                             msg->l2_dsn,
 645:build/OpenMote-CC2538_armgcc/openstack/02b-MAChigh/sixtop.c ****                             &(msg->l2_nextORpreviousHop)
 646:build/OpenMote-CC2538_armgcc/openstack/02b-MAChigh/sixtop.c ****                             );
 647:build/OpenMote-CC2538_armgcc/openstack/02b-MAChigh/sixtop.c ****    // change owner to IEEE802154E fetches it from queue
 648:build/OpenMote-CC2538_armgcc/openstack/02b-MAChigh/sixtop.c ****    msg->owner  = COMPONENT_SIXTOP_TO_IEEE802154E;
 1473              		.loc 1 648 0
 1474 0768 7B68     		ldr	r3, [r7, #4]
 1475 076a 0A22     		movs	r2, #10
 1476 076c 5A70     		strb	r2, [r3, #1]
 649:build/OpenMote-CC2538_armgcc/openstack/02b-MAChigh/sixtop.c ****    return E_SUCCESS;
 1477              		.loc 1 649 0
 1478 076e 0023     		movs	r3, #0
 650:build/OpenMote-CC2538_armgcc/openstack/02b-MAChigh/sixtop.c **** }
 1479              		.loc 1 650 0
 1480 0770 1846     		mov	r0, r3
 1481 0772 0C37     		adds	r7, r7, #12
 1482              		.cfi_def_cfa_offset 12
 1483 0774 BD46     		mov	sp, r7
 1484              		.cfi_def_cfa_register 13
 1485              		@ sp needed
 1486 0776 90BD     		pop	{r4, r7, pc}
 1487              	.L94:
 1488              		.align	2
 1489              	.L93:
 1490 0778 00000000 		.word	sixtop_vars
 1491              		.cfi_endproc
 1492              	.LFE13:
 1494              		.align	2
 1495              		.global	sixtop_maintenance_timer_cb
 1496              		.thumb
 1497              		.thumb_func
 1499              	sixtop_maintenance_timer_cb:
 1500              	.LFB14:
 651:build/OpenMote-CC2538_armgcc/openstack/02b-MAChigh/sixtop.c **** 
 652:build/OpenMote-CC2538_armgcc/openstack/02b-MAChigh/sixtop.c **** // timer interrupt callbacks
 653:build/OpenMote-CC2538_armgcc/openstack/02b-MAChigh/sixtop.c **** 
 654:build/OpenMote-CC2538_armgcc/openstack/02b-MAChigh/sixtop.c **** void sixtop_maintenance_timer_cb(opentimer_id_t id) {
 1501              		.loc 1 654 0
 1502              		.cfi_startproc
 1503              		@ args = 0, pretend = 0, frame = 8
 1504              		@ frame_needed = 1, uses_anonymous_args = 0
 1505 077c 80B5     		push	{r7, lr}
 1506              		.cfi_def_cfa_offset 8
 1507              		.cfi_offset 7, -8
 1508              		.cfi_offset 14, -4
 1509 077e 82B0     		sub	sp, sp, #8
 1510              		.cfi_def_cfa_offset 16
 1511 0780 00AF     		add	r7, sp, #0
 1512              		.cfi_def_cfa_register 7
 1513 0782 0346     		mov	r3, r0
 1514 0784 FB71     		strb	r3, [r7, #7]
 655:build/OpenMote-CC2538_armgcc/openstack/02b-MAChigh/sixtop.c ****    scheduler_push_task(timer_sixtop_management_fired,TASKPRIO_SIXTOP);
 1515              		.loc 1 655 0
 1516 0786 0348     		ldr	r0, .L96
 1517 0788 0321     		movs	r1, #3
 1518 078a FFF7FEFF 		bl	scheduler_push_task
 656:build/OpenMote-CC2538_armgcc/openstack/02b-MAChigh/sixtop.c **** }
 1519              		.loc 1 656 0
 1520 078e 0837     		adds	r7, r7, #8
 1521              		.cfi_def_cfa_offset 8
 1522 0790 BD46     		mov	sp, r7
 1523              		.cfi_def_cfa_register 13
 1524              		@ sp needed
 1525 0792 80BD     		pop	{r7, pc}
 1526              	.L97:
 1527              		.align	2
 1528              	.L96:
 1529 0794 00000000 		.word	timer_sixtop_management_fired
 1530              		.cfi_endproc
 1531              	.LFE14:
 1533              		.align	2
 1534              		.global	sixtop_timeout_timer_cb
 1535              		.thumb
 1536              		.thumb_func
 1538              	sixtop_timeout_timer_cb:
 1539              	.LFB15:
 657:build/OpenMote-CC2538_armgcc/openstack/02b-MAChigh/sixtop.c **** 
 658:build/OpenMote-CC2538_armgcc/openstack/02b-MAChigh/sixtop.c **** void sixtop_timeout_timer_cb(opentimer_id_t id) {
 1540              		.loc 1 658 0
 1541              		.cfi_startproc
 1542              		@ args = 0, pretend = 0, frame = 8
 1543              		@ frame_needed = 1, uses_anonymous_args = 0
 1544 0798 80B5     		push	{r7, lr}
 1545              		.cfi_def_cfa_offset 8
 1546              		.cfi_offset 7, -8
 1547              		.cfi_offset 14, -4
 1548 079a 82B0     		sub	sp, sp, #8
 1549              		.cfi_def_cfa_offset 16
 1550 079c 00AF     		add	r7, sp, #0
 1551              		.cfi_def_cfa_register 7
 1552 079e 0346     		mov	r3, r0
 1553 07a0 FB71     		strb	r3, [r7, #7]
 659:build/OpenMote-CC2538_armgcc/openstack/02b-MAChigh/sixtop.c ****    scheduler_push_task(timer_sixtop_six2six_timeout_fired,TASKPRIO_SIXTOP_TIMEOUT);
 1554              		.loc 1 659 0
 1555 07a2 0348     		ldr	r0, .L99
 1556 07a4 0A21     		movs	r1, #10
 1557 07a6 FFF7FEFF 		bl	scheduler_push_task
 660:build/OpenMote-CC2538_armgcc/openstack/02b-MAChigh/sixtop.c **** }
 1558              		.loc 1 660 0
 1559 07aa 0837     		adds	r7, r7, #8
 1560              		.cfi_def_cfa_offset 8
 1561 07ac BD46     		mov	sp, r7
 1562              		.cfi_def_cfa_register 13
 1563              		@ sp needed
 1564 07ae 80BD     		pop	{r7, pc}
 1565              	.L100:
 1566              		.align	2
 1567              	.L99:
 1568 07b0 00000000 		.word	timer_sixtop_six2six_timeout_fired
 1569              		.cfi_endproc
 1570              	.LFE15:
 1572              		.align	2
 1573              		.global	timer_sixtop_management_fired
 1574              		.thumb
 1575              		.thumb_func
 1577              	timer_sixtop_management_fired:
 1578              	.LFB16:
 661:build/OpenMote-CC2538_armgcc/openstack/02b-MAChigh/sixtop.c **** 
 662:build/OpenMote-CC2538_armgcc/openstack/02b-MAChigh/sixtop.c **** //======= EB/KA task
 663:build/OpenMote-CC2538_armgcc/openstack/02b-MAChigh/sixtop.c **** 
 664:build/OpenMote-CC2538_armgcc/openstack/02b-MAChigh/sixtop.c **** /**
 665:build/OpenMote-CC2538_armgcc/openstack/02b-MAChigh/sixtop.c **** \brief Timer handlers which triggers MAC management task.
 666:build/OpenMote-CC2538_armgcc/openstack/02b-MAChigh/sixtop.c **** 
 667:build/OpenMote-CC2538_armgcc/openstack/02b-MAChigh/sixtop.c **** This function is called in task context by the scheduler after the RES timer
 668:build/OpenMote-CC2538_armgcc/openstack/02b-MAChigh/sixtop.c **** has fired. This timer is set to fire every second, on average.
 669:build/OpenMote-CC2538_armgcc/openstack/02b-MAChigh/sixtop.c **** 
 670:build/OpenMote-CC2538_armgcc/openstack/02b-MAChigh/sixtop.c **** The body of this function executes one of the MAC management task.
 671:build/OpenMote-CC2538_armgcc/openstack/02b-MAChigh/sixtop.c **** */
 672:build/OpenMote-CC2538_armgcc/openstack/02b-MAChigh/sixtop.c **** void timer_sixtop_management_fired(void) {
 1579              		.loc 1 672 0
 1580              		.cfi_startproc
 1581              		@ args = 0, pretend = 0, frame = 8
 1582              		@ frame_needed = 1, uses_anonymous_args = 0
 1583 07b4 80B5     		push	{r7, lr}
 1584              		.cfi_def_cfa_offset 8
 1585              		.cfi_offset 7, -8
 1586              		.cfi_offset 14, -4
 1587 07b6 82B0     		sub	sp, sp, #8
 1588              		.cfi_def_cfa_offset 16
 1589 07b8 00AF     		add	r7, sp, #0
 1590              		.cfi_def_cfa_register 7
 673:build/OpenMote-CC2538_armgcc/openstack/02b-MAChigh/sixtop.c ****    scheduleEntry_t* entry;
 674:build/OpenMote-CC2538_armgcc/openstack/02b-MAChigh/sixtop.c ****    sixtop_vars.mgtTaskCounter = (sixtop_vars.mgtTaskCounter+1)%sixtop_vars.ebPeriod;
 1591              		.loc 1 674 0
 1592 07ba 1B4B     		ldr	r3, .L107
 1593 07bc 5B79     		ldrb	r3, [r3, #5]	@ zero_extendqisi2
 1594 07be 0133     		adds	r3, r3, #1
 1595 07c0 194A     		ldr	r2, .L107
 1596 07c2 5289     		ldrh	r2, [r2, #10]
 1597 07c4 93FBF2F1 		sdiv	r1, r3, r2
 1598 07c8 02FB01F2 		mul	r2, r2, r1
 1599 07cc 9B1A     		subs	r3, r3, r2
 1600 07ce DAB2     		uxtb	r2, r3
 1601 07d0 154B     		ldr	r3, .L107
 1602 07d2 5A71     		strb	r2, [r3, #5]
 675:build/OpenMote-CC2538_armgcc/openstack/02b-MAChigh/sixtop.c ****    
 676:build/OpenMote-CC2538_armgcc/openstack/02b-MAChigh/sixtop.c ****    switch (sixtop_vars.mgtTaskCounter) {
 1603              		.loc 1 676 0
 1604 07d4 144B     		ldr	r3, .L107
 1605 07d6 5B79     		ldrb	r3, [r3, #5]	@ zero_extendqisi2
 1606 07d8 012B     		cmp	r3, #1
 1607 07da 06D0     		beq	.L103
 1608 07dc 022B     		cmp	r3, #2
 1609 07de 07D0     		beq	.L104
 1610 07e0 002B     		cmp	r3, #0
 1611 07e2 1BD1     		bne	.L102
 677:build/OpenMote-CC2538_armgcc/openstack/02b-MAChigh/sixtop.c ****       case 0:
 678:build/OpenMote-CC2538_armgcc/openstack/02b-MAChigh/sixtop.c ****          // called every EBPERIOD seconds
 679:build/OpenMote-CC2538_armgcc/openstack/02b-MAChigh/sixtop.c ****          sixtop_sendEB();
 1612              		.loc 1 679 0
 1613 07e4 FFF7FEFF 		bl	sixtop_sendEB
 680:build/OpenMote-CC2538_armgcc/openstack/02b-MAChigh/sixtop.c ****          break;
 1614              		.loc 1 680 0
 1615 07e8 1BE0     		b	.L101
 1616              	.L103:
 681:build/OpenMote-CC2538_armgcc/openstack/02b-MAChigh/sixtop.c ****       case 1:
 682:build/OpenMote-CC2538_armgcc/openstack/02b-MAChigh/sixtop.c ****          // called every EBPERIOD seconds
 683:build/OpenMote-CC2538_armgcc/openstack/02b-MAChigh/sixtop.c ****          neighbors_removeOld();
 1617              		.loc 1 683 0
 1618 07ea FFF7FEFF 		bl	neighbors_removeOld
 684:build/OpenMote-CC2538_armgcc/openstack/02b-MAChigh/sixtop.c ****          break;
 1619              		.loc 1 684 0
 1620 07ee 18E0     		b	.L101
 1621              	.L104:
 685:build/OpenMote-CC2538_armgcc/openstack/02b-MAChigh/sixtop.c ****       case 2:
 686:build/OpenMote-CC2538_armgcc/openstack/02b-MAChigh/sixtop.c ****          // called every EBPERIOD seconds
 687:build/OpenMote-CC2538_armgcc/openstack/02b-MAChigh/sixtop.c ****          entry = schedule_statistic_poorLinkQuality();
 1622              		.loc 1 687 0
 1623 07f0 FFF7FEFF 		bl	schedule_statistic_poorLinkQuality
 1624 07f4 7860     		str	r0, [r7, #4]
 688:build/OpenMote-CC2538_armgcc/openstack/02b-MAChigh/sixtop.c ****          if (
 1625              		.loc 1 688 0
 1626 07f6 7B68     		ldr	r3, [r7, #4]
 1627 07f8 002B     		cmp	r3, #0
 1628 07fa 0FD0     		beq	.L102
 689:build/OpenMote-CC2538_armgcc/openstack/02b-MAChigh/sixtop.c ****              entry       != NULL                        && \
 690:build/OpenMote-CC2538_armgcc/openstack/02b-MAChigh/sixtop.c ****              entry->type != CELLTYPE_OFF                && \
 1629              		.loc 1 690 0
 1630 07fc 7B68     		ldr	r3, [r7, #4]
 1631 07fe 9B78     		ldrb	r3, [r3, #2]	@ zero_extendqisi2
 689:build/OpenMote-CC2538_armgcc/openstack/02b-MAChigh/sixtop.c ****              entry       != NULL                        && \
 1632              		.loc 1 689 0
 1633 0800 002B     		cmp	r3, #0
 1634 0802 0BD0     		beq	.L102
 691:build/OpenMote-CC2538_armgcc/openstack/02b-MAChigh/sixtop.c ****              entry->type != CELLTYPE_TXRX               
 1635              		.loc 1 691 0
 1636 0804 7B68     		ldr	r3, [r7, #4]
 1637 0806 9B78     		ldrb	r3, [r3, #2]	@ zero_extendqisi2
 690:build/OpenMote-CC2538_armgcc/openstack/02b-MAChigh/sixtop.c ****              entry->type != CELLTYPE_TXRX               
 1638              		.loc 1 690 0
 1639 0808 032B     		cmp	r3, #3
 1640 080a 07D0     		beq	.L102
 692:build/OpenMote-CC2538_armgcc/openstack/02b-MAChigh/sixtop.c ****          ){
 693:build/OpenMote-CC2538_armgcc/openstack/02b-MAChigh/sixtop.c ****              sixtop_maintaining(entry->slotOffset,&(entry->neighbor));
 1641              		.loc 1 693 0
 1642 080c 7B68     		ldr	r3, [r7, #4]
 1643 080e 1A88     		ldrh	r2, [r3]
 1644 0810 7B68     		ldr	r3, [r7, #4]
 1645 0812 0533     		adds	r3, r3, #5
 1646 0814 1046     		mov	r0, r2
 1647 0816 1946     		mov	r1, r3
 1648 0818 FFF7FEFF 		bl	sixtop_maintaining
 1649              	.L102:
 694:build/OpenMote-CC2538_armgcc/openstack/02b-MAChigh/sixtop.c ****          }
 695:build/OpenMote-CC2538_armgcc/openstack/02b-MAChigh/sixtop.c ****       default:
 696:build/OpenMote-CC2538_armgcc/openstack/02b-MAChigh/sixtop.c ****          // called every second, except third times every EBPERIOD seconds
 697:build/OpenMote-CC2538_armgcc/openstack/02b-MAChigh/sixtop.c ****          sixtop_sendKA();
 1650              		.loc 1 697 0
 1651 081c FFF7FEFF 		bl	sixtop_sendKA
 698:build/OpenMote-CC2538_armgcc/openstack/02b-MAChigh/sixtop.c ****          break;
 1652              		.loc 1 698 0
 1653 0820 00BF     		nop
 1654              	.L101:
 699:build/OpenMote-CC2538_armgcc/openstack/02b-MAChigh/sixtop.c ****    }
 700:build/OpenMote-CC2538_armgcc/openstack/02b-MAChigh/sixtop.c **** }
 1655              		.loc 1 700 0
 1656 0822 0837     		adds	r7, r7, #8
 1657              		.cfi_def_cfa_offset 8
 1658 0824 BD46     		mov	sp, r7
 1659              		.cfi_def_cfa_register 13
 1660              		@ sp needed
 1661 0826 80BD     		pop	{r7, pc}
 1662              	.L108:
 1663              		.align	2
 1664              	.L107:
 1665 0828 00000000 		.word	sixtop_vars
 1666              		.cfi_endproc
 1667              	.LFE16:
 1669              		.align	2
 1670              		.global	sixtop_sendEB
 1671              		.thumb
 1672              		.thumb_func
 1674              	sixtop_sendEB:
 1675              	.LFB17:
 701:build/OpenMote-CC2538_armgcc/openstack/02b-MAChigh/sixtop.c **** 
 702:build/OpenMote-CC2538_armgcc/openstack/02b-MAChigh/sixtop.c **** /**
 703:build/OpenMote-CC2538_armgcc/openstack/02b-MAChigh/sixtop.c **** \brief Send an EB.
 704:build/OpenMote-CC2538_armgcc/openstack/02b-MAChigh/sixtop.c **** 
 705:build/OpenMote-CC2538_armgcc/openstack/02b-MAChigh/sixtop.c **** This is one of the MAC management tasks. This function inlines in the
 706:build/OpenMote-CC2538_armgcc/openstack/02b-MAChigh/sixtop.c **** timers_res_fired() function, but is declared as a separate function for better
 707:build/OpenMote-CC2538_armgcc/openstack/02b-MAChigh/sixtop.c **** readability of the code.
 708:build/OpenMote-CC2538_armgcc/openstack/02b-MAChigh/sixtop.c **** */
 709:build/OpenMote-CC2538_armgcc/openstack/02b-MAChigh/sixtop.c **** port_INLINE void sixtop_sendEB() {
 1676              		.loc 1 709 0
 1677              		.cfi_startproc
 1678              		@ args = 0, pretend = 0, frame = 8
 1679              		@ frame_needed = 1, uses_anonymous_args = 0
 1680 082c 80B5     		push	{r7, lr}
 1681              		.cfi_def_cfa_offset 8
 1682              		.cfi_offset 7, -8
 1683              		.cfi_offset 14, -4
 1684 082e 82B0     		sub	sp, sp, #8
 1685              		.cfi_def_cfa_offset 16
 1686 0830 00AF     		add	r7, sp, #0
 1687              		.cfi_def_cfa_register 7
 710:build/OpenMote-CC2538_armgcc/openstack/02b-MAChigh/sixtop.c ****    OpenQueueEntry_t* eb;
 711:build/OpenMote-CC2538_armgcc/openstack/02b-MAChigh/sixtop.c ****    uint8_t len;
 712:build/OpenMote-CC2538_armgcc/openstack/02b-MAChigh/sixtop.c ****    
 713:build/OpenMote-CC2538_armgcc/openstack/02b-MAChigh/sixtop.c ****    len = 0;
 1688              		.loc 1 713 0
 1689 0832 0023     		movs	r3, #0
 1690 0834 FB71     		strb	r3, [r7, #7]
 714:build/OpenMote-CC2538_armgcc/openstack/02b-MAChigh/sixtop.c ****    
 715:build/OpenMote-CC2538_armgcc/openstack/02b-MAChigh/sixtop.c ****    if ((ieee154e_isSynch()==FALSE) || (neighbors_getMyDAGrank()==DEFAULTDAGRANK)){
 1691              		.loc 1 715 0
 1692 0836 FFF7FEFF 		bl	ieee154e_isSynch
 1693 083a 0346     		mov	r3, r0
 1694 083c 83F00103 		eor	r3, r3, #1
 1695 0840 DBB2     		uxtb	r3, r3
 1696 0842 002B     		cmp	r3, #0
 1697 0844 07D1     		bne	.L110
 1698              		.loc 1 715 0 is_stmt 0 discriminator 1
 1699 0846 FFF7FEFF 		bl	neighbors_getMyDAGrank
 1700 084a 0346     		mov	r3, r0
 1701 084c 1A46     		mov	r2, r3
 1702 084e 4FF6FF73 		movw	r3, #65535
 1703 0852 9A42     		cmp	r2, r3
 1704 0854 06D1     		bne	.L111
 1705              	.L110:
 716:build/OpenMote-CC2538_armgcc/openstack/02b-MAChigh/sixtop.c ****       // I'm not sync'ed or I did not acquire a DAGrank
 717:build/OpenMote-CC2538_armgcc/openstack/02b-MAChigh/sixtop.c ****       
 718:build/OpenMote-CC2538_armgcc/openstack/02b-MAChigh/sixtop.c ****       // delete packets genereted by this module (EB and KA) from openqueue
 719:build/OpenMote-CC2538_armgcc/openstack/02b-MAChigh/sixtop.c ****       openqueue_removeAllCreatedBy(COMPONENT_SIXTOP);
 1706              		.loc 1 719 0 is_stmt 1
 1707 0856 0C20     		movs	r0, #12
 1708 0858 FFF7FEFF 		bl	openqueue_removeAllCreatedBy
 720:build/OpenMote-CC2538_armgcc/openstack/02b-MAChigh/sixtop.c ****       
 721:build/OpenMote-CC2538_armgcc/openstack/02b-MAChigh/sixtop.c ****       // I'm now busy sending an EB
 722:build/OpenMote-CC2538_armgcc/openstack/02b-MAChigh/sixtop.c ****       sixtop_vars.busySendingEB = FALSE;
 1709              		.loc 1 722 0
 1710 085c 374B     		ldr	r3, .L115
 1711 085e 0022     		movs	r2, #0
 1712 0860 DA70     		strb	r2, [r3, #3]
 723:build/OpenMote-CC2538_armgcc/openstack/02b-MAChigh/sixtop.c ****       
 724:build/OpenMote-CC2538_armgcc/openstack/02b-MAChigh/sixtop.c ****       // stop here
 725:build/OpenMote-CC2538_armgcc/openstack/02b-MAChigh/sixtop.c ****       return;
 1713              		.loc 1 725 0
 1714 0862 67E0     		b	.L109
 1715              	.L111:
 726:build/OpenMote-CC2538_armgcc/openstack/02b-MAChigh/sixtop.c ****    }
 727:build/OpenMote-CC2538_armgcc/openstack/02b-MAChigh/sixtop.c ****    
 728:build/OpenMote-CC2538_armgcc/openstack/02b-MAChigh/sixtop.c ****    if (sixtop_vars.busySendingEB==TRUE) {
 1716              		.loc 1 728 0
 1717 0864 354B     		ldr	r3, .L115
 1718 0866 DB78     		ldrb	r3, [r3, #3]	@ zero_extendqisi2
 1719 0868 002B     		cmp	r3, #0
 1720 086a 00D0     		beq	.L113
 729:build/OpenMote-CC2538_armgcc/openstack/02b-MAChigh/sixtop.c ****       // don't continue if I'm still sending a previous EB
 730:build/OpenMote-CC2538_armgcc/openstack/02b-MAChigh/sixtop.c ****       return;
 1721              		.loc 1 730 0
 1722 086c 62E0     		b	.L109
 1723              	.L113:
 731:build/OpenMote-CC2538_armgcc/openstack/02b-MAChigh/sixtop.c ****    }
 732:build/OpenMote-CC2538_armgcc/openstack/02b-MAChigh/sixtop.c ****    
 733:build/OpenMote-CC2538_armgcc/openstack/02b-MAChigh/sixtop.c ****    // if I get here, I will send an EB
 734:build/OpenMote-CC2538_armgcc/openstack/02b-MAChigh/sixtop.c ****    
 735:build/OpenMote-CC2538_armgcc/openstack/02b-MAChigh/sixtop.c ****    // get a free packet buffer
 736:build/OpenMote-CC2538_armgcc/openstack/02b-MAChigh/sixtop.c ****    eb = openqueue_getFreePacketBuffer(COMPONENT_SIXTOP);
 1724              		.loc 1 736 0
 1725 086e 0C20     		movs	r0, #12
 1726 0870 FFF7FEFF 		bl	openqueue_getFreePacketBuffer
 1727 0874 3860     		str	r0, [r7]
 737:build/OpenMote-CC2538_armgcc/openstack/02b-MAChigh/sixtop.c ****    if (eb==NULL) {
 1728              		.loc 1 737 0
 1729 0876 3B68     		ldr	r3, [r7]
 1730 0878 002B     		cmp	r3, #0
 1731 087a 06D1     		bne	.L114
 738:build/OpenMote-CC2538_armgcc/openstack/02b-MAChigh/sixtop.c ****       openserial_printError(COMPONENT_SIXTOP,ERR_NO_FREE_PACKET_BUFFER,
 1732              		.loc 1 738 0
 1733 087c 0C20     		movs	r0, #12
 1734 087e 2C21     		movs	r1, #44
 1735 0880 0022     		movs	r2, #0
 1736 0882 0023     		movs	r3, #0
 1737 0884 FFF7FEFF 		bl	openserial_printError
 739:build/OpenMote-CC2538_armgcc/openstack/02b-MAChigh/sixtop.c ****                             (errorparameter_t)0,
 740:build/OpenMote-CC2538_armgcc/openstack/02b-MAChigh/sixtop.c ****                             (errorparameter_t)0);
 741:build/OpenMote-CC2538_armgcc/openstack/02b-MAChigh/sixtop.c ****       return;
 1738              		.loc 1 741 0
 1739 0888 54E0     		b	.L109
 1740              	.L114:
 742:build/OpenMote-CC2538_armgcc/openstack/02b-MAChigh/sixtop.c ****    }
 743:build/OpenMote-CC2538_armgcc/openstack/02b-MAChigh/sixtop.c ****    
 744:build/OpenMote-CC2538_armgcc/openstack/02b-MAChigh/sixtop.c ****    // declare ownership over that packet
 745:build/OpenMote-CC2538_armgcc/openstack/02b-MAChigh/sixtop.c ****    eb->creator = COMPONENT_SIXTOP;
 1741              		.loc 1 745 0
 1742 088a 3B68     		ldr	r3, [r7]
 1743 088c 0C22     		movs	r2, #12
 1744 088e 1A70     		strb	r2, [r3]
 746:build/OpenMote-CC2538_armgcc/openstack/02b-MAChigh/sixtop.c ****    eb->owner   = COMPONENT_SIXTOP;
 1745              		.loc 1 746 0
 1746 0890 3B68     		ldr	r3, [r7]
 1747 0892 0C22     		movs	r2, #12
 1748 0894 5A70     		strb	r2, [r3, #1]
 747:build/OpenMote-CC2538_armgcc/openstack/02b-MAChigh/sixtop.c ****    
 748:build/OpenMote-CC2538_armgcc/openstack/02b-MAChigh/sixtop.c ****    // reserve space for EB-specific header
 749:build/OpenMote-CC2538_armgcc/openstack/02b-MAChigh/sixtop.c ****    // reserving for IEs.
 750:build/OpenMote-CC2538_armgcc/openstack/02b-MAChigh/sixtop.c ****    len += processIE_prependSlotframeLinkIE(eb);
 1749              		.loc 1 750 0
 1750 0896 3868     		ldr	r0, [r7]
 1751 0898 FFF7FEFF 		bl	processIE_prependSlotframeLinkIE
 1752 089c 0346     		mov	r3, r0
 1753 089e 1A46     		mov	r2, r3
 1754 08a0 FB79     		ldrb	r3, [r7, #7]
 1755 08a2 1344     		add	r3, r3, r2
 1756 08a4 FB71     		strb	r3, [r7, #7]
 751:build/OpenMote-CC2538_armgcc/openstack/02b-MAChigh/sixtop.c ****    len += processIE_prependChannelHoppingIE(eb);
 1757              		.loc 1 751 0
 1758 08a6 3868     		ldr	r0, [r7]
 1759 08a8 FFF7FEFF 		bl	processIE_prependChannelHoppingIE
 1760 08ac 0346     		mov	r3, r0
 1761 08ae 1A46     		mov	r2, r3
 1762 08b0 FB79     		ldrb	r3, [r7, #7]
 1763 08b2 1344     		add	r3, r3, r2
 1764 08b4 FB71     		strb	r3, [r7, #7]
 752:build/OpenMote-CC2538_armgcc/openstack/02b-MAChigh/sixtop.c ****    len += processIE_prependTSCHTimeslotIE(eb);
 1765              		.loc 1 752 0
 1766 08b6 3868     		ldr	r0, [r7]
 1767 08b8 FFF7FEFF 		bl	processIE_prependTSCHTimeslotIE
 1768 08bc 0346     		mov	r3, r0
 1769 08be 1A46     		mov	r2, r3
 1770 08c0 FB79     		ldrb	r3, [r7, #7]
 1771 08c2 1344     		add	r3, r3, r2
 1772 08c4 FB71     		strb	r3, [r7, #7]
 753:build/OpenMote-CC2538_armgcc/openstack/02b-MAChigh/sixtop.c ****    len += processIE_prependSyncIE(eb);
 1773              		.loc 1 753 0
 1774 08c6 3868     		ldr	r0, [r7]
 1775 08c8 FFF7FEFF 		bl	processIE_prependSyncIE
 1776 08cc 0346     		mov	r3, r0
 1777 08ce 1A46     		mov	r2, r3
 1778 08d0 FB79     		ldrb	r3, [r7, #7]
 1779 08d2 1344     		add	r3, r3, r2
 1780 08d4 FB71     		strb	r3, [r7, #7]
 754:build/OpenMote-CC2538_armgcc/openstack/02b-MAChigh/sixtop.c ****    
 755:build/OpenMote-CC2538_armgcc/openstack/02b-MAChigh/sixtop.c ****    //add IE header 
 756:build/OpenMote-CC2538_armgcc/openstack/02b-MAChigh/sixtop.c ****    processIE_prependMLMEIE(eb,len);
 1781              		.loc 1 756 0
 1782 08d6 FB79     		ldrb	r3, [r7, #7]	@ zero_extendqisi2
 1783 08d8 3868     		ldr	r0, [r7]
 1784 08da 1946     		mov	r1, r3
 1785 08dc FFF7FEFF 		bl	processIE_prependMLMEIE
 757:build/OpenMote-CC2538_armgcc/openstack/02b-MAChigh/sixtop.c ****   
 758:build/OpenMote-CC2538_armgcc/openstack/02b-MAChigh/sixtop.c ****    // some l2 information about this packet
 759:build/OpenMote-CC2538_armgcc/openstack/02b-MAChigh/sixtop.c ****    eb->l2_frameType                     = IEEE154_TYPE_BEACON;
 1786              		.loc 1 759 0
 1787 08e0 3B68     		ldr	r3, [r7]
 1788 08e2 0022     		movs	r2, #0
 1789 08e4 83F84920 		strb	r2, [r3, #73]
 760:build/OpenMote-CC2538_armgcc/openstack/02b-MAChigh/sixtop.c ****    eb->l2_nextORpreviousHop.type        = ADDR_16B;
 1790              		.loc 1 760 0
 1791 08e8 3B68     		ldr	r3, [r7]
 1792 08ea 0122     		movs	r2, #1
 1793 08ec 83F83820 		strb	r2, [r3, #56]
 761:build/OpenMote-CC2538_armgcc/openstack/02b-MAChigh/sixtop.c ****    eb->l2_nextORpreviousHop.addr_16b[0] = 0xff;
 1794              		.loc 1 761 0
 1795 08f0 3B68     		ldr	r3, [r7]
 1796 08f2 FF22     		movs	r2, #255
 1797 08f4 83F83920 		strb	r2, [r3, #57]
 762:build/OpenMote-CC2538_armgcc/openstack/02b-MAChigh/sixtop.c ****    eb->l2_nextORpreviousHop.addr_16b[1] = 0xff;
 1798              		.loc 1 762 0
 1799 08f8 3B68     		ldr	r3, [r7]
 1800 08fa FF22     		movs	r2, #255
 1801 08fc 83F83A20 		strb	r2, [r3, #58]
 763:build/OpenMote-CC2538_armgcc/openstack/02b-MAChigh/sixtop.c ****    
 764:build/OpenMote-CC2538_armgcc/openstack/02b-MAChigh/sixtop.c ****    //I has an IE in my payload
 765:build/OpenMote-CC2538_armgcc/openstack/02b-MAChigh/sixtop.c ****    eb->l2_payloadIEpresent = TRUE;
 1802              		.loc 1 765 0
 1803 0900 3B68     		ldr	r3, [r7]
 1804 0902 0122     		movs	r2, #1
 1805 0904 83F86620 		strb	r2, [r3, #102]
 766:build/OpenMote-CC2538_armgcc/openstack/02b-MAChigh/sixtop.c **** 
 767:build/OpenMote-CC2538_armgcc/openstack/02b-MAChigh/sixtop.c ****    // set l2-security attributes
 768:build/OpenMote-CC2538_armgcc/openstack/02b-MAChigh/sixtop.c ****    eb->l2_securityLevel   = IEEE802154_SECURITY_LEVEL_BEACON;
 1806              		.loc 1 768 0
 1807 0908 3B68     		ldr	r3, [r7]
 1808 090a 0022     		movs	r2, #0
 1809 090c 83F86A20 		strb	r2, [r3, #106]
 769:build/OpenMote-CC2538_armgcc/openstack/02b-MAChigh/sixtop.c ****    eb->l2_keyIdMode       = IEEE802154_SECURITY_KEYIDMODE;
 1810              		.loc 1 769 0
 1811 0910 3B68     		ldr	r3, [r7]
 1812 0912 0022     		movs	r2, #0
 1813 0914 83F86B20 		strb	r2, [r3, #107]
 770:build/OpenMote-CC2538_armgcc/openstack/02b-MAChigh/sixtop.c ****    eb->l2_keyIndex        = IEEE802154_SECURITY_K1_KEY_INDEX;
 1814              		.loc 1 770 0
 1815 0918 3B68     		ldr	r3, [r7]
 1816 091a 0022     		movs	r2, #0
 1817 091c 83F86C20 		strb	r2, [r3, #108]
 771:build/OpenMote-CC2538_armgcc/openstack/02b-MAChigh/sixtop.c **** 
 772:build/OpenMote-CC2538_armgcc/openstack/02b-MAChigh/sixtop.c ****    // put in queue for MAC to handle
 773:build/OpenMote-CC2538_armgcc/openstack/02b-MAChigh/sixtop.c ****    sixtop_send_internal(eb,eb->l2_payloadIEpresent);
 1818              		.loc 1 773 0
 1819 0920 3B68     		ldr	r3, [r7]
 1820 0922 93F86630 		ldrb	r3, [r3, #102]	@ zero_extendqisi2
 1821 0926 3868     		ldr	r0, [r7]
 1822 0928 1946     		mov	r1, r3
 1823 092a FFF7FEFF 		bl	sixtop_send_internal
 774:build/OpenMote-CC2538_armgcc/openstack/02b-MAChigh/sixtop.c ****    
 775:build/OpenMote-CC2538_armgcc/openstack/02b-MAChigh/sixtop.c ****    // I'm now busy sending an EB
 776:build/OpenMote-CC2538_armgcc/openstack/02b-MAChigh/sixtop.c ****    sixtop_vars.busySendingEB = TRUE;
 1824              		.loc 1 776 0
 1825 092e 034B     		ldr	r3, .L115
 1826 0930 0122     		movs	r2, #1
 1827 0932 DA70     		strb	r2, [r3, #3]
 1828              	.L109:
 777:build/OpenMote-CC2538_armgcc/openstack/02b-MAChigh/sixtop.c **** }
 1829              		.loc 1 777 0
 1830 0934 0837     		adds	r7, r7, #8
 1831              		.cfi_def_cfa_offset 8
 1832 0936 BD46     		mov	sp, r7
 1833              		.cfi_def_cfa_register 13
 1834              		@ sp needed
 1835 0938 80BD     		pop	{r7, pc}
 1836              	.L116:
 1837 093a 00BF     		.align	2
 1838              	.L115:
 1839 093c 00000000 		.word	sixtop_vars
 1840              		.cfi_endproc
 1841              	.LFE17:
 1843              		.align	2
 1844              		.global	sixtop_sendKA
 1845              		.thumb
 1846              		.thumb_func
 1848              	sixtop_sendKA:
 1849              	.LFB18:
 778:build/OpenMote-CC2538_armgcc/openstack/02b-MAChigh/sixtop.c **** 
 779:build/OpenMote-CC2538_armgcc/openstack/02b-MAChigh/sixtop.c **** /**
 780:build/OpenMote-CC2538_armgcc/openstack/02b-MAChigh/sixtop.c **** \brief Send an keep-alive message, if necessary.
 781:build/OpenMote-CC2538_armgcc/openstack/02b-MAChigh/sixtop.c **** 
 782:build/OpenMote-CC2538_armgcc/openstack/02b-MAChigh/sixtop.c **** This is one of the MAC management tasks. This function inlines in the
 783:build/OpenMote-CC2538_armgcc/openstack/02b-MAChigh/sixtop.c **** timers_res_fired() function, but is declared as a separate function for better
 784:build/OpenMote-CC2538_armgcc/openstack/02b-MAChigh/sixtop.c **** readability of the code.
 785:build/OpenMote-CC2538_armgcc/openstack/02b-MAChigh/sixtop.c **** */
 786:build/OpenMote-CC2538_armgcc/openstack/02b-MAChigh/sixtop.c **** port_INLINE void sixtop_sendKA() {
 1850              		.loc 1 786 0
 1851              		.cfi_startproc
 1852              		@ args = 0, pretend = 0, frame = 8
 1853              		@ frame_needed = 1, uses_anonymous_args = 0
 1854 0940 80B5     		push	{r7, lr}
 1855              		.cfi_def_cfa_offset 8
 1856              		.cfi_offset 7, -8
 1857              		.cfi_offset 14, -4
 1858 0942 82B0     		sub	sp, sp, #8
 1859              		.cfi_def_cfa_offset 16
 1860 0944 00AF     		add	r7, sp, #0
 1861              		.cfi_def_cfa_register 7
 787:build/OpenMote-CC2538_armgcc/openstack/02b-MAChigh/sixtop.c ****    OpenQueueEntry_t* kaPkt;
 788:build/OpenMote-CC2538_armgcc/openstack/02b-MAChigh/sixtop.c ****    open_addr_t*      kaNeighAddr;
 789:build/OpenMote-CC2538_armgcc/openstack/02b-MAChigh/sixtop.c ****    
 790:build/OpenMote-CC2538_armgcc/openstack/02b-MAChigh/sixtop.c ****    if (ieee154e_isSynch()==FALSE) {
 1862              		.loc 1 790 0
 1863 0946 FFF7FEFF 		bl	ieee154e_isSynch
 1864 094a 0346     		mov	r3, r0
 1865 094c 83F00103 		eor	r3, r3, #1
 1866 0950 DBB2     		uxtb	r3, r3
 1867 0952 002B     		cmp	r3, #0
 1868 0954 06D0     		beq	.L118
 791:build/OpenMote-CC2538_armgcc/openstack/02b-MAChigh/sixtop.c ****       // I'm not sync'ed
 792:build/OpenMote-CC2538_armgcc/openstack/02b-MAChigh/sixtop.c ****       
 793:build/OpenMote-CC2538_armgcc/openstack/02b-MAChigh/sixtop.c ****       // delete packets genereted by this module (EB and KA) from openqueue
 794:build/OpenMote-CC2538_armgcc/openstack/02b-MAChigh/sixtop.c ****       openqueue_removeAllCreatedBy(COMPONENT_SIXTOP);
 1869              		.loc 1 794 0
 1870 0956 0C20     		movs	r0, #12
 1871 0958 FFF7FEFF 		bl	openqueue_removeAllCreatedBy
 795:build/OpenMote-CC2538_armgcc/openstack/02b-MAChigh/sixtop.c ****       
 796:build/OpenMote-CC2538_armgcc/openstack/02b-MAChigh/sixtop.c ****       // I'm now busy sending a KA
 797:build/OpenMote-CC2538_armgcc/openstack/02b-MAChigh/sixtop.c ****       sixtop_vars.busySendingKA = FALSE;
 1872              		.loc 1 797 0
 1873 095c 234B     		ldr	r3, .L123
 1874 095e 0022     		movs	r2, #0
 1875 0960 9A70     		strb	r2, [r3, #2]
 798:build/OpenMote-CC2538_armgcc/openstack/02b-MAChigh/sixtop.c ****       
 799:build/OpenMote-CC2538_armgcc/openstack/02b-MAChigh/sixtop.c ****       // stop here
 800:build/OpenMote-CC2538_armgcc/openstack/02b-MAChigh/sixtop.c ****       return;
 1876              		.loc 1 800 0
 1877 0962 40E0     		b	.L117
 1878              	.L118:
 801:build/OpenMote-CC2538_armgcc/openstack/02b-MAChigh/sixtop.c ****    }
 802:build/OpenMote-CC2538_armgcc/openstack/02b-MAChigh/sixtop.c ****    
 803:build/OpenMote-CC2538_armgcc/openstack/02b-MAChigh/sixtop.c ****    if (sixtop_vars.busySendingKA==TRUE) {
 1879              		.loc 1 803 0
 1880 0964 214B     		ldr	r3, .L123
 1881 0966 9B78     		ldrb	r3, [r3, #2]	@ zero_extendqisi2
 1882 0968 002B     		cmp	r3, #0
 1883 096a 00D0     		beq	.L120
 804:build/OpenMote-CC2538_armgcc/openstack/02b-MAChigh/sixtop.c ****       // don't proceed if I'm still sending a KA
 805:build/OpenMote-CC2538_armgcc/openstack/02b-MAChigh/sixtop.c ****       return;
 1884              		.loc 1 805 0
 1885 096c 3BE0     		b	.L117
 1886              	.L120:
 806:build/OpenMote-CC2538_armgcc/openstack/02b-MAChigh/sixtop.c ****    }
 807:build/OpenMote-CC2538_armgcc/openstack/02b-MAChigh/sixtop.c ****    
 808:build/OpenMote-CC2538_armgcc/openstack/02b-MAChigh/sixtop.c ****    kaNeighAddr = neighbors_getKANeighbor(sixtop_vars.kaPeriod);
 1887              		.loc 1 808 0
 1888 096e 1F4B     		ldr	r3, .L123
 1889 0970 1B89     		ldrh	r3, [r3, #8]
 1890 0972 1846     		mov	r0, r3
 1891 0974 FFF7FEFF 		bl	neighbors_getKANeighbor
 1892 0978 7860     		str	r0, [r7, #4]
 809:build/OpenMote-CC2538_armgcc/openstack/02b-MAChigh/sixtop.c ****    if (kaNeighAddr==NULL) {
 1893              		.loc 1 809 0
 1894 097a 7B68     		ldr	r3, [r7, #4]
 1895 097c 002B     		cmp	r3, #0
 1896 097e 00D1     		bne	.L121
 810:build/OpenMote-CC2538_armgcc/openstack/02b-MAChigh/sixtop.c ****       // don't proceed if I have no neighbor I need to send a KA to
 811:build/OpenMote-CC2538_armgcc/openstack/02b-MAChigh/sixtop.c ****       return;
 1897              		.loc 1 811 0 discriminator 2
 1898 0980 31E0     		b	.L117
 1899              	.L121:
 812:build/OpenMote-CC2538_armgcc/openstack/02b-MAChigh/sixtop.c ****    }
 813:build/OpenMote-CC2538_armgcc/openstack/02b-MAChigh/sixtop.c ****    
 814:build/OpenMote-CC2538_armgcc/openstack/02b-MAChigh/sixtop.c ****    // if I get here, I will send a KA
 815:build/OpenMote-CC2538_armgcc/openstack/02b-MAChigh/sixtop.c ****    
 816:build/OpenMote-CC2538_armgcc/openstack/02b-MAChigh/sixtop.c ****    // get a free packet buffer
 817:build/OpenMote-CC2538_armgcc/openstack/02b-MAChigh/sixtop.c ****    kaPkt = openqueue_getFreePacketBuffer(COMPONENT_SIXTOP);
 1900              		.loc 1 817 0
 1901 0982 0C20     		movs	r0, #12
 1902 0984 FFF7FEFF 		bl	openqueue_getFreePacketBuffer
 1903 0988 3860     		str	r0, [r7]
 818:build/OpenMote-CC2538_armgcc/openstack/02b-MAChigh/sixtop.c ****    if (kaPkt==NULL) {
 1904              		.loc 1 818 0
 1905 098a 3B68     		ldr	r3, [r7]
 1906 098c 002B     		cmp	r3, #0
 1907 098e 06D1     		bne	.L122
 819:build/OpenMote-CC2538_armgcc/openstack/02b-MAChigh/sixtop.c ****       openserial_printError(COMPONENT_SIXTOP,ERR_NO_FREE_PACKET_BUFFER,
 1908              		.loc 1 819 0
 1909 0990 0C20     		movs	r0, #12
 1910 0992 2C21     		movs	r1, #44
 1911 0994 0122     		movs	r2, #1
 1912 0996 0023     		movs	r3, #0
 1913 0998 FFF7FEFF 		bl	openserial_printError
 820:build/OpenMote-CC2538_armgcc/openstack/02b-MAChigh/sixtop.c ****                             (errorparameter_t)1,
 821:build/OpenMote-CC2538_armgcc/openstack/02b-MAChigh/sixtop.c ****                             (errorparameter_t)0);
 822:build/OpenMote-CC2538_armgcc/openstack/02b-MAChigh/sixtop.c ****       return;
 1914              		.loc 1 822 0
 1915 099c 23E0     		b	.L117
 1916              	.L122:
 823:build/OpenMote-CC2538_armgcc/openstack/02b-MAChigh/sixtop.c ****    }
 824:build/OpenMote-CC2538_armgcc/openstack/02b-MAChigh/sixtop.c ****    
 825:build/OpenMote-CC2538_armgcc/openstack/02b-MAChigh/sixtop.c ****    // declare ownership over that packet
 826:build/OpenMote-CC2538_armgcc/openstack/02b-MAChigh/sixtop.c ****    kaPkt->creator = COMPONENT_SIXTOP;
 1917              		.loc 1 826 0
 1918 099e 3B68     		ldr	r3, [r7]
 1919 09a0 0C22     		movs	r2, #12
 1920 09a2 1A70     		strb	r2, [r3]
 827:build/OpenMote-CC2538_armgcc/openstack/02b-MAChigh/sixtop.c ****    kaPkt->owner   = COMPONENT_SIXTOP;
 1921              		.loc 1 827 0
 1922 09a4 3B68     		ldr	r3, [r7]
 1923 09a6 0C22     		movs	r2, #12
 1924 09a8 5A70     		strb	r2, [r3, #1]
 828:build/OpenMote-CC2538_armgcc/openstack/02b-MAChigh/sixtop.c ****    
 829:build/OpenMote-CC2538_armgcc/openstack/02b-MAChigh/sixtop.c ****    // some l2 information about this packet
 830:build/OpenMote-CC2538_armgcc/openstack/02b-MAChigh/sixtop.c ****    kaPkt->l2_frameType = IEEE154_TYPE_DATA;
 1925              		.loc 1 830 0
 1926 09aa 3B68     		ldr	r3, [r7]
 1927 09ac 0122     		movs	r2, #1
 1928 09ae 83F84920 		strb	r2, [r3, #73]
 831:build/OpenMote-CC2538_armgcc/openstack/02b-MAChigh/sixtop.c ****    memcpy(&(kaPkt->l2_nextORpreviousHop),kaNeighAddr,sizeof(open_addr_t));
 1929              		.loc 1 831 0
 1930 09b2 3B68     		ldr	r3, [r7]
 1931 09b4 3833     		adds	r3, r3, #56
 1932 09b6 1846     		mov	r0, r3
 1933 09b8 7968     		ldr	r1, [r7, #4]
 1934 09ba 1122     		movs	r2, #17
 1935 09bc FFF7FEFF 		bl	memcpy
 832:build/OpenMote-CC2538_armgcc/openstack/02b-MAChigh/sixtop.c ****    
 833:build/OpenMote-CC2538_armgcc/openstack/02b-MAChigh/sixtop.c ****    // set l2-security attributes
 834:build/OpenMote-CC2538_armgcc/openstack/02b-MAChigh/sixtop.c ****    kaPkt->l2_securityLevel   = IEEE802154_SECURITY_LEVEL;
 1936              		.loc 1 834 0
 1937 09c0 3B68     		ldr	r3, [r7]
 1938 09c2 0022     		movs	r2, #0
 1939 09c4 83F86A20 		strb	r2, [r3, #106]
 835:build/OpenMote-CC2538_armgcc/openstack/02b-MAChigh/sixtop.c ****    kaPkt->l2_keyIdMode       = IEEE802154_SECURITY_KEYIDMODE;
 1940              		.loc 1 835 0
 1941 09c8 3B68     		ldr	r3, [r7]
 1942 09ca 0022     		movs	r2, #0
 1943 09cc 83F86B20 		strb	r2, [r3, #107]
 836:build/OpenMote-CC2538_armgcc/openstack/02b-MAChigh/sixtop.c ****    kaPkt->l2_keyIndex        = IEEE802154_SECURITY_K2_KEY_INDEX;
 1944              		.loc 1 836 0
 1945 09d0 3B68     		ldr	r3, [r7]
 1946 09d2 0022     		movs	r2, #0
 1947 09d4 83F86C20 		strb	r2, [r3, #108]
 837:build/OpenMote-CC2538_armgcc/openstack/02b-MAChigh/sixtop.c **** 
 838:build/OpenMote-CC2538_armgcc/openstack/02b-MAChigh/sixtop.c ****    // put in queue for MAC to handle
 839:build/OpenMote-CC2538_armgcc/openstack/02b-MAChigh/sixtop.c ****    sixtop_send_internal(kaPkt,FALSE);
 1948              		.loc 1 839 0
 1949 09d8 3868     		ldr	r0, [r7]
 1950 09da 0021     		movs	r1, #0
 1951 09dc FFF7FEFF 		bl	sixtop_send_internal
 840:build/OpenMote-CC2538_armgcc/openstack/02b-MAChigh/sixtop.c ****    
 841:build/OpenMote-CC2538_armgcc/openstack/02b-MAChigh/sixtop.c ****    // I'm now busy sending a KA
 842:build/OpenMote-CC2538_armgcc/openstack/02b-MAChigh/sixtop.c ****    sixtop_vars.busySendingKA = TRUE;
 1952              		.loc 1 842 0
 1953 09e0 024B     		ldr	r3, .L123
 1954 09e2 0122     		movs	r2, #1
 1955 09e4 9A70     		strb	r2, [r3, #2]
 1956              	.L117:
 843:build/OpenMote-CC2538_armgcc/openstack/02b-MAChigh/sixtop.c **** 
 844:build/OpenMote-CC2538_armgcc/openstack/02b-MAChigh/sixtop.c **** #ifdef OPENSIM
 845:build/OpenMote-CC2538_armgcc/openstack/02b-MAChigh/sixtop.c ****    debugpins_ka_set();
 846:build/OpenMote-CC2538_armgcc/openstack/02b-MAChigh/sixtop.c ****    debugpins_ka_clr();
 847:build/OpenMote-CC2538_armgcc/openstack/02b-MAChigh/sixtop.c **** #endif
 848:build/OpenMote-CC2538_armgcc/openstack/02b-MAChigh/sixtop.c **** }
 1957              		.loc 1 848 0
 1958 09e6 0837     		adds	r7, r7, #8
 1959              		.cfi_def_cfa_offset 8
 1960 09e8 BD46     		mov	sp, r7
 1961              		.cfi_def_cfa_register 13
 1962              		@ sp needed
 1963 09ea 80BD     		pop	{r7, pc}
 1964              	.L124:
 1965              		.align	2
 1966              	.L123:
 1967 09ec 00000000 		.word	sixtop_vars
 1968              		.cfi_endproc
 1969              	.LFE18:
 1971              		.align	2
 1972              		.global	timer_sixtop_six2six_timeout_fired
 1973              		.thumb
 1974              		.thumb_func
 1976              	timer_sixtop_six2six_timeout_fired:
 1977              	.LFB19:
 849:build/OpenMote-CC2538_armgcc/openstack/02b-MAChigh/sixtop.c **** 
 850:build/OpenMote-CC2538_armgcc/openstack/02b-MAChigh/sixtop.c **** //======= six2six task
 851:build/OpenMote-CC2538_armgcc/openstack/02b-MAChigh/sixtop.c **** 
 852:build/OpenMote-CC2538_armgcc/openstack/02b-MAChigh/sixtop.c **** void timer_sixtop_six2six_timeout_fired(void) {
 1978              		.loc 1 852 0
 1979              		.cfi_startproc
 1980              		@ args = 0, pretend = 0, frame = 0
 1981              		@ frame_needed = 1, uses_anonymous_args = 0
 1982 09f0 80B5     		push	{r7, lr}
 1983              		.cfi_def_cfa_offset 8
 1984              		.cfi_offset 7, -8
 1985              		.cfi_offset 14, -4
 1986 09f2 00AF     		add	r7, sp, #0
 1987              		.cfi_def_cfa_register 7
 853:build/OpenMote-CC2538_armgcc/openstack/02b-MAChigh/sixtop.c ****    // timeout timer fired, reset the state of sixtop to idle
 854:build/OpenMote-CC2538_armgcc/openstack/02b-MAChigh/sixtop.c ****    sixtop_vars.six2six_state = SIX_IDLE;
 1988              		.loc 1 854 0
 1989 09f4 054B     		ldr	r3, .L126
 1990 09f6 0022     		movs	r2, #0
 1991 09f8 1A73     		strb	r2, [r3, #12]
 855:build/OpenMote-CC2538_armgcc/openstack/02b-MAChigh/sixtop.c ****    sixtop_vars.handler = SIX_HANDLER_NONE;
 1992              		.loc 1 855 0
 1993 09fa 044B     		ldr	r3, .L126
 1994 09fc 0022     		movs	r2, #0
 1995 09fe 9A73     		strb	r2, [r3, #14]
 856:build/OpenMote-CC2538_armgcc/openstack/02b-MAChigh/sixtop.c ****    opentimers_stop(sixtop_vars.timeoutTimerId);
 1996              		.loc 1 856 0
 1997 0a00 024B     		ldr	r3, .L126
 1998 0a02 DB79     		ldrb	r3, [r3, #7]	@ zero_extendqisi2
 1999 0a04 1846     		mov	r0, r3
 2000 0a06 FFF7FEFF 		bl	opentimers_stop
 857:build/OpenMote-CC2538_armgcc/openstack/02b-MAChigh/sixtop.c **** }
 2001              		.loc 1 857 0
 2002 0a0a 80BD     		pop	{r7, pc}
 2003              	.L127:
 2004              		.align	2
 2005              	.L126:
 2006 0a0c 00000000 		.word	sixtop_vars
 2007              		.cfi_endproc
 2008              	.LFE19:
 2010              		.align	2
 2011              		.global	sixtop_six2six_sendDone
 2012              		.thumb
 2013              		.thumb_func
 2015              	sixtop_six2six_sendDone:
 2016              	.LFB20:
 858:build/OpenMote-CC2538_armgcc/openstack/02b-MAChigh/sixtop.c **** 
 859:build/OpenMote-CC2538_armgcc/openstack/02b-MAChigh/sixtop.c **** void sixtop_six2six_sendDone(OpenQueueEntry_t* msg, owerror_t error){
 2017              		.loc 1 859 0
 2018              		.cfi_startproc
 2019              		@ args = 0, pretend = 0, frame = 32
 2020              		@ frame_needed = 1, uses_anonymous_args = 0
 2021 0a10 80B5     		push	{r7, lr}
 2022              		.cfi_def_cfa_offset 8
 2023              		.cfi_offset 7, -8
 2024              		.cfi_offset 14, -4
 2025 0a12 88B0     		sub	sp, sp, #32
 2026              		.cfi_def_cfa_offset 40
 2027 0a14 00AF     		add	r7, sp, #0
 2028              		.cfi_def_cfa_register 7
 2029 0a16 7860     		str	r0, [r7, #4]
 2030 0a18 0B46     		mov	r3, r1
 2031 0a1a FB70     		strb	r3, [r7, #3]
 860:build/OpenMote-CC2538_armgcc/openstack/02b-MAChigh/sixtop.c ****    uint8_t i,numOfCells;
 861:build/OpenMote-CC2538_armgcc/openstack/02b-MAChigh/sixtop.c ****    uint8_t* ptr;
 862:build/OpenMote-CC2538_armgcc/openstack/02b-MAChigh/sixtop.c ****    cellInfo_ht cellList[SCHEDULEIEMAXNUMCELLS];
 863:build/OpenMote-CC2538_armgcc/openstack/02b-MAChigh/sixtop.c ****    
 864:build/OpenMote-CC2538_armgcc/openstack/02b-MAChigh/sixtop.c ****    memset(cellList,0,SCHEDULEIEMAXNUMCELLS*sizeof(cellInfo_ht));
 2032              		.loc 1 864 0
 2033 0a1c 07F10803 		add	r3, r7, #8
 2034 0a20 1846     		mov	r0, r3
 2035 0a22 0021     		movs	r1, #0
 2036 0a24 0F22     		movs	r2, #15
 2037 0a26 FFF7FEFF 		bl	memset
 865:build/OpenMote-CC2538_armgcc/openstack/02b-MAChigh/sixtop.c ****   
 866:build/OpenMote-CC2538_armgcc/openstack/02b-MAChigh/sixtop.c ****    ptr = msg->l2_sixtop_cellObjects;
 2038              		.loc 1 866 0
 2039 0a2a 7B68     		ldr	r3, [r7, #4]
 2040 0a2c 9B6D     		ldr	r3, [r3, #88]
 2041 0a2e BB61     		str	r3, [r7, #24]
 867:build/OpenMote-CC2538_armgcc/openstack/02b-MAChigh/sixtop.c ****    numOfCells = msg->l2_sixtop_numOfCells;
 2042              		.loc 1 867 0
 2043 0a30 7B68     		ldr	r3, [r7, #4]
 2044 0a32 93F85C30 		ldrb	r3, [r3, #92]
 2045 0a36 FB75     		strb	r3, [r7, #23]
 868:build/OpenMote-CC2538_armgcc/openstack/02b-MAChigh/sixtop.c ****    msg->owner = COMPONENT_SIXTOP_RES;
 2046              		.loc 1 868 0
 2047 0a38 7B68     		ldr	r3, [r7, #4]
 2048 0a3a 0F22     		movs	r2, #15
 2049 0a3c 5A70     		strb	r2, [r3, #1]
 869:build/OpenMote-CC2538_armgcc/openstack/02b-MAChigh/sixtop.c ****   
 870:build/OpenMote-CC2538_armgcc/openstack/02b-MAChigh/sixtop.c ****    if(error == E_FAIL) {
 2050              		.loc 1 870 0
 2051 0a3e FB78     		ldrb	r3, [r7, #3]	@ zero_extendqisi2
 2052 0a40 012B     		cmp	r3, #1
 2053 0a42 06D1     		bne	.L129
 871:build/OpenMote-CC2538_armgcc/openstack/02b-MAChigh/sixtop.c ****       sixtop_vars.six2six_state = SIX_IDLE;
 2054              		.loc 1 871 0
 2055 0a44 8D4B     		ldr	r3, .L148
 2056 0a46 0022     		movs	r2, #0
 2057 0a48 1A73     		strb	r2, [r3, #12]
 872:build/OpenMote-CC2538_armgcc/openstack/02b-MAChigh/sixtop.c ****       openqueue_freePacketBuffer(msg);
 2058              		.loc 1 872 0
 2059 0a4a 7868     		ldr	r0, [r7, #4]
 2060 0a4c FFF7FEFF 		bl	openqueue_freePacketBuffer
 2061 0a50 10E1     		b	.L128
 2062              	.L129:
 873:build/OpenMote-CC2538_armgcc/openstack/02b-MAChigh/sixtop.c ****       return;
 874:build/OpenMote-CC2538_armgcc/openstack/02b-MAChigh/sixtop.c ****    }
 875:build/OpenMote-CC2538_armgcc/openstack/02b-MAChigh/sixtop.c **** 
 876:build/OpenMote-CC2538_armgcc/openstack/02b-MAChigh/sixtop.c ****     switch (sixtop_vars.six2six_state) {
 2063              		.loc 1 876 0
 2064 0a52 8A4B     		ldr	r3, .L148
 2065 0a54 1B7B     		ldrb	r3, [r3, #12]	@ zero_extendqisi2
 2066 0a56 023B     		subs	r3, r3, #2
 2067 0a58 0B2B     		cmp	r3, #11
 2068 0a5a 00F20481 		bhi	.L131
 2069 0a5e 01A2     		adr	r2, .L133
 2070 0a60 52F823F0 		ldr	pc, [r2, r3, lsl #2]
 2071              		.p2align 2
 2072              	.L133:
 2073 0a64 950A0000 		.word	.L132+1
 2074 0a68 9D0A0000 		.word	.L134+1
 2075 0a6c AD0A0000 		.word	.L135+1
 2076 0a70 A50A0000 		.word	.L136+1
 2077 0a74 B50A0000 		.word	.L137+1
 2078 0a78 670C0000 		.word	.L131+1
 2079 0a7c 670C0000 		.word	.L131+1
 2080 0a80 670C0000 		.word	.L131+1
 2081 0a84 670C0000 		.word	.L131+1
 2082 0a88 670C0000 		.word	.L131+1
 2083 0a8c 670C0000 		.word	.L131+1
 2084 0a90 BD0A0000 		.word	.L138+1
 2085              		.p2align 1
 2086              	.L132:
 877:build/OpenMote-CC2538_armgcc/openstack/02b-MAChigh/sixtop.c ****     case SIX_WAIT_ADDREQUEST_SENDDONE:
 878:build/OpenMote-CC2538_armgcc/openstack/02b-MAChigh/sixtop.c ****         sixtop_vars.six2six_state = SIX_WAIT_ADDRESPONSE;
 2087              		.loc 1 878 0
 2088 0a94 794B     		ldr	r3, .L148
 2089 0a96 0722     		movs	r2, #7
 2090 0a98 1A73     		strb	r2, [r3, #12]
 879:build/OpenMote-CC2538_armgcc/openstack/02b-MAChigh/sixtop.c ****         break;
 2091              		.loc 1 879 0
 2092 0a9a E8E0     		b	.L139
 2093              	.L134:
 880:build/OpenMote-CC2538_armgcc/openstack/02b-MAChigh/sixtop.c ****     case SIX_WAIT_DELETEREQUEST_SENDDONE:
 881:build/OpenMote-CC2538_armgcc/openstack/02b-MAChigh/sixtop.c ****         sixtop_vars.six2six_state = SIX_WAIT_DELETERESPONSE;
 2094              		.loc 1 881 0
 2095 0a9c 774B     		ldr	r3, .L148
 2096 0a9e 0822     		movs	r2, #8
 2097 0aa0 1A73     		strb	r2, [r3, #12]
 882:build/OpenMote-CC2538_armgcc/openstack/02b-MAChigh/sixtop.c ****         break;
 2098              		.loc 1 882 0
 2099 0aa2 E4E0     		b	.L139
 2100              	.L136:
 883:build/OpenMote-CC2538_armgcc/openstack/02b-MAChigh/sixtop.c ****     case SIX_WAIT_LISTREQUEST_SENDDONE:
 884:build/OpenMote-CC2538_armgcc/openstack/02b-MAChigh/sixtop.c ****         sixtop_vars.six2six_state = SIX_WAIT_LISTRESPONSE;
 2101              		.loc 1 884 0
 2102 0aa4 754B     		ldr	r3, .L148
 2103 0aa6 0A22     		movs	r2, #10
 2104 0aa8 1A73     		strb	r2, [r3, #12]
 885:build/OpenMote-CC2538_armgcc/openstack/02b-MAChigh/sixtop.c ****         break;
 2105              		.loc 1 885 0
 2106 0aaa E0E0     		b	.L139
 2107              	.L135:
 886:build/OpenMote-CC2538_armgcc/openstack/02b-MAChigh/sixtop.c ****     case SIX_WAIT_COUNTREQUEST_SENDDONE:
 887:build/OpenMote-CC2538_armgcc/openstack/02b-MAChigh/sixtop.c ****         sixtop_vars.six2six_state = SIX_WAIT_COUNTRESPONSE;
 2108              		.loc 1 887 0
 2109 0aac 734B     		ldr	r3, .L148
 2110 0aae 0922     		movs	r2, #9
 2111 0ab0 1A73     		strb	r2, [r3, #12]
 888:build/OpenMote-CC2538_armgcc/openstack/02b-MAChigh/sixtop.c ****         break;
 2112              		.loc 1 888 0
 2113 0ab2 DCE0     		b	.L139
 2114              	.L137:
 889:build/OpenMote-CC2538_armgcc/openstack/02b-MAChigh/sixtop.c ****     case SIX_WAIT_CLEARREQUEST_SENDDONE:
 890:build/OpenMote-CC2538_armgcc/openstack/02b-MAChigh/sixtop.c ****         sixtop_vars.six2six_state = SIX_WAIT_CLEARRESPONSE;
 2115              		.loc 1 890 0
 2116 0ab4 714B     		ldr	r3, .L148
 2117 0ab6 0B22     		movs	r2, #11
 2118 0ab8 1A73     		strb	r2, [r3, #12]
 891:build/OpenMote-CC2538_armgcc/openstack/02b-MAChigh/sixtop.c ****         break;
 2119              		.loc 1 891 0
 2120 0aba D8E0     		b	.L139
 2121              	.L138:
 892:build/OpenMote-CC2538_armgcc/openstack/02b-MAChigh/sixtop.c ****     case SIX_WAIT_RESPONSE_SENDDONE:
 893:build/OpenMote-CC2538_armgcc/openstack/02b-MAChigh/sixtop.c ****         if (msg->l2_sixtop_returnCode == IANA_6TOP_RC_SUCCESS && error == E_SUCCESS){
 2122              		.loc 1 893 0
 2123 0abc 7B68     		ldr	r3, [r7, #4]
 2124 0abe 93F85F30 		ldrb	r3, [r3, #95]	@ zero_extendqisi2
 2125 0ac2 062B     		cmp	r3, #6
 2126 0ac4 40F0AD80 		bne	.L140
 2127              		.loc 1 893 0 is_stmt 0 discriminator 1
 2128 0ac8 FB78     		ldrb	r3, [r7, #3]	@ zero_extendqisi2
 2129 0aca 002B     		cmp	r3, #0
 2130 0acc 40F0A980 		bne	.L140
 894:build/OpenMote-CC2538_armgcc/openstack/02b-MAChigh/sixtop.c ****             if (
 895:build/OpenMote-CC2538_armgcc/openstack/02b-MAChigh/sixtop.c ****                 msg->l2_sixtop_requestCommand == IANA_6TOP_CMD_ADD ||
 2131              		.loc 1 895 0 is_stmt 1
 2132 0ad0 7B68     		ldr	r3, [r7, #4]
 2133 0ad2 93F85E30 		ldrb	r3, [r3, #94]	@ zero_extendqisi2
 894:build/OpenMote-CC2538_armgcc/openstack/02b-MAChigh/sixtop.c ****             if (
 2134              		.loc 1 894 0
 2135 0ad6 012B     		cmp	r3, #1
 2136 0ad8 05D0     		beq	.L141
 896:build/OpenMote-CC2538_armgcc/openstack/02b-MAChigh/sixtop.c ****                 msg->l2_sixtop_requestCommand == IANA_6TOP_CMD_DELETE
 2137              		.loc 1 896 0
 2138 0ada 7B68     		ldr	r3, [r7, #4]
 2139 0adc 93F85E30 		ldrb	r3, [r3, #94]	@ zero_extendqisi2
 895:build/OpenMote-CC2538_armgcc/openstack/02b-MAChigh/sixtop.c ****                 msg->l2_sixtop_requestCommand == IANA_6TOP_CMD_DELETE
 2140              		.loc 1 895 0
 2141 0ae0 022B     		cmp	r3, #2
 2142 0ae2 40F09080 		bne	.L142
 2143              	.L141:
 897:build/OpenMote-CC2538_armgcc/openstack/02b-MAChigh/sixtop.c ****             ){
 898:build/OpenMote-CC2538_armgcc/openstack/02b-MAChigh/sixtop.c ****                 if (numOfCells>0){
 2144              		.loc 1 898 0
 2145 0ae6 FB7D     		ldrb	r3, [r7, #23]	@ zero_extendqisi2
 2146 0ae8 002B     		cmp	r3, #0
 2147 0aea 00F08B80 		beq	.L143
 899:build/OpenMote-CC2538_armgcc/openstack/02b-MAChigh/sixtop.c ****                     for (i=0;i<numOfCells;i++){
 2148              		.loc 1 899 0
 2149 0aee 0023     		movs	r3, #0
 2150 0af0 FB77     		strb	r3, [r7, #31]
 2151 0af2 64E0     		b	.L144
 2152              	.L145:
 900:build/OpenMote-CC2538_armgcc/openstack/02b-MAChigh/sixtop.c ****                         //TimeSlot 2B
 901:build/OpenMote-CC2538_armgcc/openstack/02b-MAChigh/sixtop.c ****                         cellList[i].tsNum       = *(ptr);
 2153              		.loc 1 901 0 discriminator 3
 2154 0af4 FA7F     		ldrb	r2, [r7, #31]	@ zero_extendqisi2
 2155 0af6 BB69     		ldr	r3, [r7, #24]
 2156 0af8 1B78     		ldrb	r3, [r3]	@ zero_extendqisi2
 2157 0afa 99B2     		uxth	r1, r3
 2158 0afc 1346     		mov	r3, r2
 2159 0afe 9B00     		lsls	r3, r3, #2
 2160 0b00 1344     		add	r3, r3, r2
 2161 0b02 07F12002 		add	r2, r7, #32
 2162 0b06 1344     		add	r3, r3, r2
 2163 0b08 183B     		subs	r3, r3, #24
 2164 0b0a 0A46     		mov	r2, r1	@ movhi
 2165 0b0c 1A80     		strh	r2, [r3]	@ unaligned
 902:build/OpenMote-CC2538_armgcc/openstack/02b-MAChigh/sixtop.c ****                         cellList[i].tsNum      |= (*(ptr+1))<<8;
 2166              		.loc 1 902 0 discriminator 3
 2167 0b0e FA7F     		ldrb	r2, [r7, #31]	@ zero_extendqisi2
 2168 0b10 F97F     		ldrb	r1, [r7, #31]	@ zero_extendqisi2
 2169 0b12 0B46     		mov	r3, r1
 2170 0b14 9B00     		lsls	r3, r3, #2
 2171 0b16 0B44     		add	r3, r3, r1
 2172 0b18 07F12001 		add	r1, r7, #32
 2173 0b1c 0B44     		add	r3, r3, r1
 2174 0b1e 183B     		subs	r3, r3, #24
 2175 0b20 1B88     		ldrh	r3, [r3]	@ unaligned
 2176 0b22 9BB2     		uxth	r3, r3
 2177 0b24 99B2     		uxth	r1, r3
 2178 0b26 BB69     		ldr	r3, [r7, #24]
 2179 0b28 0133     		adds	r3, r3, #1
 2180 0b2a 1B78     		ldrb	r3, [r3]	@ zero_extendqisi2
 2181 0b2c 1B02     		lsls	r3, r3, #8
 2182 0b2e 9BB2     		uxth	r3, r3
 2183 0b30 0B43     		orrs	r3, r3, r1
 2184 0b32 9BB2     		uxth	r3, r3
 2185 0b34 99B2     		uxth	r1, r3
 2186 0b36 1346     		mov	r3, r2
 2187 0b38 9B00     		lsls	r3, r3, #2
 2188 0b3a 1344     		add	r3, r3, r2
 2189 0b3c 07F12002 		add	r2, r7, #32
 2190 0b40 1344     		add	r3, r3, r2
 2191 0b42 183B     		subs	r3, r3, #24
 2192 0b44 0A46     		mov	r2, r1	@ movhi
 2193 0b46 1A80     		strh	r2, [r3]	@ unaligned
 903:build/OpenMote-CC2538_armgcc/openstack/02b-MAChigh/sixtop.c ****                         //Ch.Offset 2B
 904:build/OpenMote-CC2538_armgcc/openstack/02b-MAChigh/sixtop.c ****                         cellList[i].choffset    = *(ptr+2);
 2194              		.loc 1 904 0 discriminator 3
 2195 0b48 FA7F     		ldrb	r2, [r7, #31]	@ zero_extendqisi2
 2196 0b4a BB69     		ldr	r3, [r7, #24]
 2197 0b4c 0233     		adds	r3, r3, #2
 2198 0b4e 1B78     		ldrb	r3, [r3]	@ zero_extendqisi2
 2199 0b50 99B2     		uxth	r1, r3
 2200 0b52 1346     		mov	r3, r2
 2201 0b54 9B00     		lsls	r3, r3, #2
 2202 0b56 1344     		add	r3, r3, r2
 2203 0b58 07F12002 		add	r2, r7, #32
 2204 0b5c 1344     		add	r3, r3, r2
 2205 0b5e 183B     		subs	r3, r3, #24
 2206 0b60 0A46     		mov	r2, r1	@ movhi
 2207 0b62 5A80     		strh	r2, [r3, #2]	@ unaligned
 905:build/OpenMote-CC2538_armgcc/openstack/02b-MAChigh/sixtop.c ****                         cellList[i].choffset   |= (*(ptr+3))<<8;
 2208              		.loc 1 905 0 discriminator 3
 2209 0b64 FA7F     		ldrb	r2, [r7, #31]	@ zero_extendqisi2
 2210 0b66 F97F     		ldrb	r1, [r7, #31]	@ zero_extendqisi2
 2211 0b68 0B46     		mov	r3, r1
 2212 0b6a 9B00     		lsls	r3, r3, #2
 2213 0b6c 0B44     		add	r3, r3, r1
 2214 0b6e 07F12001 		add	r1, r7, #32
 2215 0b72 0B44     		add	r3, r3, r1
 2216 0b74 183B     		subs	r3, r3, #24
 2217 0b76 5B88     		ldrh	r3, [r3, #2]	@ unaligned
 2218 0b78 9BB2     		uxth	r3, r3
 2219 0b7a 99B2     		uxth	r1, r3
 2220 0b7c BB69     		ldr	r3, [r7, #24]
 2221 0b7e 0333     		adds	r3, r3, #3
 2222 0b80 1B78     		ldrb	r3, [r3]	@ zero_extendqisi2
 2223 0b82 1B02     		lsls	r3, r3, #8
 2224 0b84 9BB2     		uxth	r3, r3
 2225 0b86 0B43     		orrs	r3, r3, r1
 2226 0b88 9BB2     		uxth	r3, r3
 2227 0b8a 99B2     		uxth	r1, r3
 2228 0b8c 1346     		mov	r3, r2
 2229 0b8e 9B00     		lsls	r3, r3, #2
 2230 0b90 1344     		add	r3, r3, r2
 2231 0b92 07F12002 		add	r2, r7, #32
 2232 0b96 1344     		add	r3, r3, r2
 2233 0b98 183B     		subs	r3, r3, #24
 2234 0b9a 0A46     		mov	r2, r1	@ movhi
 2235 0b9c 5A80     		strh	r2, [r3, #2]	@ unaligned
 906:build/OpenMote-CC2538_armgcc/openstack/02b-MAChigh/sixtop.c ****                         ptr += 4;
 2236              		.loc 1 906 0 discriminator 3
 2237 0b9e BB69     		ldr	r3, [r7, #24]
 2238 0ba0 0433     		adds	r3, r3, #4
 2239 0ba2 BB61     		str	r3, [r7, #24]
 907:build/OpenMote-CC2538_armgcc/openstack/02b-MAChigh/sixtop.c ****                         // mark with linkoptions as ocuppied
 908:build/OpenMote-CC2538_armgcc/openstack/02b-MAChigh/sixtop.c ****                         cellList[i].linkoptions = CELLTYPE_TX;
 2240              		.loc 1 908 0 discriminator 3
 2241 0ba4 FA7F     		ldrb	r2, [r7, #31]	@ zero_extendqisi2
 2242 0ba6 1346     		mov	r3, r2
 2243 0ba8 9B00     		lsls	r3, r3, #2
 2244 0baa 1344     		add	r3, r3, r2
 2245 0bac 07F12002 		add	r2, r7, #32
 2246 0bb0 1344     		add	r3, r3, r2
 2247 0bb2 183B     		subs	r3, r3, #24
 2248 0bb4 0122     		movs	r2, #1
 2249 0bb6 1A71     		strb	r2, [r3, #4]
 899:build/OpenMote-CC2538_armgcc/openstack/02b-MAChigh/sixtop.c ****                         //TimeSlot 2B
 2250              		.loc 1 899 0 discriminator 3
 2251 0bb8 FB7F     		ldrb	r3, [r7, #31]	@ zero_extendqisi2
 2252 0bba 0133     		adds	r3, r3, #1
 2253 0bbc FB77     		strb	r3, [r7, #31]
 2254              	.L144:
 899:build/OpenMote-CC2538_armgcc/openstack/02b-MAChigh/sixtop.c ****                         //TimeSlot 2B
 2255              		.loc 1 899 0 is_stmt 0 discriminator 1
 2256 0bbe FA7F     		ldrb	r2, [r7, #31]	@ zero_extendqisi2
 2257 0bc0 FB7D     		ldrb	r3, [r7, #23]	@ zero_extendqisi2
 2258 0bc2 9A42     		cmp	r2, r3
 2259 0bc4 96D3     		bcc	.L145
 909:build/OpenMote-CC2538_armgcc/openstack/02b-MAChigh/sixtop.c ****                     }
 910:build/OpenMote-CC2538_armgcc/openstack/02b-MAChigh/sixtop.c ****                     if (msg->l2_sixtop_requestCommand == IANA_6TOP_CMD_ADD){
 2260              		.loc 1 910 0 is_stmt 1
 2261 0bc6 7B68     		ldr	r3, [r7, #4]
 2262 0bc8 93F85E30 		ldrb	r3, [r3, #94]	@ zero_extendqisi2
 2263 0bcc 012B     		cmp	r3, #1
 2264 0bce 0CD1     		bne	.L146
 911:build/OpenMote-CC2538_armgcc/openstack/02b-MAChigh/sixtop.c ****                          sixtop_addCellsByState(
 2265              		.loc 1 911 0
 2266 0bd0 7B68     		ldr	r3, [r7, #4]
 2267 0bd2 93F85D00 		ldrb	r0, [r3, #93]	@ zero_extendqisi2
 2268 0bd6 7B68     		ldr	r3, [r7, #4]
 2269 0bd8 03F13802 		add	r2, r3, #56
 912:build/OpenMote-CC2538_armgcc/openstack/02b-MAChigh/sixtop.c ****                               msg->l2_sixtop_frameID,
 913:build/OpenMote-CC2538_armgcc/openstack/02b-MAChigh/sixtop.c ****                               cellList,
 914:build/OpenMote-CC2538_armgcc/openstack/02b-MAChigh/sixtop.c ****                               &(msg->l2_nextORpreviousHop),
 915:build/OpenMote-CC2538_armgcc/openstack/02b-MAChigh/sixtop.c ****                               sixtop_vars.six2six_state);
 2270              		.loc 1 915 0
 2271 0bdc 274B     		ldr	r3, .L148
 2272 0bde 1B7B     		ldrb	r3, [r3, #12]	@ zero_extendqisi2
 911:build/OpenMote-CC2538_armgcc/openstack/02b-MAChigh/sixtop.c ****                          sixtop_addCellsByState(
 2273              		.loc 1 911 0
 2274 0be0 07F10801 		add	r1, r7, #8
 2275 0be4 FFF7FEFF 		bl	sixtop_addCellsByState
 2276 0be8 0CE0     		b	.L143
 2277              	.L146:
 916:build/OpenMote-CC2538_armgcc/openstack/02b-MAChigh/sixtop.c ****                     } else {
 917:build/OpenMote-CC2538_armgcc/openstack/02b-MAChigh/sixtop.c ****                           sixtop_removeCellsByState(
 2278              		.loc 1 917 0
 2279 0bea 7B68     		ldr	r3, [r7, #4]
 2280 0bec 93F85D10 		ldrb	r1, [r3, #93]	@ zero_extendqisi2
 2281 0bf0 7B68     		ldr	r3, [r7, #4]
 2282 0bf2 3833     		adds	r3, r3, #56
 2283 0bf4 07F10802 		add	r2, r7, #8
 2284 0bf8 0846     		mov	r0, r1
 2285 0bfa 1146     		mov	r1, r2
 2286 0bfc 1A46     		mov	r2, r3
 2287 0bfe FFF7FEFF 		bl	sixtop_removeCellsByState
 898:build/OpenMote-CC2538_armgcc/openstack/02b-MAChigh/sixtop.c ****                     for (i=0;i<numOfCells;i++){
 2288              		.loc 1 898 0
 2289 0c02 0EE0     		b	.L140
 2290              	.L143:
 2291 0c04 0DE0     		b	.L140
 2292              	.L142:
 918:build/OpenMote-CC2538_armgcc/openstack/02b-MAChigh/sixtop.c ****                               msg->l2_sixtop_frameID,
 919:build/OpenMote-CC2538_armgcc/openstack/02b-MAChigh/sixtop.c ****                               cellList,
 920:build/OpenMote-CC2538_armgcc/openstack/02b-MAChigh/sixtop.c ****                               &(msg->l2_nextORpreviousHop));
 921:build/OpenMote-CC2538_armgcc/openstack/02b-MAChigh/sixtop.c ****                     }
 922:build/OpenMote-CC2538_armgcc/openstack/02b-MAChigh/sixtop.c ****                 }
 923:build/OpenMote-CC2538_armgcc/openstack/02b-MAChigh/sixtop.c ****                   
 924:build/OpenMote-CC2538_armgcc/openstack/02b-MAChigh/sixtop.c ****             } else{
 925:build/OpenMote-CC2538_armgcc/openstack/02b-MAChigh/sixtop.c ****                 if (msg->l2_sixtop_requestCommand == IANA_6TOP_CMD_CLEAR){
 2293              		.loc 1 925 0
 2294 0c06 7B68     		ldr	r3, [r7, #4]
 2295 0c08 93F85E30 		ldrb	r3, [r3, #94]	@ zero_extendqisi2
 2296 0c0c 052B     		cmp	r3, #5
 2297 0c0e 08D1     		bne	.L140
 926:build/OpenMote-CC2538_armgcc/openstack/02b-MAChigh/sixtop.c ****                     schedule_removeAllCells(msg->l2_sixtop_frameID,
 2298              		.loc 1 926 0
 2299 0c10 7B68     		ldr	r3, [r7, #4]
 2300 0c12 93F85D20 		ldrb	r2, [r3, #93]	@ zero_extendqisi2
 2301 0c16 7B68     		ldr	r3, [r7, #4]
 2302 0c18 3833     		adds	r3, r3, #56
 2303 0c1a 1046     		mov	r0, r2
 2304 0c1c 1946     		mov	r1, r3
 2305 0c1e FFF7FEFF 		bl	schedule_removeAllCells
 2306              	.L140:
 927:build/OpenMote-CC2538_armgcc/openstack/02b-MAChigh/sixtop.c ****                                           &(msg->l2_nextORpreviousHop));
 928:build/OpenMote-CC2538_armgcc/openstack/02b-MAChigh/sixtop.c ****                 }
 929:build/OpenMote-CC2538_armgcc/openstack/02b-MAChigh/sixtop.c ****             }
 930:build/OpenMote-CC2538_armgcc/openstack/02b-MAChigh/sixtop.c ****         }
 931:build/OpenMote-CC2538_armgcc/openstack/02b-MAChigh/sixtop.c ****         
 932:build/OpenMote-CC2538_armgcc/openstack/02b-MAChigh/sixtop.c ****         sixtop_vars.six2six_state = SIX_IDLE;
 2307              		.loc 1 932 0
 2308 0c22 164B     		ldr	r3, .L148
 2309 0c24 0022     		movs	r2, #0
 2310 0c26 1A73     		strb	r2, [r3, #12]
 933:build/OpenMote-CC2538_armgcc/openstack/02b-MAChigh/sixtop.c ****         sixtop_vars.handler = SIX_HANDLER_NONE;
 2311              		.loc 1 933 0
 2312 0c28 144B     		ldr	r3, .L148
 2313 0c2a 0022     		movs	r2, #0
 2314 0c2c 9A73     		strb	r2, [r3, #14]
 934:build/OpenMote-CC2538_armgcc/openstack/02b-MAChigh/sixtop.c ****         opentimers_stop(sixtop_vars.timeoutTimerId);
 2315              		.loc 1 934 0
 2316 0c2e 134B     		ldr	r3, .L148
 2317 0c30 DB79     		ldrb	r3, [r3, #7]	@ zero_extendqisi2
 2318 0c32 1846     		mov	r0, r3
 2319 0c34 FFF7FEFF 		bl	opentimers_stop
 935:build/OpenMote-CC2538_armgcc/openstack/02b-MAChigh/sixtop.c ****        
 936:build/OpenMote-CC2538_armgcc/openstack/02b-MAChigh/sixtop.c ****         if (sixtop_vars.handler == SIX_HANDLER_MAINTAIN){
 2320              		.loc 1 936 0
 2321 0c38 104B     		ldr	r3, .L148
 2322 0c3a 9B7B     		ldrb	r3, [r3, #14]	@ zero_extendqisi2
 2323 0c3c 012B     		cmp	r3, #1
 2324 0c3e 11D1     		bne	.L147
 937:build/OpenMote-CC2538_armgcc/openstack/02b-MAChigh/sixtop.c ****             sixtop_request(
 2325              		.loc 1 937 0
 2326 0c40 7B68     		ldr	r3, [r7, #4]
 2327 0c42 3833     		adds	r3, r3, #56
 2328 0c44 0220     		movs	r0, #2
 2329 0c46 1946     		mov	r1, r3
 2330 0c48 0122     		movs	r2, #1
 2331 0c4a FFF7FEFF 		bl	sixtop_request
 938:build/OpenMote-CC2538_armgcc/openstack/02b-MAChigh/sixtop.c ****                 IANA_6TOP_CMD_DELETE,
 939:build/OpenMote-CC2538_armgcc/openstack/02b-MAChigh/sixtop.c ****                 &(msg->l2_nextORpreviousHop),
 940:build/OpenMote-CC2538_armgcc/openstack/02b-MAChigh/sixtop.c ****                 1
 941:build/OpenMote-CC2538_armgcc/openstack/02b-MAChigh/sixtop.c ****             );
 942:build/OpenMote-CC2538_armgcc/openstack/02b-MAChigh/sixtop.c ****             sixtop_request(IANA_6TOP_CMD_ADD,&(msg->l2_nextORpreviousHop),1);
 2332              		.loc 1 942 0
 2333 0c4e 7B68     		ldr	r3, [r7, #4]
 2334 0c50 3833     		adds	r3, r3, #56
 2335 0c52 0120     		movs	r0, #1
 2336 0c54 1946     		mov	r1, r3
 2337 0c56 0122     		movs	r2, #1
 2338 0c58 FFF7FEFF 		bl	sixtop_request
 943:build/OpenMote-CC2538_armgcc/openstack/02b-MAChigh/sixtop.c ****             sixtop_vars.handler = SIX_HANDLER_NONE;
 2339              		.loc 1 943 0
 2340 0c5c 074B     		ldr	r3, .L148
 2341 0c5e 0022     		movs	r2, #0
 2342 0c60 9A73     		strb	r2, [r3, #14]
 944:build/OpenMote-CC2538_armgcc/openstack/02b-MAChigh/sixtop.c ****         }
 945:build/OpenMote-CC2538_armgcc/openstack/02b-MAChigh/sixtop.c ****         break;
 2343              		.loc 1 945 0
 2344 0c62 04E0     		b	.L139
 2345              	.L147:
 2346 0c64 03E0     		b	.L139
 2347              	.L131:
 946:build/OpenMote-CC2538_armgcc/openstack/02b-MAChigh/sixtop.c ****     default:
 947:build/OpenMote-CC2538_armgcc/openstack/02b-MAChigh/sixtop.c ****         //log error
 948:build/OpenMote-CC2538_armgcc/openstack/02b-MAChigh/sixtop.c ****         sixtop_vars.six2six_state = SIX_IDLE;
 2348              		.loc 1 948 0
 2349 0c66 054B     		ldr	r3, .L148
 2350 0c68 0022     		movs	r2, #0
 2351 0c6a 1A73     		strb	r2, [r3, #12]
 949:build/OpenMote-CC2538_armgcc/openstack/02b-MAChigh/sixtop.c ****         break;
 2352              		.loc 1 949 0
 2353 0c6c 00BF     		nop
 2354              	.L139:
 950:build/OpenMote-CC2538_armgcc/openstack/02b-MAChigh/sixtop.c ****     }
 951:build/OpenMote-CC2538_armgcc/openstack/02b-MAChigh/sixtop.c ****   
 952:build/OpenMote-CC2538_armgcc/openstack/02b-MAChigh/sixtop.c ****     // discard reservation packets this component has created
 953:build/OpenMote-CC2538_armgcc/openstack/02b-MAChigh/sixtop.c ****     openqueue_freePacketBuffer(msg);
 2355              		.loc 1 953 0 discriminator 1
 2356 0c6e 7868     		ldr	r0, [r7, #4]
 2357 0c70 FFF7FEFF 		bl	openqueue_freePacketBuffer
 2358              	.L128:
 954:build/OpenMote-CC2538_armgcc/openstack/02b-MAChigh/sixtop.c **** }
 2359              		.loc 1 954 0
 2360 0c74 2037     		adds	r7, r7, #32
 2361              		.cfi_def_cfa_offset 8
 2362 0c76 BD46     		mov	sp, r7
 2363              		.cfi_def_cfa_register 13
 2364              		@ sp needed
 2365 0c78 80BD     		pop	{r7, pc}
 2366              	.L149:
 2367 0c7a 00BF     		.align	2
 2368              	.L148:
 2369 0c7c 00000000 		.word	sixtop_vars
 2370              		.cfi_endproc
 2371              	.LFE20:
 2373              		.align	2
 2374              		.global	sixtop_processIEs
 2375              		.thumb
 2376              		.thumb_func
 2378              	sixtop_processIEs:
 2379              	.LFB21:
 955:build/OpenMote-CC2538_armgcc/openstack/02b-MAChigh/sixtop.c **** 
 956:build/OpenMote-CC2538_armgcc/openstack/02b-MAChigh/sixtop.c **** port_INLINE bool sixtop_processIEs(OpenQueueEntry_t* pkt, uint16_t * lenIE) {
 2380              		.loc 1 956 0
 2381              		.cfi_startproc
 2382              		@ args = 0, pretend = 0, frame = 24
 2383              		@ frame_needed = 1, uses_anonymous_args = 0
 2384 0c80 90B5     		push	{r4, r7, lr}
 2385              		.cfi_def_cfa_offset 12
 2386              		.cfi_offset 4, -12
 2387              		.cfi_offset 7, -8
 2388              		.cfi_offset 14, -4
 2389 0c82 89B0     		sub	sp, sp, #36
 2390              		.cfi_def_cfa_offset 48
 2391 0c84 02AF     		add	r7, sp, #8
 2392              		.cfi_def_cfa 7, 40
 2393 0c86 7860     		str	r0, [r7, #4]
 2394 0c88 3960     		str	r1, [r7]
 957:build/OpenMote-CC2538_armgcc/openstack/02b-MAChigh/sixtop.c ****     uint8_t ptr;
 958:build/OpenMote-CC2538_armgcc/openstack/02b-MAChigh/sixtop.c ****     uint8_t temp_8b,gr_elem_id,subid;
 959:build/OpenMote-CC2538_armgcc/openstack/02b-MAChigh/sixtop.c ****     uint16_t temp_16b,len,sublen;
 960:build/OpenMote-CC2538_armgcc/openstack/02b-MAChigh/sixtop.c ****     uint8_t version,commandIdORcode;
 961:build/OpenMote-CC2538_armgcc/openstack/02b-MAChigh/sixtop.c ****     uint8_t sfId;
 962:build/OpenMote-CC2538_armgcc/openstack/02b-MAChigh/sixtop.c ****    
 963:build/OpenMote-CC2538_armgcc/openstack/02b-MAChigh/sixtop.c ****     ptr=0;  
 2395              		.loc 1 963 0
 2396 0c8a 0023     		movs	r3, #0
 2397 0c8c FB75     		strb	r3, [r7, #23]
 964:build/OpenMote-CC2538_armgcc/openstack/02b-MAChigh/sixtop.c ****   
 965:build/OpenMote-CC2538_armgcc/openstack/02b-MAChigh/sixtop.c ****     //candidate IE header  if type ==0 header IE if type==1 payload IE
 966:build/OpenMote-CC2538_armgcc/openstack/02b-MAChigh/sixtop.c ****     temp_8b = *((uint8_t*)(pkt->payload)+ptr);
 2398              		.loc 1 966 0
 2399 0c8e 7B68     		ldr	r3, [r7, #4]
 2400 0c90 5A68     		ldr	r2, [r3, #4]
 2401 0c92 FB7D     		ldrb	r3, [r7, #23]	@ zero_extendqisi2
 2402 0c94 1344     		add	r3, r3, r2
 2403 0c96 1B78     		ldrb	r3, [r3]
 2404 0c98 FB73     		strb	r3, [r7, #15]
 967:build/OpenMote-CC2538_armgcc/openstack/02b-MAChigh/sixtop.c ****     ptr++;
 2405              		.loc 1 967 0
 2406 0c9a FB7D     		ldrb	r3, [r7, #23]	@ zero_extendqisi2
 2407 0c9c 0133     		adds	r3, r3, #1
 2408 0c9e FB75     		strb	r3, [r7, #23]
 968:build/OpenMote-CC2538_armgcc/openstack/02b-MAChigh/sixtop.c ****     temp_16b = temp_8b + ((*((uint8_t*)(pkt->payload)+ptr))<<8);
 2409              		.loc 1 968 0
 2410 0ca0 FB7B     		ldrb	r3, [r7, #15]	@ zero_extendqisi2
 2411 0ca2 9AB2     		uxth	r2, r3
 2412 0ca4 7B68     		ldr	r3, [r7, #4]
 2413 0ca6 5968     		ldr	r1, [r3, #4]
 2414 0ca8 FB7D     		ldrb	r3, [r7, #23]	@ zero_extendqisi2
 2415 0caa 0B44     		add	r3, r3, r1
 2416 0cac 1B78     		ldrb	r3, [r3]	@ zero_extendqisi2
 2417 0cae 9BB2     		uxth	r3, r3
 2418 0cb0 1B02     		lsls	r3, r3, #8
 2419 0cb2 9BB2     		uxth	r3, r3
 2420 0cb4 1344     		add	r3, r3, r2
 2421 0cb6 BB81     		strh	r3, [r7, #12]	@ movhi
 969:build/OpenMote-CC2538_armgcc/openstack/02b-MAChigh/sixtop.c ****     ptr++;
 2422              		.loc 1 969 0
 2423 0cb8 FB7D     		ldrb	r3, [r7, #23]	@ zero_extendqisi2
 2424 0cba 0133     		adds	r3, r3, #1
 2425 0cbc FB75     		strb	r3, [r7, #23]
 970:build/OpenMote-CC2538_armgcc/openstack/02b-MAChigh/sixtop.c ****     *lenIE = ptr;
 2426              		.loc 1 970 0
 2427 0cbe FB7D     		ldrb	r3, [r7, #23]	@ zero_extendqisi2
 2428 0cc0 9AB2     		uxth	r2, r3
 2429 0cc2 3B68     		ldr	r3, [r7]
 2430 0cc4 1A80     		strh	r2, [r3]	@ movhi
 971:build/OpenMote-CC2538_armgcc/openstack/02b-MAChigh/sixtop.c ****     if(
 972:build/OpenMote-CC2538_armgcc/openstack/02b-MAChigh/sixtop.c ****         (temp_16b & IEEE802154E_DESC_TYPE_PAYLOAD_IE) == 
 2431              		.loc 1 972 0
 2432 0cc6 BB89     		ldrh	r3, [r7, #12]
 971:build/OpenMote-CC2538_armgcc/openstack/02b-MAChigh/sixtop.c ****     if(
 2433              		.loc 1 971 0
 2434 0cc8 1BB2     		sxth	r3, r3
 2435 0cca 002B     		cmp	r3, #0
 2436 0ccc 09DA     		bge	.L151
 973:build/OpenMote-CC2538_armgcc/openstack/02b-MAChigh/sixtop.c ****         IEEE802154E_DESC_TYPE_PAYLOAD_IE
 974:build/OpenMote-CC2538_armgcc/openstack/02b-MAChigh/sixtop.c ****     ){
 975:build/OpenMote-CC2538_armgcc/openstack/02b-MAChigh/sixtop.c ****         //payload IE - last bit is 1
 976:build/OpenMote-CC2538_armgcc/openstack/02b-MAChigh/sixtop.c ****         len = temp_16b & IEEE802154E_DESC_LEN_PAYLOAD_IE_MASK;
 2437              		.loc 1 976 0
 2438 0cce BB89     		ldrh	r3, [r7, #12]	@ movhi
 2439 0cd0 C3F30A03 		ubfx	r3, r3, #0, #11
 2440 0cd4 7B82     		strh	r3, [r7, #18]	@ movhi
 977:build/OpenMote-CC2538_armgcc/openstack/02b-MAChigh/sixtop.c ****         gr_elem_id = 
 978:build/OpenMote-CC2538_armgcc/openstack/02b-MAChigh/sixtop.c ****             (temp_16b & IEEE802154E_DESC_GROUPID_PAYLOAD_IE_MASK)>>
 2441              		.loc 1 978 0
 2442 0cd6 BB89     		ldrh	r3, [r7, #12]
 2443 0cd8 03F4F043 		and	r3, r3, #30720
 2444 0cdc DB12     		asrs	r3, r3, #11
 977:build/OpenMote-CC2538_armgcc/openstack/02b-MAChigh/sixtop.c ****         gr_elem_id = 
 2445              		.loc 1 977 0
 2446 0cde BB75     		strb	r3, [r7, #22]
 2447 0ce0 08E0     		b	.L152
 2448              	.L151:
 979:build/OpenMote-CC2538_armgcc/openstack/02b-MAChigh/sixtop.c ****             IEEE802154E_DESC_GROUPID_PAYLOAD_IE_SHIFT;
 980:build/OpenMote-CC2538_armgcc/openstack/02b-MAChigh/sixtop.c ****     }else {
 981:build/OpenMote-CC2538_armgcc/openstack/02b-MAChigh/sixtop.c ****         //header IE - last bit is 0
 982:build/OpenMote-CC2538_armgcc/openstack/02b-MAChigh/sixtop.c ****         len = temp_16b & IEEE802154E_DESC_LEN_HEADER_IE_MASK;
 2449              		.loc 1 982 0
 2450 0ce2 BB89     		ldrh	r3, [r7, #12]	@ movhi
 2451 0ce4 03F07F03 		and	r3, r3, #127
 2452 0ce8 7B82     		strh	r3, [r7, #18]	@ movhi
 983:build/OpenMote-CC2538_armgcc/openstack/02b-MAChigh/sixtop.c ****         gr_elem_id = (temp_16b & IEEE802154E_DESC_ELEMENTID_HEADER_IE_MASK)>>
 2453              		.loc 1 983 0
 2454 0cea BB89     		ldrh	r3, [r7, #12]
 2455 0cec 03F4FF43 		and	r3, r3, #32640
 2456 0cf0 DB11     		asrs	r3, r3, #7
 2457 0cf2 BB75     		strb	r3, [r7, #22]
 2458              	.L152:
 984:build/OpenMote-CC2538_armgcc/openstack/02b-MAChigh/sixtop.c ****             IEEE802154E_DESC_ELEMENTID_HEADER_IE_SHIFT; 
 985:build/OpenMote-CC2538_armgcc/openstack/02b-MAChigh/sixtop.c ****     }
 986:build/OpenMote-CC2538_armgcc/openstack/02b-MAChigh/sixtop.c ****   
 987:build/OpenMote-CC2538_armgcc/openstack/02b-MAChigh/sixtop.c ****     *lenIE += len;
 2459              		.loc 1 987 0
 2460 0cf4 3B68     		ldr	r3, [r7]
 2461 0cf6 1A88     		ldrh	r2, [r3]
 2462 0cf8 7B8A     		ldrh	r3, [r7, #18]	@ movhi
 2463 0cfa 1344     		add	r3, r3, r2
 2464 0cfc 9AB2     		uxth	r2, r3
 2465 0cfe 3B68     		ldr	r3, [r7]
 2466 0d00 1A80     		strh	r2, [r3]	@ movhi
 988:build/OpenMote-CC2538_armgcc/openstack/02b-MAChigh/sixtop.c ****     //now determine sub elements if any
 989:build/OpenMote-CC2538_armgcc/openstack/02b-MAChigh/sixtop.c ****     switch(gr_elem_id){
 2467              		.loc 1 989 0
 2468 0d02 BB7D     		ldrb	r3, [r7, #22]	@ zero_extendqisi2
 2469 0d04 012B     		cmp	r3, #1
 2470 0d06 02D0     		beq	.L154
 2471 0d08 022B     		cmp	r3, #2
 2472 0d0a 6DD0     		beq	.L155
 2473 0d0c ADE0     		b	.L167
 2474              	.L154:
 990:build/OpenMote-CC2538_armgcc/openstack/02b-MAChigh/sixtop.c ****     //this is the only groupID that we parse. See page 82.  
 991:build/OpenMote-CC2538_armgcc/openstack/02b-MAChigh/sixtop.c ****     case IEEE802154E_MLME_IE_GROUPID:
 992:build/OpenMote-CC2538_armgcc/openstack/02b-MAChigh/sixtop.c ****         //IE content can be any of the sub-IEs. Parse and see which
 993:build/OpenMote-CC2538_armgcc/openstack/02b-MAChigh/sixtop.c ****         do{
 994:build/OpenMote-CC2538_armgcc/openstack/02b-MAChigh/sixtop.c ****             //read sub IE header
 995:build/OpenMote-CC2538_armgcc/openstack/02b-MAChigh/sixtop.c ****             temp_8b = *((uint8_t*)(pkt->payload)+ptr);
 2475              		.loc 1 995 0
 2476 0d0e 7B68     		ldr	r3, [r7, #4]
 2477 0d10 5A68     		ldr	r2, [r3, #4]
 2478 0d12 FB7D     		ldrb	r3, [r7, #23]	@ zero_extendqisi2
 2479 0d14 1344     		add	r3, r3, r2
 2480 0d16 1B78     		ldrb	r3, [r3]
 2481 0d18 FB73     		strb	r3, [r7, #15]
 996:build/OpenMote-CC2538_armgcc/openstack/02b-MAChigh/sixtop.c ****             ptr = ptr + 1;
 2482              		.loc 1 996 0
 2483 0d1a FB7D     		ldrb	r3, [r7, #23]
 2484 0d1c 0133     		adds	r3, r3, #1
 2485 0d1e FB75     		strb	r3, [r7, #23]
 997:build/OpenMote-CC2538_armgcc/openstack/02b-MAChigh/sixtop.c ****             temp_16b = temp_8b + ((*((uint8_t*)(pkt->payload)+ptr))<<8);
 2486              		.loc 1 997 0
 2487 0d20 FB7B     		ldrb	r3, [r7, #15]	@ zero_extendqisi2
 2488 0d22 9AB2     		uxth	r2, r3
 2489 0d24 7B68     		ldr	r3, [r7, #4]
 2490 0d26 5968     		ldr	r1, [r3, #4]
 2491 0d28 FB7D     		ldrb	r3, [r7, #23]	@ zero_extendqisi2
 2492 0d2a 0B44     		add	r3, r3, r1
 2493 0d2c 1B78     		ldrb	r3, [r3]	@ zero_extendqisi2
 2494 0d2e 9BB2     		uxth	r3, r3
 2495 0d30 1B02     		lsls	r3, r3, #8
 2496 0d32 9BB2     		uxth	r3, r3
 2497 0d34 1344     		add	r3, r3, r2
 2498 0d36 BB81     		strh	r3, [r7, #12]	@ movhi
 998:build/OpenMote-CC2538_armgcc/openstack/02b-MAChigh/sixtop.c ****             ptr = ptr + 1;
 2499              		.loc 1 998 0
 2500 0d38 FB7D     		ldrb	r3, [r7, #23]
 2501 0d3a 0133     		adds	r3, r3, #1
 2502 0d3c FB75     		strb	r3, [r7, #23]
 999:build/OpenMote-CC2538_armgcc/openstack/02b-MAChigh/sixtop.c ****             len = len - 2; //remove header fields len
 2503              		.loc 1 999 0
 2504 0d3e 7B8A     		ldrh	r3, [r7, #18]	@ movhi
 2505 0d40 023B     		subs	r3, r3, #2
 2506 0d42 7B82     		strh	r3, [r7, #18]	@ movhi
1000:build/OpenMote-CC2538_armgcc/openstack/02b-MAChigh/sixtop.c ****             if(
1001:build/OpenMote-CC2538_armgcc/openstack/02b-MAChigh/sixtop.c ****                 (temp_16b & IEEE802154E_DESC_TYPE_LONG) == 
 2507              		.loc 1 1001 0
 2508 0d44 BB89     		ldrh	r3, [r7, #12]
1000:build/OpenMote-CC2538_armgcc/openstack/02b-MAChigh/sixtop.c ****             if(
 2509              		.loc 1 1000 0
 2510 0d46 1BB2     		sxth	r3, r3
 2511 0d48 002B     		cmp	r3, #0
 2512 0d4a 09DA     		bge	.L156
1002:build/OpenMote-CC2538_armgcc/openstack/02b-MAChigh/sixtop.c ****                 IEEE802154E_DESC_TYPE_LONG
1003:build/OpenMote-CC2538_armgcc/openstack/02b-MAChigh/sixtop.c ****             ){
1004:build/OpenMote-CC2538_armgcc/openstack/02b-MAChigh/sixtop.c ****                 //long sub-IE - last bit is 1
1005:build/OpenMote-CC2538_armgcc/openstack/02b-MAChigh/sixtop.c ****                 sublen = temp_16b & IEEE802154E_DESC_LEN_LONG_MLME_IE_MASK;
 2513              		.loc 1 1005 0
 2514 0d4c BB89     		ldrh	r3, [r7, #12]	@ movhi
 2515 0d4e C3F30A03 		ubfx	r3, r3, #0, #11
 2516 0d52 3B82     		strh	r3, [r7, #16]	@ movhi
1006:build/OpenMote-CC2538_armgcc/openstack/02b-MAChigh/sixtop.c ****                 subid= 
1007:build/OpenMote-CC2538_armgcc/openstack/02b-MAChigh/sixtop.c ****                     (temp_16b & IEEE802154E_DESC_SUBID_LONG_MLME_IE_MASK)>>
 2517              		.loc 1 1007 0
 2518 0d54 BB89     		ldrh	r3, [r7, #12]
 2519 0d56 03F4F043 		and	r3, r3, #30720
 2520 0d5a DB12     		asrs	r3, r3, #11
1006:build/OpenMote-CC2538_armgcc/openstack/02b-MAChigh/sixtop.c ****                 subid= 
 2521              		.loc 1 1006 0
 2522 0d5c 7B75     		strb	r3, [r7, #21]
 2523 0d5e 07E0     		b	.L157
 2524              	.L156:
1008:build/OpenMote-CC2538_armgcc/openstack/02b-MAChigh/sixtop.c ****                     IEEE802154E_DESC_SUBID_LONG_MLME_IE_SHIFT; 
1009:build/OpenMote-CC2538_armgcc/openstack/02b-MAChigh/sixtop.c ****             } else {
1010:build/OpenMote-CC2538_armgcc/openstack/02b-MAChigh/sixtop.c ****                 //short IE - last bit is 0
1011:build/OpenMote-CC2538_armgcc/openstack/02b-MAChigh/sixtop.c ****                 sublen = temp_16b & IEEE802154E_DESC_LEN_SHORT_MLME_IE_MASK;
 2525              		.loc 1 1011 0
 2526 0d60 BB89     		ldrh	r3, [r7, #12]	@ movhi
 2527 0d62 DBB2     		uxtb	r3, r3
 2528 0d64 3B82     		strh	r3, [r7, #16]	@ movhi
1012:build/OpenMote-CC2538_armgcc/openstack/02b-MAChigh/sixtop.c ****                 subid = (temp_16b & IEEE802154E_DESC_SUBID_SHORT_MLME_IE_MASK)>>
 2529              		.loc 1 1012 0
 2530 0d66 BB89     		ldrh	r3, [r7, #12]
 2531 0d68 03F4FE43 		and	r3, r3, #32512
 2532 0d6c 1B12     		asrs	r3, r3, #8
 2533 0d6e 7B75     		strb	r3, [r7, #21]
 2534              	.L157:
1013:build/OpenMote-CC2538_armgcc/openstack/02b-MAChigh/sixtop.c ****                 IEEE802154E_DESC_SUBID_SHORT_MLME_IE_SHIFT; 
1014:build/OpenMote-CC2538_armgcc/openstack/02b-MAChigh/sixtop.c ****             }
1015:build/OpenMote-CC2538_armgcc/openstack/02b-MAChigh/sixtop.c ****             switch(subid){
 2535              		.loc 1 1015 0
 2536 0d70 7B7D     		ldrb	r3, [r7, #21]	@ zero_extendqisi2
 2537 0d72 002B     		cmp	r3, #0
 2538 0d74 2ED1     		bne	.L168
1016:build/OpenMote-CC2538_armgcc/openstack/02b-MAChigh/sixtop.c ****             case IANA_6TOP_SUBIE_ID:
1017:build/OpenMote-CC2538_armgcc/openstack/02b-MAChigh/sixtop.c ****                 temp_8b = *((uint8_t*)(pkt->payload)+ptr);
 2539              		.loc 1 1017 0
 2540 0d76 7B68     		ldr	r3, [r7, #4]
 2541 0d78 5A68     		ldr	r2, [r3, #4]
 2542 0d7a FB7D     		ldrb	r3, [r7, #23]	@ zero_extendqisi2
 2543 0d7c 1344     		add	r3, r3, r2
 2544 0d7e 1B78     		ldrb	r3, [r3]
 2545 0d80 FB73     		strb	r3, [r7, #15]
1018:build/OpenMote-CC2538_armgcc/openstack/02b-MAChigh/sixtop.c ****                 ptr = ptr + 1;
 2546              		.loc 1 1018 0
 2547 0d82 FB7D     		ldrb	r3, [r7, #23]
 2548 0d84 0133     		adds	r3, r3, #1
 2549 0d86 FB75     		strb	r3, [r7, #23]
1019:build/OpenMote-CC2538_armgcc/openstack/02b-MAChigh/sixtop.c ****                 // get 6P version and command ID
1020:build/OpenMote-CC2538_armgcc/openstack/02b-MAChigh/sixtop.c ****                 version   = temp_8b & 0x0f;
 2550              		.loc 1 1020 0
 2551 0d88 FB7B     		ldrb	r3, [r7, #15]
 2552 0d8a 03F00F03 		and	r3, r3, #15
 2553 0d8e FB72     		strb	r3, [r7, #11]
1021:build/OpenMote-CC2538_armgcc/openstack/02b-MAChigh/sixtop.c ****                 commandIdORcode = (temp_8b >> 4) & 0x0f;
 2554              		.loc 1 1021 0
 2555 0d90 FB7B     		ldrb	r3, [r7, #15]	@ zero_extendqisi2
 2556 0d92 1B09     		lsrs	r3, r3, #4
 2557 0d94 BB72     		strb	r3, [r7, #10]
1022:build/OpenMote-CC2538_armgcc/openstack/02b-MAChigh/sixtop.c ****                 // get sf_id
1023:build/OpenMote-CC2538_armgcc/openstack/02b-MAChigh/sixtop.c ****                 sfId = *((uint8_t*)(pkt->payload)+ptr);
 2558              		.loc 1 1023 0
 2559 0d96 7B68     		ldr	r3, [r7, #4]
 2560 0d98 5A68     		ldr	r2, [r3, #4]
 2561 0d9a FB7D     		ldrb	r3, [r7, #23]	@ zero_extendqisi2
 2562 0d9c 1344     		add	r3, r3, r2
 2563 0d9e 1B78     		ldrb	r3, [r3]
 2564 0da0 7B72     		strb	r3, [r7, #9]
1024:build/OpenMote-CC2538_armgcc/openstack/02b-MAChigh/sixtop.c ****                 ptr = ptr + 1;
 2565              		.loc 1 1024 0
 2566 0da2 FB7D     		ldrb	r3, [r7, #23]
 2567 0da4 0133     		adds	r3, r3, #1
 2568 0da6 FB75     		strb	r3, [r7, #23]
1025:build/OpenMote-CC2538_armgcc/openstack/02b-MAChigh/sixtop.c ****                 sixtop_notifyReceiveCommand(version,commandIdORcode,sfId,ptr,sublen-2,pkt);
 2569              		.loc 1 1025 0
 2570 0da8 3B8A     		ldrh	r3, [r7, #16]	@ movhi
 2571 0daa DBB2     		uxtb	r3, r3
 2572 0dac 023B     		subs	r3, r3, #2
 2573 0dae DBB2     		uxtb	r3, r3
 2574 0db0 F87A     		ldrb	r0, [r7, #11]	@ zero_extendqisi2
 2575 0db2 B97A     		ldrb	r1, [r7, #10]	@ zero_extendqisi2
 2576 0db4 7A7A     		ldrb	r2, [r7, #9]	@ zero_extendqisi2
 2577 0db6 FC7D     		ldrb	r4, [r7, #23]	@ zero_extendqisi2
 2578 0db8 0093     		str	r3, [sp]
 2579 0dba 7B68     		ldr	r3, [r7, #4]
 2580 0dbc 0193     		str	r3, [sp, #4]
 2581 0dbe 2346     		mov	r3, r4
 2582 0dc0 FFF7FEFF 		bl	sixtop_notifyReceiveCommand
1026:build/OpenMote-CC2538_armgcc/openstack/02b-MAChigh/sixtop.c ****                 ptr += sublen-2;
 2583              		.loc 1 1026 0
 2584 0dc4 3B8A     		ldrh	r3, [r7, #16]	@ movhi
 2585 0dc6 DAB2     		uxtb	r2, r3
 2586 0dc8 FB7D     		ldrb	r3, [r7, #23]
 2587 0dca 1344     		add	r3, r3, r2
 2588 0dcc DBB2     		uxtb	r3, r3
 2589 0dce 023B     		subs	r3, r3, #2
 2590 0dd0 FB75     		strb	r3, [r7, #23]
1027:build/OpenMote-CC2538_armgcc/openstack/02b-MAChigh/sixtop.c ****                 break;
 2591              		.loc 1 1027 0
 2592 0dd2 01E0     		b	.L169
 2593              	.L168:
1028:build/OpenMote-CC2538_armgcc/openstack/02b-MAChigh/sixtop.c ****             default:
1029:build/OpenMote-CC2538_armgcc/openstack/02b-MAChigh/sixtop.c ****                 return FALSE;
 2594              		.loc 1 1029 0
 2595 0dd4 0023     		movs	r3, #0
 2596 0dd6 5AE0     		b	.L161
 2597              	.L169:
1030:build/OpenMote-CC2538_armgcc/openstack/02b-MAChigh/sixtop.c ****             }
1031:build/OpenMote-CC2538_armgcc/openstack/02b-MAChigh/sixtop.c ****             len = len - sublen;
 2598              		.loc 1 1031 0
 2599 0dd8 7A8A     		ldrh	r2, [r7, #18]	@ movhi
 2600 0dda 3B8A     		ldrh	r3, [r7, #16]	@ movhi
 2601 0ddc D31A     		subs	r3, r2, r3
 2602 0dde 7B82     		strh	r3, [r7, #18]	@ movhi
1032:build/OpenMote-CC2538_armgcc/openstack/02b-MAChigh/sixtop.c ****         } while(len>0);
 2603              		.loc 1 1032 0
 2604 0de0 7B8A     		ldrh	r3, [r7, #18]
 2605 0de2 002B     		cmp	r3, #0
 2606 0de4 93D1     		bne	.L154
1033:build/OpenMote-CC2538_armgcc/openstack/02b-MAChigh/sixtop.c ****         break;
 2607              		.loc 1 1033 0
 2608 0de6 45E0     		b	.L162
 2609              	.L155:
1034:build/OpenMote-CC2538_armgcc/openstack/02b-MAChigh/sixtop.c ****     case SIXTOP_IE_GROUPID:
1035:build/OpenMote-CC2538_armgcc/openstack/02b-MAChigh/sixtop.c ****         subid = *((uint8_t*)(pkt->payload)+ptr);
 2610              		.loc 1 1035 0
 2611 0de8 7B68     		ldr	r3, [r7, #4]
 2612 0dea 5A68     		ldr	r2, [r3, #4]
 2613 0dec FB7D     		ldrb	r3, [r7, #23]	@ zero_extendqisi2
 2614 0dee 1344     		add	r3, r3, r2
 2615 0df0 1B78     		ldrb	r3, [r3]
 2616 0df2 7B75     		strb	r3, [r7, #21]
1036:build/OpenMote-CC2538_armgcc/openstack/02b-MAChigh/sixtop.c ****         ptr += 1;
 2617              		.loc 1 1036 0
 2618 0df4 FB7D     		ldrb	r3, [r7, #23]
 2619 0df6 0133     		adds	r3, r3, #1
 2620 0df8 FB75     		strb	r3, [r7, #23]
1037:build/OpenMote-CC2538_armgcc/openstack/02b-MAChigh/sixtop.c ****         sublen = len - 1;
 2621              		.loc 1 1037 0
 2622 0dfa 7B8A     		ldrh	r3, [r7, #18]	@ movhi
 2623 0dfc 013B     		subs	r3, r3, #1
 2624 0dfe 3B82     		strh	r3, [r7, #16]	@ movhi
1038:build/OpenMote-CC2538_armgcc/openstack/02b-MAChigh/sixtop.c ****         switch(subid){
 2625              		.loc 1 1038 0
 2626 0e00 7B7D     		ldrb	r3, [r7, #21]	@ zero_extendqisi2
 2627 0e02 002B     		cmp	r3, #0
 2628 0e04 2FD1     		bne	.L170
1039:build/OpenMote-CC2538_armgcc/openstack/02b-MAChigh/sixtop.c ****             case IANA_6TOP_SUBIE_ID:
1040:build/OpenMote-CC2538_armgcc/openstack/02b-MAChigh/sixtop.c ****                 temp_8b = *((uint8_t*)(pkt->payload)+ptr);
 2629              		.loc 1 1040 0
 2630 0e06 7B68     		ldr	r3, [r7, #4]
 2631 0e08 5A68     		ldr	r2, [r3, #4]
 2632 0e0a FB7D     		ldrb	r3, [r7, #23]	@ zero_extendqisi2
 2633 0e0c 1344     		add	r3, r3, r2
 2634 0e0e 1B78     		ldrb	r3, [r3]
 2635 0e10 FB73     		strb	r3, [r7, #15]
1041:build/OpenMote-CC2538_armgcc/openstack/02b-MAChigh/sixtop.c ****                 ptr = ptr + 1;
 2636              		.loc 1 1041 0
 2637 0e12 FB7D     		ldrb	r3, [r7, #23]
 2638 0e14 0133     		adds	r3, r3, #1
 2639 0e16 FB75     		strb	r3, [r7, #23]
1042:build/OpenMote-CC2538_armgcc/openstack/02b-MAChigh/sixtop.c ****                 // get 6P version and command ID
1043:build/OpenMote-CC2538_armgcc/openstack/02b-MAChigh/sixtop.c ****                 version   = temp_8b & 0x0f;
 2640              		.loc 1 1043 0
 2641 0e18 FB7B     		ldrb	r3, [r7, #15]
 2642 0e1a 03F00F03 		and	r3, r3, #15
 2643 0e1e FB72     		strb	r3, [r7, #11]
1044:build/OpenMote-CC2538_armgcc/openstack/02b-MAChigh/sixtop.c ****                 commandIdORcode = (temp_8b >> 4) & 0x0f;
 2644              		.loc 1 1044 0
 2645 0e20 FB7B     		ldrb	r3, [r7, #15]	@ zero_extendqisi2
 2646 0e22 1B09     		lsrs	r3, r3, #4
 2647 0e24 BB72     		strb	r3, [r7, #10]
1045:build/OpenMote-CC2538_armgcc/openstack/02b-MAChigh/sixtop.c ****                 // get sf_id
1046:build/OpenMote-CC2538_armgcc/openstack/02b-MAChigh/sixtop.c ****                 sfId = *((uint8_t*)(pkt->payload)+ptr);
 2648              		.loc 1 1046 0
 2649 0e26 7B68     		ldr	r3, [r7, #4]
 2650 0e28 5A68     		ldr	r2, [r3, #4]
 2651 0e2a FB7D     		ldrb	r3, [r7, #23]	@ zero_extendqisi2
 2652 0e2c 1344     		add	r3, r3, r2
 2653 0e2e 1B78     		ldrb	r3, [r3]
 2654 0e30 7B72     		strb	r3, [r7, #9]
1047:build/OpenMote-CC2538_armgcc/openstack/02b-MAChigh/sixtop.c ****                 ptr = ptr + 1;
 2655              		.loc 1 1047 0
 2656 0e32 FB7D     		ldrb	r3, [r7, #23]
 2657 0e34 0133     		adds	r3, r3, #1
 2658 0e36 FB75     		strb	r3, [r7, #23]
1048:build/OpenMote-CC2538_armgcc/openstack/02b-MAChigh/sixtop.c ****                 sixtop_notifyReceiveCommand(version,commandIdORcode,sfId,ptr,sublen-2,pkt);
 2659              		.loc 1 1048 0
 2660 0e38 3B8A     		ldrh	r3, [r7, #16]	@ movhi
 2661 0e3a DBB2     		uxtb	r3, r3
 2662 0e3c 023B     		subs	r3, r3, #2
 2663 0e3e DBB2     		uxtb	r3, r3
 2664 0e40 F87A     		ldrb	r0, [r7, #11]	@ zero_extendqisi2
 2665 0e42 B97A     		ldrb	r1, [r7, #10]	@ zero_extendqisi2
 2666 0e44 7A7A     		ldrb	r2, [r7, #9]	@ zero_extendqisi2
 2667 0e46 FC7D     		ldrb	r4, [r7, #23]	@ zero_extendqisi2
 2668 0e48 0093     		str	r3, [sp]
 2669 0e4a 7B68     		ldr	r3, [r7, #4]
 2670 0e4c 0193     		str	r3, [sp, #4]
 2671 0e4e 2346     		mov	r3, r4
 2672 0e50 FFF7FEFF 		bl	sixtop_notifyReceiveCommand
1049:build/OpenMote-CC2538_armgcc/openstack/02b-MAChigh/sixtop.c ****                 ptr += sublen-2;
 2673              		.loc 1 1049 0
 2674 0e54 3B8A     		ldrh	r3, [r7, #16]	@ movhi
 2675 0e56 DAB2     		uxtb	r2, r3
 2676 0e58 FB7D     		ldrb	r3, [r7, #23]
 2677 0e5a 1344     		add	r3, r3, r2
 2678 0e5c DBB2     		uxtb	r3, r3
 2679 0e5e 023B     		subs	r3, r3, #2
 2680 0e60 FB75     		strb	r3, [r7, #23]
1050:build/OpenMote-CC2538_armgcc/openstack/02b-MAChigh/sixtop.c ****                 break;
 2681              		.loc 1 1050 0
 2682 0e62 00BF     		nop
1051:build/OpenMote-CC2538_armgcc/openstack/02b-MAChigh/sixtop.c ****             default:
1052:build/OpenMote-CC2538_armgcc/openstack/02b-MAChigh/sixtop.c ****                 return FALSE;
1053:build/OpenMote-CC2538_armgcc/openstack/02b-MAChigh/sixtop.c ****         }
1054:build/OpenMote-CC2538_armgcc/openstack/02b-MAChigh/sixtop.c ****         break;
 2683              		.loc 1 1054 0
 2684 0e64 06E0     		b	.L162
 2685              	.L170:
1052:build/OpenMote-CC2538_armgcc/openstack/02b-MAChigh/sixtop.c ****         }
 2686              		.loc 1 1052 0
 2687 0e66 0023     		movs	r3, #0
 2688 0e68 11E0     		b	.L161
 2689              	.L167:
1055:build/OpenMote-CC2538_armgcc/openstack/02b-MAChigh/sixtop.c ****     default:
1056:build/OpenMote-CC2538_armgcc/openstack/02b-MAChigh/sixtop.c ****         *lenIE = 0;//no header or not recognized.
 2690              		.loc 1 1056 0
 2691 0e6a 3B68     		ldr	r3, [r7]
 2692 0e6c 0022     		movs	r2, #0
 2693 0e6e 1A80     		strh	r2, [r3]	@ movhi
1057:build/OpenMote-CC2538_armgcc/openstack/02b-MAChigh/sixtop.c ****         return FALSE;
 2694              		.loc 1 1057 0
 2695 0e70 0023     		movs	r3, #0
 2696 0e72 0CE0     		b	.L161
 2697              	.L162:
1058:build/OpenMote-CC2538_armgcc/openstack/02b-MAChigh/sixtop.c ****     }
1059:build/OpenMote-CC2538_armgcc/openstack/02b-MAChigh/sixtop.c ****     if (*lenIE>127) {
 2698              		.loc 1 1059 0
 2699 0e74 3B68     		ldr	r3, [r7]
 2700 0e76 1B88     		ldrh	r3, [r3]
 2701 0e78 7F2B     		cmp	r3, #127
 2702 0e7a 07D9     		bls	.L166
1060:build/OpenMote-CC2538_armgcc/openstack/02b-MAChigh/sixtop.c ****         // log the error
1061:build/OpenMote-CC2538_armgcc/openstack/02b-MAChigh/sixtop.c ****         openserial_printError(COMPONENT_IEEE802154E,ERR_HEADER_TOO_LONG,
 2703              		.loc 1 1061 0
 2704 0e7c 3B68     		ldr	r3, [r7]
 2705 0e7e 1B88     		ldrh	r3, [r3]
 2706 0e80 0920     		movs	r0, #9
 2707 0e82 3321     		movs	r1, #51
 2708 0e84 1A46     		mov	r2, r3
 2709 0e86 0123     		movs	r3, #1
 2710 0e88 FFF7FEFF 		bl	openserial_printError
 2711              	.L166:
1062:build/OpenMote-CC2538_armgcc/openstack/02b-MAChigh/sixtop.c ****                            (errorparameter_t)*lenIE,
1063:build/OpenMote-CC2538_armgcc/openstack/02b-MAChigh/sixtop.c ****                            (errorparameter_t)1);
1064:build/OpenMote-CC2538_armgcc/openstack/02b-MAChigh/sixtop.c ****     }
1065:build/OpenMote-CC2538_armgcc/openstack/02b-MAChigh/sixtop.c ****     return TRUE;
 2712              		.loc 1 1065 0
 2713 0e8c 0123     		movs	r3, #1
 2714              	.L161:
1066:build/OpenMote-CC2538_armgcc/openstack/02b-MAChigh/sixtop.c **** }
 2715              		.loc 1 1066 0
 2716 0e8e 1846     		mov	r0, r3
 2717 0e90 1C37     		adds	r7, r7, #28
 2718              		.cfi_def_cfa_offset 12
 2719 0e92 BD46     		mov	sp, r7
 2720              		.cfi_def_cfa_register 13
 2721              		@ sp needed
 2722 0e94 90BD     		pop	{r4, r7, pc}
 2723              		.cfi_endproc
 2724              	.LFE21:
 2726 0e96 00BF     		.align	2
 2727              		.global	sixtop_notifyReceiveCommand
 2728              		.thumb
 2729              		.thumb_func
 2731              	sixtop_notifyReceiveCommand:
 2732              	.LFB22:
1067:build/OpenMote-CC2538_armgcc/openstack/02b-MAChigh/sixtop.c **** 
1068:build/OpenMote-CC2538_armgcc/openstack/02b-MAChigh/sixtop.c **** void sixtop_notifyReceiveCommand(
1069:build/OpenMote-CC2538_armgcc/openstack/02b-MAChigh/sixtop.c ****     uint8_t           version, 
1070:build/OpenMote-CC2538_armgcc/openstack/02b-MAChigh/sixtop.c ****     uint8_t           commandIdORcode, 
1071:build/OpenMote-CC2538_armgcc/openstack/02b-MAChigh/sixtop.c ****     uint8_t           sfId,
1072:build/OpenMote-CC2538_armgcc/openstack/02b-MAChigh/sixtop.c ****     uint8_t           ptr,
1073:build/OpenMote-CC2538_armgcc/openstack/02b-MAChigh/sixtop.c ****     uint8_t           length,
1074:build/OpenMote-CC2538_armgcc/openstack/02b-MAChigh/sixtop.c ****     OpenQueueEntry_t* pkt
1075:build/OpenMote-CC2538_armgcc/openstack/02b-MAChigh/sixtop.c **** ){
 2733              		.loc 1 1075 0
 2734              		.cfi_startproc
 2735              		@ args = 8, pretend = 0, frame = 40
 2736              		@ frame_needed = 1, uses_anonymous_args = 0
 2737 0e98 90B5     		push	{r4, r7, lr}
 2738              		.cfi_def_cfa_offset 12
 2739              		.cfi_offset 4, -12
 2740              		.cfi_offset 7, -8
 2741              		.cfi_offset 14, -4
 2742 0e9a 8BB0     		sub	sp, sp, #44
 2743              		.cfi_def_cfa_offset 56
 2744 0e9c 00AF     		add	r7, sp, #0
 2745              		.cfi_def_cfa_register 7
 2746 0e9e 0446     		mov	r4, r0
 2747 0ea0 0846     		mov	r0, r1
 2748 0ea2 1146     		mov	r1, r2
 2749 0ea4 1A46     		mov	r2, r3
 2750 0ea6 2346     		mov	r3, r4
 2751 0ea8 FB71     		strb	r3, [r7, #7]
 2752 0eaa 0346     		mov	r3, r0
 2753 0eac BB71     		strb	r3, [r7, #6]
 2754 0eae 0B46     		mov	r3, r1
 2755 0eb0 7B71     		strb	r3, [r7, #5]
 2756 0eb2 1346     		mov	r3, r2
 2757 0eb4 3B71     		strb	r3, [r7, #4]
1076:build/OpenMote-CC2538_armgcc/openstack/02b-MAChigh/sixtop.c ****     uint8_t           code;
1077:build/OpenMote-CC2538_armgcc/openstack/02b-MAChigh/sixtop.c ****     uint8_t           frameID;
1078:build/OpenMote-CC2538_armgcc/openstack/02b-MAChigh/sixtop.c ****     uint8_t           numOfCells;
1079:build/OpenMote-CC2538_armgcc/openstack/02b-MAChigh/sixtop.c ****     uint16_t          count;
1080:build/OpenMote-CC2538_armgcc/openstack/02b-MAChigh/sixtop.c ****     cellInfo_ht       cellList[SCHEDULEIEMAXNUMCELLS];
1081:build/OpenMote-CC2538_armgcc/openstack/02b-MAChigh/sixtop.c ****     OpenQueueEntry_t* response_pkt;
1082:build/OpenMote-CC2538_armgcc/openstack/02b-MAChigh/sixtop.c ****     uint8_t           len = 0;
 2758              		.loc 1 1082 0
 2759 0eb6 0023     		movs	r3, #0
 2760 0eb8 87F82530 		strb	r3, [r7, #37]
1083:build/OpenMote-CC2538_armgcc/openstack/02b-MAChigh/sixtop.c ****     uint8_t           container;
1084:build/OpenMote-CC2538_armgcc/openstack/02b-MAChigh/sixtop.c ****     
1085:build/OpenMote-CC2538_armgcc/openstack/02b-MAChigh/sixtop.c ****     memset(cellList,0,sizeof(cellList));
 2761              		.loc 1 1085 0
 2762 0ebc 07F10C03 		add	r3, r7, #12
 2763 0ec0 1846     		mov	r0, r3
 2764 0ec2 0021     		movs	r1, #0
 2765 0ec4 0F22     		movs	r2, #15
 2766 0ec6 FFF7FEFF 		bl	memset
1086:build/OpenMote-CC2538_armgcc/openstack/02b-MAChigh/sixtop.c ****     
1087:build/OpenMote-CC2538_armgcc/openstack/02b-MAChigh/sixtop.c ****     // get a free packet buffer
1088:build/OpenMote-CC2538_armgcc/openstack/02b-MAChigh/sixtop.c ****     response_pkt = openqueue_getFreePacketBuffer(COMPONENT_SIXTOP_RES);
 2767              		.loc 1 1088 0
 2768 0eca 0F20     		movs	r0, #15
 2769 0ecc FFF7FEFF 		bl	openqueue_getFreePacketBuffer
 2770 0ed0 3862     		str	r0, [r7, #32]
1089:build/OpenMote-CC2538_armgcc/openstack/02b-MAChigh/sixtop.c ****     if (response_pkt==NULL) {
 2771              		.loc 1 1089 0
 2772 0ed2 3B6A     		ldr	r3, [r7, #32]
 2773 0ed4 002B     		cmp	r3, #0
 2774 0ed6 06D1     		bne	.L172
1090:build/OpenMote-CC2538_armgcc/openstack/02b-MAChigh/sixtop.c ****         openserial_printError(
 2775              		.loc 1 1090 0
 2776 0ed8 0F20     		movs	r0, #15
 2777 0eda 2C21     		movs	r1, #44
 2778 0edc 0022     		movs	r2, #0
 2779 0ede 0023     		movs	r3, #0
 2780 0ee0 FFF7FEFF 		bl	openserial_printError
 2781 0ee4 BDE1     		b	.L171
 2782              	.L172:
1091:build/OpenMote-CC2538_armgcc/openstack/02b-MAChigh/sixtop.c ****             COMPONENT_SIXTOP_RES,
1092:build/OpenMote-CC2538_armgcc/openstack/02b-MAChigh/sixtop.c ****             ERR_NO_FREE_PACKET_BUFFER,
1093:build/OpenMote-CC2538_armgcc/openstack/02b-MAChigh/sixtop.c ****             (errorparameter_t)0,
1094:build/OpenMote-CC2538_armgcc/openstack/02b-MAChigh/sixtop.c ****             (errorparameter_t)0
1095:build/OpenMote-CC2538_armgcc/openstack/02b-MAChigh/sixtop.c ****         );
1096:build/OpenMote-CC2538_armgcc/openstack/02b-MAChigh/sixtop.c ****         return;
1097:build/OpenMote-CC2538_armgcc/openstack/02b-MAChigh/sixtop.c ****     }
1098:build/OpenMote-CC2538_armgcc/openstack/02b-MAChigh/sixtop.c ****    
1099:build/OpenMote-CC2538_armgcc/openstack/02b-MAChigh/sixtop.c ****     // take ownership
1100:build/OpenMote-CC2538_armgcc/openstack/02b-MAChigh/sixtop.c ****     response_pkt->creator = COMPONENT_SIXTOP_RES;
 2783              		.loc 1 1100 0
 2784 0ee6 3B6A     		ldr	r3, [r7, #32]
 2785 0ee8 0F22     		movs	r2, #15
 2786 0eea 1A70     		strb	r2, [r3]
1101:build/OpenMote-CC2538_armgcc/openstack/02b-MAChigh/sixtop.c ****     response_pkt->owner   = COMPONENT_SIXTOP_RES;
 2787              		.loc 1 1101 0
 2788 0eec 3B6A     		ldr	r3, [r7, #32]
 2789 0eee 0F22     		movs	r2, #15
 2790 0ef0 5A70     		strb	r2, [r3, #1]
1102:build/OpenMote-CC2538_armgcc/openstack/02b-MAChigh/sixtop.c ****     
1103:build/OpenMote-CC2538_armgcc/openstack/02b-MAChigh/sixtop.c ****     memcpy(&(response_pkt->l2_nextORpreviousHop),
 2791              		.loc 1 1103 0
 2792 0ef2 3B6A     		ldr	r3, [r7, #32]
 2793 0ef4 03F13802 		add	r2, r3, #56
1104:build/OpenMote-CC2538_armgcc/openstack/02b-MAChigh/sixtop.c ****            &(pkt->l2_nextORpreviousHop),
 2794              		.loc 1 1104 0
 2795 0ef8 FB6B     		ldr	r3, [r7, #60]
 2796 0efa 3833     		adds	r3, r3, #56
1103:build/OpenMote-CC2538_armgcc/openstack/02b-MAChigh/sixtop.c ****            &(pkt->l2_nextORpreviousHop),
 2797              		.loc 1 1103 0
 2798 0efc 1046     		mov	r0, r2
 2799 0efe 1946     		mov	r1, r3
 2800 0f00 1122     		movs	r2, #17
 2801 0f02 FFF7FEFF 		bl	memcpy
1105:build/OpenMote-CC2538_armgcc/openstack/02b-MAChigh/sixtop.c ****            sizeof(open_addr_t)
1106:build/OpenMote-CC2538_armgcc/openstack/02b-MAChigh/sixtop.c ****     );
1107:build/OpenMote-CC2538_armgcc/openstack/02b-MAChigh/sixtop.c ****     
1108:build/OpenMote-CC2538_armgcc/openstack/02b-MAChigh/sixtop.c ****     //===== if the version or sfID are correct
1109:build/OpenMote-CC2538_armgcc/openstack/02b-MAChigh/sixtop.c ****     if (version != IANA_6TOP_6P_VERSION || sfId != SFID_SF0){
 2802              		.loc 1 1109 0
 2803 0f06 FB79     		ldrb	r3, [r7, #7]	@ zero_extendqisi2
 2804 0f08 012B     		cmp	r3, #1
 2805 0f0a 02D1     		bne	.L174
 2806              		.loc 1 1109 0 is_stmt 0 discriminator 1
 2807 0f0c 7B79     		ldrb	r3, [r7, #5]	@ zero_extendqisi2
 2808 0f0e 002B     		cmp	r3, #0
 2809 0f10 0AD0     		beq	.L175
 2810              	.L174:
1110:build/OpenMote-CC2538_armgcc/openstack/02b-MAChigh/sixtop.c ****         if (version != IANA_6TOP_6P_VERSION){
 2811              		.loc 1 1110 0 is_stmt 1
 2812 0f12 FB79     		ldrb	r3, [r7, #7]	@ zero_extendqisi2
 2813 0f14 012B     		cmp	r3, #1
 2814 0f16 03D0     		beq	.L176
1111:build/OpenMote-CC2538_armgcc/openstack/02b-MAChigh/sixtop.c ****             code = IANA_6TOP_RC_VER_ERR;
 2815              		.loc 1 1111 0
 2816 0f18 0723     		movs	r3, #7
 2817 0f1a 87F82730 		strb	r3, [r7, #39]
1110:build/OpenMote-CC2538_armgcc/openstack/02b-MAChigh/sixtop.c ****         if (version != IANA_6TOP_6P_VERSION){
 2818              		.loc 1 1110 0
 2819 0f1e A0E1     		b	.L178
 2820              	.L176:
1112:build/OpenMote-CC2538_armgcc/openstack/02b-MAChigh/sixtop.c ****         } else {
1113:build/OpenMote-CC2538_armgcc/openstack/02b-MAChigh/sixtop.c ****             code = IANA_6TOP_RC_SFID_ERR;
 2821              		.loc 1 1113 0
 2822 0f20 0823     		movs	r3, #8
 2823 0f22 87F82730 		strb	r3, [r7, #39]
1110:build/OpenMote-CC2538_armgcc/openstack/02b-MAChigh/sixtop.c ****             code = IANA_6TOP_RC_VER_ERR;
 2824              		.loc 1 1110 0
 2825 0f26 9CE1     		b	.L178
 2826              	.L175:
1114:build/OpenMote-CC2538_armgcc/openstack/02b-MAChigh/sixtop.c ****         }
1115:build/OpenMote-CC2538_armgcc/openstack/02b-MAChigh/sixtop.c ****     } else {
1116:build/OpenMote-CC2538_armgcc/openstack/02b-MAChigh/sixtop.c ****         //====== the version and sfID are correct
1117:build/OpenMote-CC2538_armgcc/openstack/02b-MAChigh/sixtop.c ****         //------ if this is a command
1118:build/OpenMote-CC2538_armgcc/openstack/02b-MAChigh/sixtop.c ****         if (
 2827              		.loc 1 1118 0
 2828 0f28 BB79     		ldrb	r3, [r7, #6]	@ zero_extendqisi2
 2829 0f2a 012B     		cmp	r3, #1
 2830 0f2c 0CD0     		beq	.L179
1119:build/OpenMote-CC2538_armgcc/openstack/02b-MAChigh/sixtop.c ****             commandIdORcode == IANA_6TOP_CMD_ADD    ||
 2831              		.loc 1 1119 0
 2832 0f2e BB79     		ldrb	r3, [r7, #6]	@ zero_extendqisi2
 2833 0f30 022B     		cmp	r3, #2
 2834 0f32 09D0     		beq	.L179
1120:build/OpenMote-CC2538_armgcc/openstack/02b-MAChigh/sixtop.c ****             commandIdORcode == IANA_6TOP_CMD_DELETE ||
 2835              		.loc 1 1120 0
 2836 0f34 BB79     		ldrb	r3, [r7, #6]	@ zero_extendqisi2
 2837 0f36 032B     		cmp	r3, #3
 2838 0f38 06D0     		beq	.L179
1121:build/OpenMote-CC2538_armgcc/openstack/02b-MAChigh/sixtop.c ****             commandIdORcode == IANA_6TOP_CMD_COUNT  ||
 2839              		.loc 1 1121 0
 2840 0f3a BB79     		ldrb	r3, [r7, #6]	@ zero_extendqisi2
 2841 0f3c 042B     		cmp	r3, #4
 2842 0f3e 03D0     		beq	.L179
1122:build/OpenMote-CC2538_armgcc/openstack/02b-MAChigh/sixtop.c ****             commandIdORcode == IANA_6TOP_CMD_LIST   ||
 2843              		.loc 1 1122 0
 2844 0f40 BB79     		ldrb	r3, [r7, #6]	@ zero_extendqisi2
 2845 0f42 052B     		cmp	r3, #5
 2846 0f44 40F01E81 		bne	.L180
 2847              	.L179:
1123:build/OpenMote-CC2538_armgcc/openstack/02b-MAChigh/sixtop.c ****             commandIdORcode == IANA_6TOP_CMD_CLEAR
1124:build/OpenMote-CC2538_armgcc/openstack/02b-MAChigh/sixtop.c ****         ){
1125:build/OpenMote-CC2538_armgcc/openstack/02b-MAChigh/sixtop.c ****             // if I am already in a 6top transactions
1126:build/OpenMote-CC2538_armgcc/openstack/02b-MAChigh/sixtop.c ****             if (sixtop_vars.six2six_state != SIX_IDLE){
 2848              		.loc 1 1126 0
 2849 0f48 BE4B     		ldr	r3, .L205
 2850 0f4a 1B7B     		ldrb	r3, [r3, #12]	@ zero_extendqisi2
 2851 0f4c 002B     		cmp	r3, #0
 2852 0f4e 03D0     		beq	.L181
1127:build/OpenMote-CC2538_armgcc/openstack/02b-MAChigh/sixtop.c ****                 code = IANA_6TOP_RC_ERR;
 2853              		.loc 1 1127 0
 2854 0f50 0B23     		movs	r3, #11
 2855 0f52 87F82730 		strb	r3, [r7, #39]
 2856 0f56 D3E0     		b	.L182
 2857              	.L181:
1128:build/OpenMote-CC2538_armgcc/openstack/02b-MAChigh/sixtop.c ****             } else {
1129:build/OpenMote-CC2538_armgcc/openstack/02b-MAChigh/sixtop.c ****                 sixtop_vars.six2six_state = SIX_REQUEST_RECEIVED;
 2858              		.loc 1 1129 0
 2859 0f58 BA4B     		ldr	r3, .L205
 2860 0f5a 0C22     		movs	r2, #12
 2861 0f5c 1A73     		strb	r2, [r3, #12]
1130:build/OpenMote-CC2538_armgcc/openstack/02b-MAChigh/sixtop.c **** 
1131:build/OpenMote-CC2538_armgcc/openstack/02b-MAChigh/sixtop.c ****                 switch(commandIdORcode){
 2862              		.loc 1 1131 0
 2863 0f5e BB79     		ldrb	r3, [r7, #6]	@ zero_extendqisi2
 2864 0f60 013B     		subs	r3, r3, #1
 2865 0f62 042B     		cmp	r3, #4
 2866 0f64 00F2CC80 		bhi	.L182
 2867 0f68 01A2     		adr	r2, .L184
 2868 0f6a 52F823F0 		ldr	pc, [r2, r3, lsl #2]
 2869 0f6e 00BF     		.p2align 2
 2870              	.L184:
 2871 0f70 850F0000 		.word	.L183+1
 2872 0f74 850F0000 		.word	.L183+1
 2873 0f78 27100000 		.word	.L185+1
 2874 0f7c 7F100000 		.word	.L186+1
 2875 0f80 D7100000 		.word	.L187+1
 2876              		.p2align 1
 2877              	.L183:
1132:build/OpenMote-CC2538_armgcc/openstack/02b-MAChigh/sixtop.c ****                 case IANA_6TOP_CMD_ADD: 
1133:build/OpenMote-CC2538_armgcc/openstack/02b-MAChigh/sixtop.c ****                 case IANA_6TOP_CMD_DELETE:
1134:build/OpenMote-CC2538_armgcc/openstack/02b-MAChigh/sixtop.c ****                     numOfCells = *((uint8_t*)(pkt->payload)+ptr);
 2878              		.loc 1 1134 0
 2879 0f84 FB6B     		ldr	r3, [r7, #60]
 2880 0f86 5A68     		ldr	r2, [r3, #4]
 2881 0f88 3B79     		ldrb	r3, [r7, #4]	@ zero_extendqisi2
 2882 0f8a 1344     		add	r3, r3, r2
 2883 0f8c 1B78     		ldrb	r3, [r3]
 2884 0f8e 7B77     		strb	r3, [r7, #29]
1135:build/OpenMote-CC2538_armgcc/openstack/02b-MAChigh/sixtop.c ****                     container  = *((uint8_t*)(pkt->payload)+ptr+1);
 2885              		.loc 1 1135 0
 2886 0f90 FB6B     		ldr	r3, [r7, #60]
 2887 0f92 5A68     		ldr	r2, [r3, #4]
 2888 0f94 3B79     		ldrb	r3, [r7, #4]	@ zero_extendqisi2
 2889 0f96 0133     		adds	r3, r3, #1
 2890 0f98 1344     		add	r3, r3, r2
 2891 0f9a 1B78     		ldrb	r3, [r3]
 2892 0f9c 3B77     		strb	r3, [r7, #28]
1136:build/OpenMote-CC2538_armgcc/openstack/02b-MAChigh/sixtop.c ****                     frameID = container;
 2893              		.loc 1 1136 0
 2894 0f9e 3B7F     		ldrb	r3, [r7, #28]
 2895 0fa0 87F82630 		strb	r3, [r7, #38]
1137:build/OpenMote-CC2538_armgcc/openstack/02b-MAChigh/sixtop.c ****                     processIE_retrieve_sixCelllist(pkt,ptr+2,length-2,cellList);
 2896              		.loc 1 1137 0
 2897 0fa4 3B79     		ldrb	r3, [r7, #4]
 2898 0fa6 0233     		adds	r3, r3, #2
 2899 0fa8 D9B2     		uxtb	r1, r3
 2900 0faa 97F83830 		ldrb	r3, [r7, #56]
 2901 0fae 023B     		subs	r3, r3, #2
 2902 0fb0 DAB2     		uxtb	r2, r3
 2903 0fb2 07F10C03 		add	r3, r7, #12
 2904 0fb6 F86B     		ldr	r0, [r7, #60]
 2905 0fb8 FFF7FEFF 		bl	processIE_retrieve_sixCelllist
1138:build/OpenMote-CC2538_armgcc/openstack/02b-MAChigh/sixtop.c ****                     if (
 2906              		.loc 1 1138 0
 2907 0fbc BB79     		ldrb	r3, [r7, #6]	@ zero_extendqisi2
 2908 0fbe 012B     		cmp	r3, #1
 2909 0fc0 0CD1     		bne	.L188
1139:build/OpenMote-CC2538_armgcc/openstack/02b-MAChigh/sixtop.c ****                         (
1140:build/OpenMote-CC2538_armgcc/openstack/02b-MAChigh/sixtop.c ****                           commandIdORcode == IANA_6TOP_CMD_ADD &&
1141:build/OpenMote-CC2538_armgcc/openstack/02b-MAChigh/sixtop.c ****                           sixtop_areAvailableCellsToBeScheduled(frameID,numOfCells,cellList)
 2910              		.loc 1 1141 0
 2911 0fc2 97F82610 		ldrb	r1, [r7, #38]	@ zero_extendqisi2
 2912 0fc6 7A7F     		ldrb	r2, [r7, #29]	@ zero_extendqisi2
 2913 0fc8 07F10C03 		add	r3, r7, #12
 2914 0fcc 0846     		mov	r0, r1
 2915 0fce 1146     		mov	r1, r2
 2916 0fd0 1A46     		mov	r2, r3
 2917 0fd2 FFF7FEFF 		bl	sixtop_areAvailableCellsToBeScheduled
 2918 0fd6 0346     		mov	r3, r0
1140:build/OpenMote-CC2538_armgcc/openstack/02b-MAChigh/sixtop.c ****                           sixtop_areAvailableCellsToBeScheduled(frameID,numOfCells,cellList)
 2919              		.loc 1 1140 0
 2920 0fd8 002B     		cmp	r3, #0
 2921 0fda 0ED1     		bne	.L189
 2922              	.L188:
1142:build/OpenMote-CC2538_armgcc/openstack/02b-MAChigh/sixtop.c ****                         ) ||
 2923              		.loc 1 1142 0
 2924 0fdc BB79     		ldrb	r3, [r7, #6]	@ zero_extendqisi2
 2925 0fde 022B     		cmp	r3, #2
 2926 0fe0 1DD1     		bne	.L190
1143:build/OpenMote-CC2538_armgcc/openstack/02b-MAChigh/sixtop.c ****                        (
1144:build/OpenMote-CC2538_armgcc/openstack/02b-MAChigh/sixtop.c ****                           commandIdORcode == IANA_6TOP_CMD_DELETE &&
1145:build/OpenMote-CC2538_armgcc/openstack/02b-MAChigh/sixtop.c ****                           sixtop_areAvailableCellsToBeRemoved(frameID,numOfCells,cellList,&(pkt->l2
 2927              		.loc 1 1145 0
 2928 0fe2 FB6B     		ldr	r3, [r7, #60]
 2929 0fe4 3833     		adds	r3, r3, #56
 2930 0fe6 97F82600 		ldrb	r0, [r7, #38]	@ zero_extendqisi2
 2931 0fea 797F     		ldrb	r1, [r7, #29]	@ zero_extendqisi2
 2932 0fec 07F10C02 		add	r2, r7, #12
 2933 0ff0 FFF7FEFF 		bl	sixtop_areAvailableCellsToBeRemoved
 2934 0ff4 0346     		mov	r3, r0
1144:build/OpenMote-CC2538_armgcc/openstack/02b-MAChigh/sixtop.c ****                           sixtop_areAvailableCellsToBeRemoved(frameID,numOfCells,cellList,&(pkt->l2
 2935              		.loc 1 1144 0
 2936 0ff6 002B     		cmp	r3, #0
 2937 0ff8 11D0     		beq	.L190
 2938              	.L189:
1146:build/OpenMote-CC2538_armgcc/openstack/02b-MAChigh/sixtop.c ****                        )
1147:build/OpenMote-CC2538_armgcc/openstack/02b-MAChigh/sixtop.c ****                     ){
1148:build/OpenMote-CC2538_armgcc/openstack/02b-MAChigh/sixtop.c ****                         code = IANA_6TOP_RC_SUCCESS;
 2939              		.loc 1 1148 0
 2940 0ffa 0623     		movs	r3, #6
 2941 0ffc 87F82730 		strb	r3, [r7, #39]
1149:build/OpenMote-CC2538_armgcc/openstack/02b-MAChigh/sixtop.c ****                         len += processIE_prepend_sixCelllist(response_pkt,cellList);
 2942              		.loc 1 1149 0
 2943 1000 07F10C03 		add	r3, r7, #12
 2944 1004 386A     		ldr	r0, [r7, #32]
 2945 1006 1946     		mov	r1, r3
 2946 1008 FFF7FEFF 		bl	processIE_prepend_sixCelllist
 2947 100c 0346     		mov	r3, r0
 2948 100e 1A46     		mov	r2, r3
 2949 1010 97F82530 		ldrb	r3, [r7, #37]
 2950 1014 1344     		add	r3, r3, r2
 2951 1016 87F82530 		strb	r3, [r7, #37]
 2952 101a 00BF     		nop
1150:build/OpenMote-CC2538_armgcc/openstack/02b-MAChigh/sixtop.c ****                     } else {
1151:build/OpenMote-CC2538_armgcc/openstack/02b-MAChigh/sixtop.c ****                         code = IANA_6TOP_RC_RESET;
1152:build/OpenMote-CC2538_armgcc/openstack/02b-MAChigh/sixtop.c ****                     }
1153:build/OpenMote-CC2538_armgcc/openstack/02b-MAChigh/sixtop.c ****                     break;
 2953              		.loc 1 1153 0
 2954 101c 70E0     		b	.L182
 2955              	.L190:
1151:build/OpenMote-CC2538_armgcc/openstack/02b-MAChigh/sixtop.c ****                     }
 2956              		.loc 1 1151 0
 2957 101e 0A23     		movs	r3, #10
 2958 1020 87F82730 		strb	r3, [r7, #39]
 2959              		.loc 1 1153 0
 2960 1024 6CE0     		b	.L182
 2961              	.L185:
1154:build/OpenMote-CC2538_armgcc/openstack/02b-MAChigh/sixtop.c ****                 case IANA_6TOP_CMD_COUNT:
1155:build/OpenMote-CC2538_armgcc/openstack/02b-MAChigh/sixtop.c ****                     container  = *((uint8_t*)(pkt->payload)+ptr);
 2962              		.loc 1 1155 0
 2963 1026 FB6B     		ldr	r3, [r7, #60]
 2964 1028 5A68     		ldr	r2, [r3, #4]
 2965 102a 3B79     		ldrb	r3, [r7, #4]	@ zero_extendqisi2
 2966 102c 1344     		add	r3, r3, r2
 2967 102e 1B78     		ldrb	r3, [r3]
 2968 1030 3B77     		strb	r3, [r7, #28]
1156:build/OpenMote-CC2538_armgcc/openstack/02b-MAChigh/sixtop.c ****                     frameID = container;
 2969              		.loc 1 1156 0
 2970 1032 3B7F     		ldrb	r3, [r7, #28]
 2971 1034 87F82630 		strb	r3, [r7, #38]
1157:build/OpenMote-CC2538_armgcc/openstack/02b-MAChigh/sixtop.c ****                     count = schedule_getCellsCounts(frameID,
 2972              		.loc 1 1157 0
 2973 1038 FB6B     		ldr	r3, [r7, #60]
 2974 103a 3833     		adds	r3, r3, #56
 2975 103c 97F82620 		ldrb	r2, [r7, #38]	@ zero_extendqisi2
 2976 1040 1046     		mov	r0, r2
 2977 1042 0221     		movs	r1, #2
 2978 1044 1A46     		mov	r2, r3
 2979 1046 FFF7FEFF 		bl	schedule_getCellsCounts
 2980 104a 0346     		mov	r3, r0
 2981 104c FB83     		strh	r3, [r7, #30]	@ movhi
1158:build/OpenMote-CC2538_armgcc/openstack/02b-MAChigh/sixtop.c ****                                                     CELLTYPE_RX,
1159:build/OpenMote-CC2538_armgcc/openstack/02b-MAChigh/sixtop.c ****                                                     &(pkt->l2_nextORpreviousHop));
1160:build/OpenMote-CC2538_armgcc/openstack/02b-MAChigh/sixtop.c ****                     code = IANA_6TOP_RC_SUCCESS;
 2982              		.loc 1 1160 0
 2983 104e 0623     		movs	r3, #6
 2984 1050 87F82730 		strb	r3, [r7, #39]
1161:build/OpenMote-CC2538_armgcc/openstack/02b-MAChigh/sixtop.c ****                     packetfunctions_reserveHeaderSize(response_pkt,2);
 2985              		.loc 1 1161 0
 2986 1054 386A     		ldr	r0, [r7, #32]
 2987 1056 0221     		movs	r1, #2
 2988 1058 FFF7FEFF 		bl	packetfunctions_reserveHeaderSize
1162:build/OpenMote-CC2538_armgcc/openstack/02b-MAChigh/sixtop.c ****                     response_pkt->payload[0] = count      & 0xFF;
 2989              		.loc 1 1162 0
 2990 105c 3B6A     		ldr	r3, [r7, #32]
 2991 105e 5B68     		ldr	r3, [r3, #4]
 2992 1060 FA8B     		ldrh	r2, [r7, #30]	@ movhi
 2993 1062 D2B2     		uxtb	r2, r2
 2994 1064 1A70     		strb	r2, [r3]
1163:build/OpenMote-CC2538_armgcc/openstack/02b-MAChigh/sixtop.c ****                     response_pkt->payload[1] = (count>>8) & 0xFF;
 2995              		.loc 1 1163 0
 2996 1066 3B6A     		ldr	r3, [r7, #32]
 2997 1068 5B68     		ldr	r3, [r3, #4]
 2998 106a 0133     		adds	r3, r3, #1
 2999 106c FA8B     		ldrh	r2, [r7, #30]
 3000 106e 120A     		lsrs	r2, r2, #8
 3001 1070 92B2     		uxth	r2, r2
 3002 1072 D2B2     		uxtb	r2, r2
 3003 1074 1A70     		strb	r2, [r3]
1164:build/OpenMote-CC2538_armgcc/openstack/02b-MAChigh/sixtop.c ****                     len = 2;
 3004              		.loc 1 1164 0
 3005 1076 0223     		movs	r3, #2
 3006 1078 87F82530 		strb	r3, [r7, #37]
1165:build/OpenMote-CC2538_armgcc/openstack/02b-MAChigh/sixtop.c ****                     break;
 3007              		.loc 1 1165 0
 3008 107c 40E0     		b	.L182
 3009              	.L186:
1166:build/OpenMote-CC2538_armgcc/openstack/02b-MAChigh/sixtop.c ****                 case IANA_6TOP_CMD_LIST:
1167:build/OpenMote-CC2538_armgcc/openstack/02b-MAChigh/sixtop.c ****                     container  = *((uint8_t*)(pkt->payload)+ptr);
 3010              		.loc 1 1167 0
 3011 107e FB6B     		ldr	r3, [r7, #60]
 3012 1080 5A68     		ldr	r2, [r3, #4]
 3013 1082 3B79     		ldrb	r3, [r7, #4]	@ zero_extendqisi2
 3014 1084 1344     		add	r3, r3, r2
 3015 1086 1B78     		ldrb	r3, [r3]
 3016 1088 3B77     		strb	r3, [r7, #28]
1168:build/OpenMote-CC2538_armgcc/openstack/02b-MAChigh/sixtop.c ****                     frameID = container;
 3017              		.loc 1 1168 0
 3018 108a 3B7F     		ldrb	r3, [r7, #28]
 3019 108c 87F82630 		strb	r3, [r7, #38]
1169:build/OpenMote-CC2538_armgcc/openstack/02b-MAChigh/sixtop.c ****                     numOfCells = sixtop_getCelllist(frameID,
 3020              		.loc 1 1169 0
 3021 1090 FB6B     		ldr	r3, [r7, #60]
 3022 1092 03F13802 		add	r2, r3, #56
 3023 1096 97F82610 		ldrb	r1, [r7, #38]	@ zero_extendqisi2
 3024 109a 07F10C03 		add	r3, r7, #12
 3025 109e 0846     		mov	r0, r1
 3026 10a0 1146     		mov	r1, r2
 3027 10a2 1A46     		mov	r2, r3
 3028 10a4 FFF7FEFF 		bl	sixtop_getCelllist
 3029 10a8 0346     		mov	r3, r0
 3030 10aa 7B77     		strb	r3, [r7, #29]
1170:build/OpenMote-CC2538_armgcc/openstack/02b-MAChigh/sixtop.c ****                                          &(pkt->l2_nextORpreviousHop),
1171:build/OpenMote-CC2538_armgcc/openstack/02b-MAChigh/sixtop.c ****                                          cellList);
1172:build/OpenMote-CC2538_armgcc/openstack/02b-MAChigh/sixtop.c ****                     code = IANA_6TOP_RC_SUCCESS;
 3031              		.loc 1 1172 0
 3032 10ac 0623     		movs	r3, #6
 3033 10ae 87F82730 		strb	r3, [r7, #39]
1173:build/OpenMote-CC2538_armgcc/openstack/02b-MAChigh/sixtop.c ****                     if (numOfCells>0){
 3034              		.loc 1 1173 0
 3035 10b2 7B7F     		ldrb	r3, [r7, #29]	@ zero_extendqisi2
 3036 10b4 002B     		cmp	r3, #0
 3037 10b6 0DD0     		beq	.L192
1174:build/OpenMote-CC2538_armgcc/openstack/02b-MAChigh/sixtop.c ****                         len += processIE_prepend_sixCelllist(response_pkt,cellList);
 3038              		.loc 1 1174 0
 3039 10b8 07F10C03 		add	r3, r7, #12
 3040 10bc 386A     		ldr	r0, [r7, #32]
 3041 10be 1946     		mov	r1, r3
 3042 10c0 FFF7FEFF 		bl	processIE_prepend_sixCelllist
 3043 10c4 0346     		mov	r3, r0
 3044 10c6 1A46     		mov	r2, r3
 3045 10c8 97F82530 		ldrb	r3, [r7, #37]
 3046 10cc 1344     		add	r3, r3, r2
 3047 10ce 87F82530 		strb	r3, [r7, #37]
1175:build/OpenMote-CC2538_armgcc/openstack/02b-MAChigh/sixtop.c ****                     }
1176:build/OpenMote-CC2538_armgcc/openstack/02b-MAChigh/sixtop.c ****                     break;
 3048              		.loc 1 1176 0
 3049 10d2 15E0     		b	.L182
 3050              	.L192:
 3051 10d4 14E0     		b	.L182
 3052              	.L187:
1177:build/OpenMote-CC2538_armgcc/openstack/02b-MAChigh/sixtop.c ****                 case IANA_6TOP_CMD_CLEAR:
1178:build/OpenMote-CC2538_armgcc/openstack/02b-MAChigh/sixtop.c ****                     container  = *((uint8_t*)(pkt->payload)+ptr);
 3053              		.loc 1 1178 0
 3054 10d6 FB6B     		ldr	r3, [r7, #60]
 3055 10d8 5A68     		ldr	r2, [r3, #4]
 3056 10da 3B79     		ldrb	r3, [r7, #4]	@ zero_extendqisi2
 3057 10dc 1344     		add	r3, r3, r2
 3058 10de 1B78     		ldrb	r3, [r3]
 3059 10e0 3B77     		strb	r3, [r7, #28]
1179:build/OpenMote-CC2538_armgcc/openstack/02b-MAChigh/sixtop.c ****                     frameID = container;
 3060              		.loc 1 1179 0
 3061 10e2 3B7F     		ldrb	r3, [r7, #28]
 3062 10e4 87F82630 		strb	r3, [r7, #38]
1180:build/OpenMote-CC2538_armgcc/openstack/02b-MAChigh/sixtop.c ****                     schedule_removeAllCells(frameID,
 3063              		.loc 1 1180 0
 3064 10e8 FB6B     		ldr	r3, [r7, #60]
 3065 10ea 3833     		adds	r3, r3, #56
 3066 10ec 97F82620 		ldrb	r2, [r7, #38]	@ zero_extendqisi2
 3067 10f0 1046     		mov	r0, r2
 3068 10f2 1946     		mov	r1, r3
 3069 10f4 FFF7FEFF 		bl	schedule_removeAllCells
1181:build/OpenMote-CC2538_armgcc/openstack/02b-MAChigh/sixtop.c ****                                             &(pkt->l2_nextORpreviousHop));
1182:build/OpenMote-CC2538_armgcc/openstack/02b-MAChigh/sixtop.c ****                     code = IANA_6TOP_RC_SUCCESS;
 3070              		.loc 1 1182 0
 3071 10f8 0623     		movs	r3, #6
 3072 10fa 87F82730 		strb	r3, [r7, #39]
1183:build/OpenMote-CC2538_armgcc/openstack/02b-MAChigh/sixtop.c ****                     break;
 3073              		.loc 1 1183 0
 3074 10fe 00BF     		nop
 3075              	.L182:
1184:build/OpenMote-CC2538_armgcc/openstack/02b-MAChigh/sixtop.c ****                 }
1185:build/OpenMote-CC2538_armgcc/openstack/02b-MAChigh/sixtop.c ****             }
1186:build/OpenMote-CC2538_armgcc/openstack/02b-MAChigh/sixtop.c ****             response_pkt->l2_sixtop_requestCommand = commandIdORcode;
 3076              		.loc 1 1186 0
 3077 1100 3B6A     		ldr	r3, [r7, #32]
 3078 1102 BA79     		ldrb	r2, [r7, #6]
 3079 1104 83F85E20 		strb	r2, [r3, #94]
1187:build/OpenMote-CC2538_armgcc/openstack/02b-MAChigh/sixtop.c ****             response_pkt->l2_sixtop_frameID        = frameID;
 3080              		.loc 1 1187 0
 3081 1108 3B6A     		ldr	r3, [r7, #32]
 3082 110a 97F82620 		ldrb	r2, [r7, #38]
 3083 110e 83F85D20 		strb	r2, [r3, #93]
1188:build/OpenMote-CC2538_armgcc/openstack/02b-MAChigh/sixtop.c ****             
1189:build/OpenMote-CC2538_armgcc/openstack/02b-MAChigh/sixtop.c ****             len += processIE_prepend_sixGeneralMessage(response_pkt,code);
 3084              		.loc 1 1189 0
 3085 1112 97F82730 		ldrb	r3, [r7, #39]	@ zero_extendqisi2
 3086 1116 386A     		ldr	r0, [r7, #32]
 3087 1118 1946     		mov	r1, r3
 3088 111a FFF7FEFF 		bl	processIE_prepend_sixGeneralMessage
 3089 111e 0346     		mov	r3, r0
 3090 1120 1A46     		mov	r2, r3
 3091 1122 97F82530 		ldrb	r3, [r7, #37]
 3092 1126 1344     		add	r3, r3, r2
 3093 1128 87F82530 		strb	r3, [r7, #37]
1190:build/OpenMote-CC2538_armgcc/openstack/02b-MAChigh/sixtop.c ****             len += processIE_prepend_sixSubID(response_pkt);
 3094              		.loc 1 1190 0
 3095 112c 386A     		ldr	r0, [r7, #32]
 3096 112e FFF7FEFF 		bl	processIE_prepend_sixSubID
 3097 1132 0346     		mov	r3, r0
 3098 1134 1A46     		mov	r2, r3
 3099 1136 97F82530 		ldrb	r3, [r7, #37]
 3100 113a 1344     		add	r3, r3, r2
 3101 113c 87F82530 		strb	r3, [r7, #37]
1191:build/OpenMote-CC2538_armgcc/openstack/02b-MAChigh/sixtop.c ****             processIE_prepend_sixtopIE(response_pkt,len);
 3102              		.loc 1 1191 0
 3103 1140 97F82530 		ldrb	r3, [r7, #37]	@ zero_extendqisi2
 3104 1144 386A     		ldr	r0, [r7, #32]
 3105 1146 1946     		mov	r1, r3
 3106 1148 FFF7FEFF 		bl	processIE_prepend_sixtopIE
1192:build/OpenMote-CC2538_armgcc/openstack/02b-MAChigh/sixtop.c ****             // indicate IEs present
1193:build/OpenMote-CC2538_armgcc/openstack/02b-MAChigh/sixtop.c ****             response_pkt->l2_payloadIEpresent = TRUE;
 3107              		.loc 1 1193 0
 3108 114c 3B6A     		ldr	r3, [r7, #32]
 3109 114e 0122     		movs	r2, #1
 3110 1150 83F86620 		strb	r2, [r3, #102]
1194:build/OpenMote-CC2538_armgcc/openstack/02b-MAChigh/sixtop.c ****             if (sixtop_vars.isResponseEnabled){
 3111              		.loc 1 1194 0
 3112 1154 3B4B     		ldr	r3, .L205
 3113 1156 DB7B     		ldrb	r3, [r3, #15]	@ zero_extendqisi2
 3114 1158 002B     		cmp	r3, #0
 3115 115a 02D0     		beq	.L193
1195:build/OpenMote-CC2538_armgcc/openstack/02b-MAChigh/sixtop.c ****                 // send packet
1196:build/OpenMote-CC2538_armgcc/openstack/02b-MAChigh/sixtop.c ****                 sixtop_send(response_pkt);
 3116              		.loc 1 1196 0
 3117 115c 386A     		ldr	r0, [r7, #32]
 3118 115e FFF7FEFF 		bl	sixtop_send
 3119              	.L193:
1197:build/OpenMote-CC2538_armgcc/openstack/02b-MAChigh/sixtop.c ****             }
1198:build/OpenMote-CC2538_armgcc/openstack/02b-MAChigh/sixtop.c ****             // update state
1199:build/OpenMote-CC2538_armgcc/openstack/02b-MAChigh/sixtop.c ****             sixtop_vars.six2six_state = SIX_WAIT_RESPONSE_SENDDONE;
 3120              		.loc 1 1199 0
 3121 1162 384B     		ldr	r3, .L205
 3122 1164 0D22     		movs	r2, #13
 3123 1166 1A73     		strb	r2, [r3, #12]
1200:build/OpenMote-CC2538_armgcc/openstack/02b-MAChigh/sixtop.c ****             // arm timeout
1201:build/OpenMote-CC2538_armgcc/openstack/02b-MAChigh/sixtop.c ****             opentimers_setPeriod(
 3124              		.loc 1 1201 0
 3125 1168 364B     		ldr	r3, .L205
 3126 116a DB79     		ldrb	r3, [r3, #7]	@ zero_extendqisi2
 3127 116c 1846     		mov	r0, r3
 3128 116e 0021     		movs	r1, #0
 3129 1170 4FF47A62 		mov	r2, #4000
 3130 1174 FFF7FEFF 		bl	opentimers_setPeriod
1202:build/OpenMote-CC2538_armgcc/openstack/02b-MAChigh/sixtop.c ****                 sixtop_vars.timeoutTimerId,
1203:build/OpenMote-CC2538_armgcc/openstack/02b-MAChigh/sixtop.c ****                 TIME_MS,
1204:build/OpenMote-CC2538_armgcc/openstack/02b-MAChigh/sixtop.c ****                 SIX2SIX_TIMEOUT_MS
1205:build/OpenMote-CC2538_armgcc/openstack/02b-MAChigh/sixtop.c ****             );
1206:build/OpenMote-CC2538_armgcc/openstack/02b-MAChigh/sixtop.c ****             opentimers_restart(sixtop_vars.timeoutTimerId);
 3131              		.loc 1 1206 0
 3132 1178 324B     		ldr	r3, .L205
 3133 117a DB79     		ldrb	r3, [r3, #7]	@ zero_extendqisi2
 3134 117c 1846     		mov	r0, r3
 3135 117e FFF7FEFF 		bl	opentimers_restart
 3136 1182 6EE0     		b	.L178
 3137              	.L180:
1207:build/OpenMote-CC2538_armgcc/openstack/02b-MAChigh/sixtop.c ****         } else {
1208:build/OpenMote-CC2538_armgcc/openstack/02b-MAChigh/sixtop.c ****             //------ if this is a return code
1209:build/OpenMote-CC2538_armgcc/openstack/02b-MAChigh/sixtop.c ****             // if the code is SUCCESS
1210:build/OpenMote-CC2538_armgcc/openstack/02b-MAChigh/sixtop.c ****             if (commandIdORcode==IANA_6TOP_RC_SUCCESS){
 3138              		.loc 1 1210 0
 3139 1184 BB79     		ldrb	r3, [r7, #6]	@ zero_extendqisi2
 3140 1186 062B     		cmp	r3, #6
 3141 1188 5FD1     		bne	.L194
1211:build/OpenMote-CC2538_armgcc/openstack/02b-MAChigh/sixtop.c ****                 switch(sixtop_vars.six2six_state){
 3142              		.loc 1 1211 0
 3143 118a 2E4B     		ldr	r3, .L205
 3144 118c 1B7B     		ldrb	r3, [r3, #12]	@ zero_extendqisi2
 3145 118e 073B     		subs	r3, r3, #7
 3146 1190 042B     		cmp	r3, #4
 3147 1192 52D8     		bhi	.L195
 3148 1194 01A2     		adr	r2, .L197
 3149 1196 52F823F0 		ldr	pc, [r2, r3, lsl #2]
 3150 119a 00BF     		.p2align 2
 3151              	.L197:
 3152 119c B1110000 		.word	.L196+1
 3153 11a0 B1110000 		.word	.L196+1
 3154 11a4 FF110000 		.word	.L198+1
 3155 11a8 29120000 		.word	.L199+1
 3156 11ac 49120000 		.word	.L204+1
 3157              		.p2align 1
 3158              	.L196:
1212:build/OpenMote-CC2538_armgcc/openstack/02b-MAChigh/sixtop.c ****                 case SIX_WAIT_ADDRESPONSE:
1213:build/OpenMote-CC2538_armgcc/openstack/02b-MAChigh/sixtop.c ****                 case SIX_WAIT_DELETERESPONSE:
1214:build/OpenMote-CC2538_armgcc/openstack/02b-MAChigh/sixtop.c ****                     processIE_retrieve_sixCelllist(pkt,ptr,length,cellList);
 3159              		.loc 1 1214 0
 3160 11b0 3979     		ldrb	r1, [r7, #4]	@ zero_extendqisi2
 3161 11b2 97F83820 		ldrb	r2, [r7, #56]	@ zero_extendqisi2
 3162 11b6 07F10C03 		add	r3, r7, #12
 3163 11ba F86B     		ldr	r0, [r7, #60]
 3164 11bc FFF7FEFF 		bl	processIE_retrieve_sixCelllist
1215:build/OpenMote-CC2538_armgcc/openstack/02b-MAChigh/sixtop.c ****                     // always default frameID
1216:build/OpenMote-CC2538_armgcc/openstack/02b-MAChigh/sixtop.c ****                     frameID = SCHEDULE_MINIMAL_6TISCH_DEFAULT_SLOTFRAME_HANDLE;
 3165              		.loc 1 1216 0
 3166 11c0 0123     		movs	r3, #1
 3167 11c2 87F82630 		strb	r3, [r7, #38]
1217:build/OpenMote-CC2538_armgcc/openstack/02b-MAChigh/sixtop.c ****                     if (sixtop_vars.six2six_state == SIX_WAIT_ADDRESPONSE){
 3168              		.loc 1 1217 0
 3169 11c6 1F4B     		ldr	r3, .L205
 3170 11c8 1B7B     		ldrb	r3, [r3, #12]	@ zero_extendqisi2
 3171 11ca 072B     		cmp	r3, #7
 3172 11cc 0BD1     		bne	.L201
1218:build/OpenMote-CC2538_armgcc/openstack/02b-MAChigh/sixtop.c ****                         sixtop_addCellsByState(frameID,
 3173              		.loc 1 1218 0
 3174 11ce FB6B     		ldr	r3, [r7, #60]
 3175 11d0 03F13802 		add	r2, r3, #56
1219:build/OpenMote-CC2538_armgcc/openstack/02b-MAChigh/sixtop.c ****                                               cellList,
1220:build/OpenMote-CC2538_armgcc/openstack/02b-MAChigh/sixtop.c ****                                               &(pkt->l2_nextORpreviousHop),
1221:build/OpenMote-CC2538_armgcc/openstack/02b-MAChigh/sixtop.c ****                                               sixtop_vars.six2six_state
 3176              		.loc 1 1221 0
 3177 11d4 1B4B     		ldr	r3, .L205
 3178 11d6 1B7B     		ldrb	r3, [r3, #12]	@ zero_extendqisi2
1218:build/OpenMote-CC2538_armgcc/openstack/02b-MAChigh/sixtop.c ****                         sixtop_addCellsByState(frameID,
 3179              		.loc 1 1218 0
 3180 11d8 97F82600 		ldrb	r0, [r7, #38]	@ zero_extendqisi2
 3181 11dc 07F10C01 		add	r1, r7, #12
 3182 11e0 FFF7FEFF 		bl	sixtop_addCellsByState
1222:build/OpenMote-CC2538_armgcc/openstack/02b-MAChigh/sixtop.c ****                         );
1223:build/OpenMote-CC2538_armgcc/openstack/02b-MAChigh/sixtop.c ****                     } else {
1224:build/OpenMote-CC2538_armgcc/openstack/02b-MAChigh/sixtop.c ****                         sixtop_removeCellsByState(
1225:build/OpenMote-CC2538_armgcc/openstack/02b-MAChigh/sixtop.c ****                               frameID,
1226:build/OpenMote-CC2538_armgcc/openstack/02b-MAChigh/sixtop.c ****                               cellList,
1227:build/OpenMote-CC2538_armgcc/openstack/02b-MAChigh/sixtop.c ****                               &(pkt->l2_nextORpreviousHop));
1228:build/OpenMote-CC2538_armgcc/openstack/02b-MAChigh/sixtop.c ****                     }
1229:build/OpenMote-CC2538_armgcc/openstack/02b-MAChigh/sixtop.c ****                     break;
 3183              		.loc 1 1229 0
 3184 11e4 31E0     		b	.L203
 3185              	.L201:
1224:build/OpenMote-CC2538_armgcc/openstack/02b-MAChigh/sixtop.c ****                               frameID,
 3186              		.loc 1 1224 0
 3187 11e6 FB6B     		ldr	r3, [r7, #60]
 3188 11e8 3833     		adds	r3, r3, #56
 3189 11ea 97F82610 		ldrb	r1, [r7, #38]	@ zero_extendqisi2
 3190 11ee 07F10C02 		add	r2, r7, #12
 3191 11f2 0846     		mov	r0, r1
 3192 11f4 1146     		mov	r1, r2
 3193 11f6 1A46     		mov	r2, r3
 3194 11f8 FFF7FEFF 		bl	sixtop_removeCellsByState
 3195              		.loc 1 1229 0
 3196 11fc 25E0     		b	.L203
 3197              	.L198:
1230:build/OpenMote-CC2538_armgcc/openstack/02b-MAChigh/sixtop.c ****                 case SIX_WAIT_COUNTRESPONSE:
1231:build/OpenMote-CC2538_armgcc/openstack/02b-MAChigh/sixtop.c ****                     count  = *((uint8_t*)(pkt->payload)+ptr);
 3198              		.loc 1 1231 0
 3199 11fe FB6B     		ldr	r3, [r7, #60]
 3200 1200 5A68     		ldr	r2, [r3, #4]
 3201 1202 3B79     		ldrb	r3, [r7, #4]	@ zero_extendqisi2
 3202 1204 1344     		add	r3, r3, r2
 3203 1206 1B78     		ldrb	r3, [r3]	@ zero_extendqisi2
 3204 1208 FB83     		strh	r3, [r7, #30]	@ movhi
1232:build/OpenMote-CC2538_armgcc/openstack/02b-MAChigh/sixtop.c ****                     ptr += 1;
 3205              		.loc 1 1232 0
 3206 120a 3B79     		ldrb	r3, [r7, #4]
 3207 120c 0133     		adds	r3, r3, #1
 3208 120e 3B71     		strb	r3, [r7, #4]
1233:build/OpenMote-CC2538_armgcc/openstack/02b-MAChigh/sixtop.c ****                     count |= (*((uint8_t*)(pkt->payload)+ptr))<<8;
 3209              		.loc 1 1233 0
 3210 1210 FB6B     		ldr	r3, [r7, #60]
 3211 1212 5A68     		ldr	r2, [r3, #4]
 3212 1214 3B79     		ldrb	r3, [r7, #4]	@ zero_extendqisi2
 3213 1216 1344     		add	r3, r3, r2
 3214 1218 1B78     		ldrb	r3, [r3]	@ zero_extendqisi2
 3215 121a 1B02     		lsls	r3, r3, #8
 3216 121c 9AB2     		uxth	r2, r3
 3217 121e FB8B     		ldrh	r3, [r7, #30]
 3218 1220 1343     		orrs	r3, r3, r2
 3219 1222 9BB2     		uxth	r3, r3
 3220 1224 FB83     		strh	r3, [r7, #30]	@ movhi
1234:build/OpenMote-CC2538_armgcc/openstack/02b-MAChigh/sixtop.c **** #ifdef GOLDEN_IMAGE_ROOT
1235:build/OpenMote-CC2538_armgcc/openstack/02b-MAChigh/sixtop.c ****                 openserial_printInfo(COMPONENT_SIXTOP,ERR_SIXTOP_COUNT,
1236:build/OpenMote-CC2538_armgcc/openstack/02b-MAChigh/sixtop.c ****                            (errorparameter_t)count,
1237:build/OpenMote-CC2538_armgcc/openstack/02b-MAChigh/sixtop.c ****                            (errorparameter_t)sixtop_vars.six2six_state);
1238:build/OpenMote-CC2538_armgcc/openstack/02b-MAChigh/sixtop.c **** #endif
1239:build/OpenMote-CC2538_armgcc/openstack/02b-MAChigh/sixtop.c ****                     break;
 3221              		.loc 1 1239 0
 3222 1226 10E0     		b	.L203
 3223              	.L199:
1240:build/OpenMote-CC2538_armgcc/openstack/02b-MAChigh/sixtop.c ****                 case SIX_WAIT_LISTRESPONSE:
1241:build/OpenMote-CC2538_armgcc/openstack/02b-MAChigh/sixtop.c ****                     processIE_retrieve_sixCelllist(pkt,ptr,length,cellList);
 3224              		.loc 1 1241 0
 3225 1228 3979     		ldrb	r1, [r7, #4]	@ zero_extendqisi2
 3226 122a 97F83820 		ldrb	r2, [r7, #56]	@ zero_extendqisi2
 3227 122e 07F10C03 		add	r3, r7, #12
 3228 1232 F86B     		ldr	r0, [r7, #60]
 3229 1234 FFF7FEFF 		bl	processIE_retrieve_sixCelllist
1242:build/OpenMote-CC2538_armgcc/openstack/02b-MAChigh/sixtop.c **** #ifdef GOLDEN_IMAGE_ROOT
1243:build/OpenMote-CC2538_armgcc/openstack/02b-MAChigh/sixtop.c ****                 // print out first two cells in the list
1244:build/OpenMote-CC2538_armgcc/openstack/02b-MAChigh/sixtop.c ****                 openserial_printInfo(COMPONENT_SIXTOP,ERR_SIXTOP_LIST,
1245:build/OpenMote-CC2538_armgcc/openstack/02b-MAChigh/sixtop.c ****                            (errorparameter_t)cellList[0].tsNum,
1246:build/OpenMote-CC2538_armgcc/openstack/02b-MAChigh/sixtop.c ****                            (errorparameter_t)cellList[1].tsNum);
1247:build/OpenMote-CC2538_armgcc/openstack/02b-MAChigh/sixtop.c **** #endif
1248:build/OpenMote-CC2538_armgcc/openstack/02b-MAChigh/sixtop.c ****                     break;
 3230              		.loc 1 1248 0
 3231 1238 07E0     		b	.L203
 3232              	.L195:
1249:build/OpenMote-CC2538_armgcc/openstack/02b-MAChigh/sixtop.c ****                 case SIX_WAIT_CLEARRESPONSE:
1250:build/OpenMote-CC2538_armgcc/openstack/02b-MAChigh/sixtop.c ****                   
1251:build/OpenMote-CC2538_armgcc/openstack/02b-MAChigh/sixtop.c ****                     break;
1252:build/OpenMote-CC2538_armgcc/openstack/02b-MAChigh/sixtop.c ****                 default:
1253:build/OpenMote-CC2538_armgcc/openstack/02b-MAChigh/sixtop.c ****                     code = IANA_6TOP_RC_ERR;
 3233              		.loc 1 1253 0
 3234 123a 0B23     		movs	r3, #11
 3235 123c 87F82730 		strb	r3, [r7, #39]
 3236 1240 03E0     		b	.L194
 3237              	.L206:
 3238 1242 00BF     		.align	2
 3239              	.L205:
 3240 1244 00000000 		.word	sixtop_vars
 3241              	.L204:
1251:build/OpenMote-CC2538_armgcc/openstack/02b-MAChigh/sixtop.c ****                 default:
 3242              		.loc 1 1251 0
 3243 1248 00BF     		nop
 3244              	.L203:
