   1              		.syntax unified
   2              		.cpu cortex-m3
   3              		.fpu softvfp
   4              		.eabi_attribute 20, 1
   5              		.eabi_attribute 21, 1
   6              		.eabi_attribute 23, 3
   7              		.eabi_attribute 24, 1
   8              		.eabi_attribute 25, 1
   9              		.eabi_attribute 26, 1
  10              		.eabi_attribute 30, 6
  11              		.eabi_attribute 34, 1
  12              		.eabi_attribute 18, 4
  13              		.thumb
  14              		.file	"openserial.c"
  15              		.text
  16              	.Ltext0:
  17              		.cfi_sections	.debug_frame
  18              		.section	.rodata
  19              		.align	2
  22              	rreg_uriquery:
  23 0000 683D7563 		.ascii	"h=ucb\000"
  23      6200
  24 0006 0000     		.align	2
  27              	infoBoardname:
  28 0008 43433235 		.ascii	"CC2538\000"
  28      333800
  29 000f 00       		.align	2
  32              	infouCName:
  33 0010 43433235 		.ascii	"CC2538\000"
  33      333800
  34 0017 00       		.align	2
  37              	infoRadioName:
  38 0018 43433235 		.ascii	"CC2538 SoC\000"
  38      33382053 
  38      6F4300
  39 0023 00       		.align	2
  42              	infoStackName:
  43 0024 4F70656E 		.ascii	"OpenWSN \000"
  43      57534E20 
  43      00
  44 002d 000000   		.align	2
  47              	chTemplate_default:
  48 0030 05       		.byte	5
  49 0031 06       		.byte	6
  50 0032 0C       		.byte	12
  51 0033 07       		.byte	7
  52 0034 0F       		.byte	15
  53 0035 04       		.byte	4
  54 0036 0E       		.byte	14
  55 0037 0B       		.byte	11
  56 0038 08       		.byte	8
  57 0039 00       		.byte	0
  58 003a 01       		.byte	1
  59 003b 02       		.byte	2
  60 003c 0D       		.byte	13
  61 003d 03       		.byte	3
  62 003e 09       		.byte	9
  63 003f 0A       		.byte	10
  64              		.align	2
  67              	all_routers_multicast:
  68 0040 FF       		.byte	-1
  69 0041 02       		.byte	2
  70 0042 00       		.byte	0
  71 0043 00       		.byte	0
  72 0044 00       		.byte	0
  73 0045 00       		.byte	0
  74 0046 00       		.byte	0
  75 0047 00       		.byte	0
  76 0048 00       		.byte	0
  77 0049 00       		.byte	0
  78 004a 00       		.byte	0
  79 004b 00       		.byte	0
  80 004c 00       		.byte	0
  81 004d 00       		.byte	0
  82 004e 00       		.byte	0
  83 004f 1A       		.byte	26
  84              		.align	2
  87              	fcstab:
  88 0050 0000     		.short	0
  89 0052 8911     		.short	4489
  90 0054 1223     		.short	8978
  91 0056 9B32     		.short	12955
  92 0058 2446     		.short	17956
  93 005a AD57     		.short	22445
  94 005c 3665     		.short	25910
  95 005e BF74     		.short	29887
  96 0060 488C     		.short	-29624
  97 0062 C19D     		.short	-25151
  98 0064 5AAF     		.short	-20646
  99 0066 D3BE     		.short	-16685
 100 0068 6CCA     		.short	-13716
 101 006a E5DB     		.short	-9243
 102 006c 7EE9     		.short	-5762
 103 006e F7F8     		.short	-1801
 104 0070 8110     		.short	4225
 105 0072 0801     		.short	264
 106 0074 9333     		.short	13203
 107 0076 1A22     		.short	8730
 108 0078 A556     		.short	22181
 109 007a 2C47     		.short	18220
 110 007c B775     		.short	30135
 111 007e 3E64     		.short	25662
 112 0080 C99C     		.short	-25399
 113 0082 408D     		.short	-29376
 114 0084 DBBF     		.short	-16421
 115 0086 52AE     		.short	-20910
 116 0088 EDDA     		.short	-9491
 117 008a 64CB     		.short	-13468
 118 008c FFF9     		.short	-1537
 119 008e 76E8     		.short	-6026
 120 0090 0221     		.short	8450
 121 0092 8B30     		.short	12427
 122 0094 1002     		.short	528
 123 0096 9913     		.short	5017
 124 0098 2667     		.short	26406
 125 009a AF76     		.short	30383
 126 009c 3444     		.short	17460
 127 009e BD55     		.short	21949
 128 00a0 4AAD     		.short	-21174
 129 00a2 C3BC     		.short	-17213
 130 00a4 588E     		.short	-29096
 131 00a6 D19F     		.short	-24623
 132 00a8 6EEB     		.short	-5266
 133 00aa E7FA     		.short	-1305
 134 00ac 7CC8     		.short	-14212
 135 00ae F5D9     		.short	-9739
 136 00b0 8331     		.short	12675
 137 00b2 0A20     		.short	8202
 138 00b4 9112     		.short	4753
 139 00b6 1803     		.short	792
 140 00b8 A777     		.short	30631
 141 00ba 2E66     		.short	26158
 142 00bc B554     		.short	21685
 143 00be 3C45     		.short	17724
 144 00c0 CBBD     		.short	-16949
 145 00c2 42AC     		.short	-21438
 146 00c4 D99E     		.short	-24871
 147 00c6 508F     		.short	-28848
 148 00c8 EFFB     		.short	-1041
 149 00ca 66EA     		.short	-5530
 150 00cc FDD8     		.short	-9987
 151 00ce 74C9     		.short	-13964
 152 00d0 0442     		.short	16900
 153 00d2 8D53     		.short	21389
 154 00d4 1661     		.short	24854
 155 00d6 9F70     		.short	28831
 156 00d8 2004     		.short	1056
 157 00da A915     		.short	5545
 158 00dc 3227     		.short	10034
 159 00de BB36     		.short	14011
 160 00e0 4CCE     		.short	-12724
 161 00e2 C5DF     		.short	-8251
 162 00e4 5EED     		.short	-4770
 163 00e6 D7FC     		.short	-809
 164 00e8 6888     		.short	-30616
 165 00ea E199     		.short	-26143
 166 00ec 7AAB     		.short	-21638
 167 00ee F3BA     		.short	-17677
 168 00f0 8552     		.short	21125
 169 00f2 0C43     		.short	17164
 170 00f4 9771     		.short	29079
 171 00f6 1E60     		.short	24606
 172 00f8 A114     		.short	5281
 173 00fa 2805     		.short	1320
 174 00fc B337     		.short	14259
 175 00fe 3A26     		.short	9786
 176 0100 CDDE     		.short	-8499
 177 0102 44CF     		.short	-12476
 178 0104 DFFD     		.short	-545
 179 0106 56EC     		.short	-5034
 180 0108 E998     		.short	-26391
 181 010a 6089     		.short	-30368
 182 010c FBBB     		.short	-17413
 183 010e 72AA     		.short	-21902
 184 0110 0663     		.short	25350
 185 0112 8F72     		.short	29327
 186 0114 1440     		.short	16404
 187 0116 9D51     		.short	20893
 188 0118 2225     		.short	9506
 189 011a AB34     		.short	13483
 190 011c 3006     		.short	1584
 191 011e B917     		.short	6073
 192 0120 4EEF     		.short	-4274
 193 0122 C7FE     		.short	-313
 194 0124 5CCC     		.short	-13220
 195 0126 D5DD     		.short	-8747
 196 0128 6AA9     		.short	-22166
 197 012a E3B8     		.short	-18205
 198 012c 788A     		.short	-30088
 199 012e F19B     		.short	-25615
 200 0130 8773     		.short	29575
 201 0132 0E62     		.short	25102
 202 0134 9550     		.short	20629
 203 0136 1C41     		.short	16668
 204 0138 A335     		.short	13731
 205 013a 2A24     		.short	9258
 206 013c B116     		.short	5809
 207 013e 3807     		.short	1848
 208 0140 CFFF     		.short	-49
 209 0142 46EE     		.short	-4538
 210 0144 DDDC     		.short	-8995
 211 0146 54CD     		.short	-12972
 212 0148 EBB9     		.short	-17941
 213 014a 62A8     		.short	-22430
 214 014c F99A     		.short	-25863
 215 014e 708B     		.short	-29840
 216 0150 0884     		.short	-31736
 217 0152 8195     		.short	-27263
 218 0154 1AA7     		.short	-22758
 219 0156 93B6     		.short	-18797
 220 0158 2CC2     		.short	-15828
 221 015a A5D3     		.short	-11355
 222 015c 3EE1     		.short	-7874
 223 015e B7F0     		.short	-3913
 224 0160 4008     		.short	2112
 225 0162 C919     		.short	6601
 226 0164 522B     		.short	11090
 227 0166 DB3A     		.short	15067
 228 0168 644E     		.short	20068
 229 016a ED5F     		.short	24557
 230 016c 766D     		.short	28022
 231 016e FF7C     		.short	31999
 232 0170 8994     		.short	-27511
 233 0172 0085     		.short	-31488
 234 0174 9BB7     		.short	-18533
 235 0176 12A6     		.short	-23022
 236 0178 ADD2     		.short	-11603
 237 017a 24C3     		.short	-15580
 238 017c BFF1     		.short	-3649
 239 017e 36E0     		.short	-8138
 240 0180 C118     		.short	6337
 241 0182 4809     		.short	2376
 242 0184 D33B     		.short	15315
 243 0186 5A2A     		.short	10842
 244 0188 E55E     		.short	24293
 245 018a 6C4F     		.short	20332
 246 018c F77D     		.short	32247
 247 018e 7E6C     		.short	27774
 248 0190 0AA5     		.short	-23286
 249 0192 83B4     		.short	-19325
 250 0194 1886     		.short	-31208
 251 0196 9197     		.short	-26735
 252 0198 2EE3     		.short	-7378
 253 019a A7F2     		.short	-3417
 254 019c 3CC0     		.short	-16324
 255 019e B5D1     		.short	-11851
 256 01a0 4229     		.short	10562
 257 01a2 CB38     		.short	14539
 258 01a4 500A     		.short	2640
 259 01a6 D91B     		.short	7129
 260 01a8 666F     		.short	28518
 261 01aa EF7E     		.short	32495
 262 01ac 744C     		.short	19572
 263 01ae FD5D     		.short	24061
 264 01b0 8BB5     		.short	-19061
 265 01b2 02A4     		.short	-23550
 266 01b4 9996     		.short	-26983
 267 01b6 1087     		.short	-30960
 268 01b8 AFF3     		.short	-3153
 269 01ba 26E2     		.short	-7642
 270 01bc BDD0     		.short	-12099
 271 01be 34C1     		.short	-16076
 272 01c0 C339     		.short	14787
 273 01c2 4A28     		.short	10314
 274 01c4 D11A     		.short	6865
 275 01c6 580B     		.short	2904
 276 01c8 E77F     		.short	32743
 277 01ca 6E6E     		.short	28270
 278 01cc F55C     		.short	23797
 279 01ce 7C4D     		.short	19836
 280 01d0 0CC6     		.short	-14836
 281 01d2 85D7     		.short	-10363
 282 01d4 1EE5     		.short	-6882
 283 01d6 97F4     		.short	-2921
 284 01d8 2880     		.short	-32728
 285 01da A191     		.short	-28255
 286 01dc 3AA3     		.short	-23750
 287 01de B3B2     		.short	-19789
 288 01e0 444A     		.short	19012
 289 01e2 CD5B     		.short	23501
 290 01e4 5669     		.short	26966
 291 01e6 DF78     		.short	30943
 292 01e8 600C     		.short	3168
 293 01ea E91D     		.short	7657
 294 01ec 722F     		.short	12146
 295 01ee FB3E     		.short	16123
 296 01f0 8DD6     		.short	-10611
 297 01f2 04C7     		.short	-14588
 298 01f4 9FF5     		.short	-2657
 299 01f6 16E4     		.short	-7146
 300 01f8 A990     		.short	-28503
 301 01fa 2081     		.short	-32480
 302 01fc BBB3     		.short	-19525
 303 01fe 32A2     		.short	-24014
 304 0200 C55A     		.short	23237
 305 0202 4C4B     		.short	19276
 306 0204 D779     		.short	31191
 307 0206 5E68     		.short	26718
 308 0208 E11C     		.short	7393
 309 020a 680D     		.short	3432
 310 020c F33F     		.short	16371
 311 020e 7A2E     		.short	11898
 312 0210 0EE7     		.short	-6386
 313 0212 87F6     		.short	-2425
 314 0214 1CC4     		.short	-15332
 315 0216 95D5     		.short	-10859
 316 0218 2AA1     		.short	-24278
 317 021a A3B0     		.short	-20317
 318 021c 3882     		.short	-32200
 319 021e B193     		.short	-27727
 320 0220 466B     		.short	27462
 321 0222 CF7A     		.short	31439
 322 0224 5448     		.short	18516
 323 0226 DD59     		.short	23005
 324 0228 622D     		.short	11618
 325 022a EB3C     		.short	15595
 326 022c 700E     		.short	3696
 327 022e F91F     		.short	8185
 328 0230 8FF7     		.short	-2161
 329 0232 06E6     		.short	-6650
 330 0234 9DD4     		.short	-11107
 331 0236 14C5     		.short	-15084
 332 0238 ABB1     		.short	-20053
 333 023a 22A0     		.short	-24542
 334 023c B992     		.short	-27975
 335 023e 3083     		.short	-31952
 336 0240 C77B     		.short	31687
 337 0242 4E6A     		.short	27214
 338 0244 D558     		.short	22741
 339 0246 5C49     		.short	18780
 340 0248 E33D     		.short	15843
 341 024a 6A2C     		.short	11370
 342 024c F11E     		.short	7921
 343 024e 780F     		.short	3960
 344              		.comm	openserial_vars,476,4
 345              		.text
 346              		.align	2
 347              		.global	openserial_init
 348              		.thumb
 349              		.thumb_func
 351              	openserial_init:
 352              	.LFB0:
 353              		.file 1 "build/OpenMote-CC2538_armgcc/drivers/common/openserial.c"
   1:build/OpenMote-CC2538_armgcc/drivers/common/openserial.c **** /**
   2:build/OpenMote-CC2538_armgcc/drivers/common/openserial.c **** \brief Definition of the "openserial" driver.
   3:build/OpenMote-CC2538_armgcc/drivers/common/openserial.c **** 
   4:build/OpenMote-CC2538_armgcc/drivers/common/openserial.c **** \author Fabien Chraim <chraim@eecs.berkeley.edu>, March 2012.
   5:build/OpenMote-CC2538_armgcc/drivers/common/openserial.c **** */
   6:build/OpenMote-CC2538_armgcc/drivers/common/openserial.c **** 
   7:build/OpenMote-CC2538_armgcc/drivers/common/openserial.c **** #include "opendefs.h"
   8:build/OpenMote-CC2538_armgcc/drivers/common/openserial.c **** #include "openserial.h"
   9:build/OpenMote-CC2538_armgcc/drivers/common/openserial.c **** #include "IEEE802154E.h"
  10:build/OpenMote-CC2538_armgcc/drivers/common/openserial.c **** #include "neighbors.h"
  11:build/OpenMote-CC2538_armgcc/drivers/common/openserial.c **** #include "sixtop.h"
  12:build/OpenMote-CC2538_armgcc/drivers/common/openserial.c **** #include "icmpv6echo.h"
  13:build/OpenMote-CC2538_armgcc/drivers/common/openserial.c **** #include "idmanager.h"
  14:build/OpenMote-CC2538_armgcc/drivers/common/openserial.c **** #include "openqueue.h"
  15:build/OpenMote-CC2538_armgcc/drivers/common/openserial.c **** #include "openbridge.h"
  16:build/OpenMote-CC2538_armgcc/drivers/common/openserial.c **** #include "leds.h"
  17:build/OpenMote-CC2538_armgcc/drivers/common/openserial.c **** #include "schedule.h"
  18:build/OpenMote-CC2538_armgcc/drivers/common/openserial.c **** #include "uart.h"
  19:build/OpenMote-CC2538_armgcc/drivers/common/openserial.c **** #include "opentimers.h"
  20:build/OpenMote-CC2538_armgcc/drivers/common/openserial.c **** #include "openhdlc.h"
  21:build/OpenMote-CC2538_armgcc/drivers/common/openserial.c **** #include "schedule.h"
  22:build/OpenMote-CC2538_armgcc/drivers/common/openserial.c **** #include "icmpv6rpl.h"
  23:build/OpenMote-CC2538_armgcc/drivers/common/openserial.c **** 
  24:build/OpenMote-CC2538_armgcc/drivers/common/openserial.c **** //=========================== variables =======================================
  25:build/OpenMote-CC2538_armgcc/drivers/common/openserial.c **** 
  26:build/OpenMote-CC2538_armgcc/drivers/common/openserial.c **** openserial_vars_t openserial_vars;
  27:build/OpenMote-CC2538_armgcc/drivers/common/openserial.c **** 
  28:build/OpenMote-CC2538_armgcc/drivers/common/openserial.c **** //=========================== prototypes ======================================
  29:build/OpenMote-CC2538_armgcc/drivers/common/openserial.c **** 
  30:build/OpenMote-CC2538_armgcc/drivers/common/openserial.c **** #ifdef GOLDEN_IMAGE_SNIFFER
  31:build/OpenMote-CC2538_armgcc/drivers/common/openserial.c **** extern void sniffer_setListeningChannel(uint8_t channel);
  32:build/OpenMote-CC2538_armgcc/drivers/common/openserial.c **** #endif
  33:build/OpenMote-CC2538_armgcc/drivers/common/openserial.c **** 
  34:build/OpenMote-CC2538_armgcc/drivers/common/openserial.c **** owerror_t openserial_printInfoErrorCritical(
  35:build/OpenMote-CC2538_armgcc/drivers/common/openserial.c ****    char             severity,
  36:build/OpenMote-CC2538_armgcc/drivers/common/openserial.c ****    uint8_t          calling_component,
  37:build/OpenMote-CC2538_armgcc/drivers/common/openserial.c ****    uint8_t          error_code,
  38:build/OpenMote-CC2538_armgcc/drivers/common/openserial.c ****    errorparameter_t arg1,
  39:build/OpenMote-CC2538_armgcc/drivers/common/openserial.c ****    errorparameter_t arg2
  40:build/OpenMote-CC2538_armgcc/drivers/common/openserial.c **** );
  41:build/OpenMote-CC2538_armgcc/drivers/common/openserial.c **** 
  42:build/OpenMote-CC2538_armgcc/drivers/common/openserial.c **** void openserial_board_reset_cb(
  43:build/OpenMote-CC2538_armgcc/drivers/common/openserial.c ****    opentimer_id_t id
  44:build/OpenMote-CC2538_armgcc/drivers/common/openserial.c **** );
  45:build/OpenMote-CC2538_armgcc/drivers/common/openserial.c **** 
  46:build/OpenMote-CC2538_armgcc/drivers/common/openserial.c **** void openserial_goldenImageCommands(void);
  47:build/OpenMote-CC2538_armgcc/drivers/common/openserial.c **** 
  48:build/OpenMote-CC2538_armgcc/drivers/common/openserial.c **** // HDLC output
  49:build/OpenMote-CC2538_armgcc/drivers/common/openserial.c **** void outputHdlcOpen(void);
  50:build/OpenMote-CC2538_armgcc/drivers/common/openserial.c **** void outputHdlcWrite(uint8_t b);
  51:build/OpenMote-CC2538_armgcc/drivers/common/openserial.c **** void outputHdlcClose(void);
  52:build/OpenMote-CC2538_armgcc/drivers/common/openserial.c **** // HDLC input
  53:build/OpenMote-CC2538_armgcc/drivers/common/openserial.c **** void inputHdlcOpen(void);
  54:build/OpenMote-CC2538_armgcc/drivers/common/openserial.c **** void inputHdlcWrite(uint8_t b);
  55:build/OpenMote-CC2538_armgcc/drivers/common/openserial.c **** void inputHdlcClose(void);
  56:build/OpenMote-CC2538_armgcc/drivers/common/openserial.c **** 
  57:build/OpenMote-CC2538_armgcc/drivers/common/openserial.c **** //=========================== public ==========================================
  58:build/OpenMote-CC2538_armgcc/drivers/common/openserial.c **** 
  59:build/OpenMote-CC2538_armgcc/drivers/common/openserial.c **** void openserial_init() {
 354              		.loc 1 59 0
 355              		.cfi_startproc
 356              		@ args = 0, pretend = 0, frame = 8
 357              		@ frame_needed = 1, uses_anonymous_args = 0
 358 0000 80B5     		push	{r7, lr}
 359              		.cfi_def_cfa_offset 8
 360              		.cfi_offset 7, -8
 361              		.cfi_offset 14, -4
 362 0002 82B0     		sub	sp, sp, #8
 363              		.cfi_def_cfa_offset 16
 364 0004 00AF     		add	r7, sp, #0
 365              		.cfi_def_cfa_register 7
  60:build/OpenMote-CC2538_armgcc/drivers/common/openserial.c ****    uint16_t crc;
  61:build/OpenMote-CC2538_armgcc/drivers/common/openserial.c ****    
  62:build/OpenMote-CC2538_armgcc/drivers/common/openserial.c ****    // reset variable
  63:build/OpenMote-CC2538_armgcc/drivers/common/openserial.c ****    memset(&openserial_vars,0,sizeof(openserial_vars_t));
 366              		.loc 1 63 0
 367 0006 2848     		ldr	r0, .L2
 368 0008 0021     		movs	r1, #0
 369 000a 4FF4EE72 		mov	r2, #476
 370 000e FFF7FEFF 		bl	memset
  64:build/OpenMote-CC2538_armgcc/drivers/common/openserial.c ****    
  65:build/OpenMote-CC2538_armgcc/drivers/common/openserial.c ****    // admin
  66:build/OpenMote-CC2538_armgcc/drivers/common/openserial.c ****    openserial_vars.mode                = MODE_OFF;
 371              		.loc 1 66 0
 372 0012 254B     		ldr	r3, .L2
 373 0014 0022     		movs	r2, #0
 374 0016 1A70     		strb	r2, [r3]
  67:build/OpenMote-CC2538_armgcc/drivers/common/openserial.c ****    openserial_vars.debugPrintCounter   = 0;
 375              		.loc 1 67 0
 376 0018 234B     		ldr	r3, .L2
 377 001a 0022     		movs	r2, #0
 378 001c 5A70     		strb	r2, [r3, #1]
  68:build/OpenMote-CC2538_armgcc/drivers/common/openserial.c ****    
  69:build/OpenMote-CC2538_armgcc/drivers/common/openserial.c ****    // input
  70:build/OpenMote-CC2538_armgcc/drivers/common/openserial.c ****    openserial_vars.reqFrame[0]         = HDLC_FLAG;
 379              		.loc 1 70 0
 380 001e 224B     		ldr	r3, .L2
 381 0020 7E22     		movs	r2, #126
 382 0022 9A70     		strb	r2, [r3, #2]
  71:build/OpenMote-CC2538_armgcc/drivers/common/openserial.c ****    openserial_vars.reqFrame[1]         = SERFRAME_MOTE2PC_REQUEST;
 383              		.loc 1 71 0
 384 0024 204B     		ldr	r3, .L2
 385 0026 5222     		movs	r2, #82
 386 0028 DA70     		strb	r2, [r3, #3]
  72:build/OpenMote-CC2538_armgcc/drivers/common/openserial.c ****    crc = HDLC_CRCINIT;
 387              		.loc 1 72 0
 388 002a 4FF6FF73 		movw	r3, #65535
 389 002e FB80     		strh	r3, [r7, #6]	@ movhi
  73:build/OpenMote-CC2538_armgcc/drivers/common/openserial.c ****    crc = crcIteration(crc,openserial_vars.reqFrame[1]);
 390              		.loc 1 73 0
 391 0030 1D4B     		ldr	r3, .L2
 392 0032 DB78     		ldrb	r3, [r3, #3]	@ zero_extendqisi2
 393 0034 FA88     		ldrh	r2, [r7, #6]
 394 0036 1046     		mov	r0, r2
 395 0038 1946     		mov	r1, r3
 396 003a FFF7FEFF 		bl	crcIteration
 397 003e 0346     		mov	r3, r0
 398 0040 FB80     		strh	r3, [r7, #6]	@ movhi
  74:build/OpenMote-CC2538_armgcc/drivers/common/openserial.c ****    crc = ~crc;
 399              		.loc 1 74 0
 400 0042 FB88     		ldrh	r3, [r7, #6]	@ movhi
 401 0044 DB43     		mvns	r3, r3
 402 0046 FB80     		strh	r3, [r7, #6]	@ movhi
  75:build/OpenMote-CC2538_armgcc/drivers/common/openserial.c ****    openserial_vars.reqFrame[2]         = (crc>>0)&0xff;
 403              		.loc 1 75 0
 404 0048 FB88     		ldrh	r3, [r7, #6]	@ movhi
 405 004a DAB2     		uxtb	r2, r3
 406 004c 164B     		ldr	r3, .L2
 407 004e 1A71     		strb	r2, [r3, #4]
  76:build/OpenMote-CC2538_armgcc/drivers/common/openserial.c ****    openserial_vars.reqFrame[3]         = (crc>>8)&0xff;
 408              		.loc 1 76 0
 409 0050 FB88     		ldrh	r3, [r7, #6]
 410 0052 1B0A     		lsrs	r3, r3, #8
 411 0054 9BB2     		uxth	r3, r3
 412 0056 DAB2     		uxtb	r2, r3
 413 0058 134B     		ldr	r3, .L2
 414 005a 5A71     		strb	r2, [r3, #5]
  77:build/OpenMote-CC2538_armgcc/drivers/common/openserial.c ****    openserial_vars.reqFrame[4]         = HDLC_FLAG;
 415              		.loc 1 77 0
 416 005c 124B     		ldr	r3, .L2
 417 005e 7E22     		movs	r2, #126
 418 0060 9A71     		strb	r2, [r3, #6]
  78:build/OpenMote-CC2538_armgcc/drivers/common/openserial.c ****    openserial_vars.reqFrameIdx         = 0;
 419              		.loc 1 78 0
 420 0062 114B     		ldr	r3, .L2
 421 0064 0022     		movs	r2, #0
 422 0066 DA71     		strb	r2, [r3, #7]
  79:build/OpenMote-CC2538_armgcc/drivers/common/openserial.c ****    openserial_vars.lastRxByte          = HDLC_FLAG;
 423              		.loc 1 79 0
 424 0068 0F4B     		ldr	r3, .L2
 425 006a 7E22     		movs	r2, #126
 426 006c 1A72     		strb	r2, [r3, #8]
  80:build/OpenMote-CC2538_armgcc/drivers/common/openserial.c ****    openserial_vars.busyReceiving       = FALSE;
 427              		.loc 1 80 0
 428 006e 0E4B     		ldr	r3, .L2
 429 0070 0022     		movs	r2, #0
 430 0072 5A72     		strb	r2, [r3, #9]
  81:build/OpenMote-CC2538_armgcc/drivers/common/openserial.c ****    openserial_vars.inputEscaping       = FALSE;
 431              		.loc 1 81 0
 432 0074 0C4B     		ldr	r3, .L2
 433 0076 0022     		movs	r2, #0
 434 0078 9A72     		strb	r2, [r3, #10]
  82:build/OpenMote-CC2538_armgcc/drivers/common/openserial.c ****    openserial_vars.inputBufFill        = 0;
 435              		.loc 1 82 0
 436 007a 0B4B     		ldr	r3, .L2
 437 007c 0022     		movs	r2, #0
 438 007e 9A73     		strb	r2, [r3, #14]
  83:build/OpenMote-CC2538_armgcc/drivers/common/openserial.c ****    
  84:build/OpenMote-CC2538_armgcc/drivers/common/openserial.c ****    // ouput
  85:build/OpenMote-CC2538_armgcc/drivers/common/openserial.c ****    openserial_vars.outputBufFilled     = FALSE;
 439              		.loc 1 85 0
 440 0080 094B     		ldr	r3, .L2
 441 0082 0022     		movs	r2, #0
 442 0084 83F8D720 		strb	r2, [r3, #215]
  86:build/OpenMote-CC2538_armgcc/drivers/common/openserial.c ****    openserial_vars.outputBufIdxR       = 0;
 443              		.loc 1 86 0
 444 0088 074B     		ldr	r3, .L2
 445 008a 0022     		movs	r2, #0
 446 008c 83F8DB20 		strb	r2, [r3, #219]
  87:build/OpenMote-CC2538_armgcc/drivers/common/openserial.c ****    openserial_vars.outputBufIdxW       = 0;
 447              		.loc 1 87 0
 448 0090 054B     		ldr	r3, .L2
 449 0092 0022     		movs	r2, #0
 450 0094 83F8DA20 		strb	r2, [r3, #218]
  88:build/OpenMote-CC2538_armgcc/drivers/common/openserial.c ****    
  89:build/OpenMote-CC2538_armgcc/drivers/common/openserial.c ****    // set callbacks
  90:build/OpenMote-CC2538_armgcc/drivers/common/openserial.c ****    uart_setCallbacks(isr_openserial_tx,
 451              		.loc 1 90 0
 452 0098 0448     		ldr	r0, .L2+4
 453 009a 0549     		ldr	r1, .L2+8
 454 009c FFF7FEFF 		bl	uart_setCallbacks
  91:build/OpenMote-CC2538_armgcc/drivers/common/openserial.c ****                      isr_openserial_rx);
  92:build/OpenMote-CC2538_armgcc/drivers/common/openserial.c **** }
 455              		.loc 1 92 0
 456 00a0 0837     		adds	r7, r7, #8
 457              		.cfi_def_cfa_offset 8
 458 00a2 BD46     		mov	sp, r7
 459              		.cfi_def_cfa_register 13
 460              		@ sp needed
 461 00a4 80BD     		pop	{r7, pc}
 462              	.L3:
 463 00a6 00BF     		.align	2
 464              	.L2:
 465 00a8 00000000 		.word	openserial_vars
 466 00ac 00000000 		.word	isr_openserial_tx
 467 00b0 00000000 		.word	isr_openserial_rx
 468              		.cfi_endproc
 469              	.LFE0:
 471              		.align	2
 472              		.global	openserial_printStatus
 473              		.thumb
 474              		.thumb_func
 476              	openserial_printStatus:
 477              	.LFB1:
  93:build/OpenMote-CC2538_armgcc/drivers/common/openserial.c **** 
  94:build/OpenMote-CC2538_armgcc/drivers/common/openserial.c **** owerror_t openserial_printStatus(uint8_t statusElement,uint8_t* buffer, uint8_t length) {
 478              		.loc 1 94 0
 479              		.cfi_startproc
 480              		@ args = 0, pretend = 0, frame = 16
 481              		@ frame_needed = 1, uses_anonymous_args = 0
 482 00b4 80B5     		push	{r7, lr}
 483              		.cfi_def_cfa_offset 8
 484              		.cfi_offset 7, -8
 485              		.cfi_offset 14, -4
 486 00b6 84B0     		sub	sp, sp, #16
 487              		.cfi_def_cfa_offset 24
 488 00b8 00AF     		add	r7, sp, #0
 489              		.cfi_def_cfa_register 7
 490 00ba 0346     		mov	r3, r0
 491 00bc 3960     		str	r1, [r7]
 492 00be FB71     		strb	r3, [r7, #7]
 493 00c0 1346     		mov	r3, r2
 494 00c2 BB71     		strb	r3, [r7, #6]
  95:build/OpenMote-CC2538_armgcc/drivers/common/openserial.c ****    uint8_t i;
  96:build/OpenMote-CC2538_armgcc/drivers/common/openserial.c ****    INTERRUPT_DECLARATION();
  97:build/OpenMote-CC2538_armgcc/drivers/common/openserial.c ****    
  98:build/OpenMote-CC2538_armgcc/drivers/common/openserial.c ****    DISABLE_INTERRUPTS();
 495              		.loc 1 98 0
 496 00c4 FFF7FEFF 		bl	IntMasterDisable
  99:build/OpenMote-CC2538_armgcc/drivers/common/openserial.c ****    openserial_vars.outputBufFilled  = TRUE;
 497              		.loc 1 99 0
 498 00c8 1B4B     		ldr	r3, .L8
 499 00ca 0122     		movs	r2, #1
 500 00cc 83F8D720 		strb	r2, [r3, #215]
 100:build/OpenMote-CC2538_armgcc/drivers/common/openserial.c ****    outputHdlcOpen();
 501              		.loc 1 100 0
 502 00d0 FFF7FEFF 		bl	outputHdlcOpen
 101:build/OpenMote-CC2538_armgcc/drivers/common/openserial.c ****    outputHdlcWrite(SERFRAME_MOTE2PC_STATUS);
 503              		.loc 1 101 0
 504 00d4 5320     		movs	r0, #83
 505 00d6 FFF7FEFF 		bl	outputHdlcWrite
 102:build/OpenMote-CC2538_armgcc/drivers/common/openserial.c ****    outputHdlcWrite(idmanager_getMyID(ADDR_16B)->addr_16b[0]);
 506              		.loc 1 102 0
 507 00da 0120     		movs	r0, #1
 508 00dc FFF7FEFF 		bl	idmanager_getMyID
 509 00e0 0346     		mov	r3, r0
 510 00e2 5B78     		ldrb	r3, [r3, #1]	@ zero_extendqisi2
 511 00e4 1846     		mov	r0, r3
 512 00e6 FFF7FEFF 		bl	outputHdlcWrite
 103:build/OpenMote-CC2538_armgcc/drivers/common/openserial.c ****    outputHdlcWrite(idmanager_getMyID(ADDR_16B)->addr_16b[1]);
 513              		.loc 1 103 0
 514 00ea 0120     		movs	r0, #1
 515 00ec FFF7FEFF 		bl	idmanager_getMyID
 516 00f0 0346     		mov	r3, r0
 517 00f2 9B78     		ldrb	r3, [r3, #2]	@ zero_extendqisi2
 518 00f4 1846     		mov	r0, r3
 519 00f6 FFF7FEFF 		bl	outputHdlcWrite
 104:build/OpenMote-CC2538_armgcc/drivers/common/openserial.c ****    outputHdlcWrite(statusElement);
 520              		.loc 1 104 0
 521 00fa FB79     		ldrb	r3, [r7, #7]	@ zero_extendqisi2
 522 00fc 1846     		mov	r0, r3
 523 00fe FFF7FEFF 		bl	outputHdlcWrite
 105:build/OpenMote-CC2538_armgcc/drivers/common/openserial.c ****    for (i=0;i<length;i++){
 524              		.loc 1 105 0
 525 0102 0023     		movs	r3, #0
 526 0104 FB73     		strb	r3, [r7, #15]
 527 0106 09E0     		b	.L5
 528              	.L6:
 106:build/OpenMote-CC2538_armgcc/drivers/common/openserial.c ****       outputHdlcWrite(buffer[i]);
 529              		.loc 1 106 0 discriminator 3
 530 0108 FB7B     		ldrb	r3, [r7, #15]	@ zero_extendqisi2
 531 010a 3A68     		ldr	r2, [r7]
 532 010c 1344     		add	r3, r3, r2
 533 010e 1B78     		ldrb	r3, [r3]	@ zero_extendqisi2
 534 0110 1846     		mov	r0, r3
 535 0112 FFF7FEFF 		bl	outputHdlcWrite
 105:build/OpenMote-CC2538_armgcc/drivers/common/openserial.c ****    for (i=0;i<length;i++){
 536              		.loc 1 105 0 discriminator 3
 537 0116 FB7B     		ldrb	r3, [r7, #15]	@ zero_extendqisi2
 538 0118 0133     		adds	r3, r3, #1
 539 011a FB73     		strb	r3, [r7, #15]
 540              	.L5:
 105:build/OpenMote-CC2538_armgcc/drivers/common/openserial.c ****    for (i=0;i<length;i++){
 541              		.loc 1 105 0 is_stmt 0 discriminator 1
 542 011c FA7B     		ldrb	r2, [r7, #15]	@ zero_extendqisi2
 543 011e BB79     		ldrb	r3, [r7, #6]	@ zero_extendqisi2
 544 0120 9A42     		cmp	r2, r3
 545 0122 F1D3     		bcc	.L6
 107:build/OpenMote-CC2538_armgcc/drivers/common/openserial.c ****    }
 108:build/OpenMote-CC2538_armgcc/drivers/common/openserial.c ****    outputHdlcClose();
 546              		.loc 1 108 0 is_stmt 1
 547 0124 FFF7FEFF 		bl	outputHdlcClose
 109:build/OpenMote-CC2538_armgcc/drivers/common/openserial.c ****    ENABLE_INTERRUPTS();
 548              		.loc 1 109 0
 549 0128 FFF7FEFF 		bl	IntMasterEnable
 110:build/OpenMote-CC2538_armgcc/drivers/common/openserial.c ****    
 111:build/OpenMote-CC2538_armgcc/drivers/common/openserial.c ****    return E_SUCCESS;
 550              		.loc 1 111 0
 551 012c 0023     		movs	r3, #0
 112:build/OpenMote-CC2538_armgcc/drivers/common/openserial.c **** }
 552              		.loc 1 112 0
 553 012e 1846     		mov	r0, r3
 554 0130 1037     		adds	r7, r7, #16
 555              		.cfi_def_cfa_offset 8
 556 0132 BD46     		mov	sp, r7
 557              		.cfi_def_cfa_register 13
 558              		@ sp needed
 559 0134 80BD     		pop	{r7, pc}
 560              	.L9:
 561 0136 00BF     		.align	2
 562              	.L8:
 563 0138 00000000 		.word	openserial_vars
 564              		.cfi_endproc
 565              	.LFE1:
 567              		.align	2
 568              		.global	openserial_printInfoErrorCritical
 569              		.thumb
 570              		.thumb_func
 572              	openserial_printInfoErrorCritical:
 573              	.LFB2:
 113:build/OpenMote-CC2538_armgcc/drivers/common/openserial.c **** 
 114:build/OpenMote-CC2538_armgcc/drivers/common/openserial.c **** owerror_t openserial_printInfoErrorCritical(
 115:build/OpenMote-CC2538_armgcc/drivers/common/openserial.c ****       char             severity,
 116:build/OpenMote-CC2538_armgcc/drivers/common/openserial.c ****       uint8_t          calling_component,
 117:build/OpenMote-CC2538_armgcc/drivers/common/openserial.c ****       uint8_t          error_code,
 118:build/OpenMote-CC2538_armgcc/drivers/common/openserial.c ****       errorparameter_t arg1,
 119:build/OpenMote-CC2538_armgcc/drivers/common/openserial.c ****       errorparameter_t arg2
 120:build/OpenMote-CC2538_armgcc/drivers/common/openserial.c ****    ) {
 574              		.loc 1 120 0
 575              		.cfi_startproc
 576              		@ args = 4, pretend = 0, frame = 8
 577              		@ frame_needed = 1, uses_anonymous_args = 0
 578 013c 90B5     		push	{r4, r7, lr}
 579              		.cfi_def_cfa_offset 12
 580              		.cfi_offset 4, -12
 581              		.cfi_offset 7, -8
 582              		.cfi_offset 14, -4
 583 013e 83B0     		sub	sp, sp, #12
 584              		.cfi_def_cfa_offset 24
 585 0140 00AF     		add	r7, sp, #0
 586              		.cfi_def_cfa_register 7
 587 0142 0446     		mov	r4, r0
 588 0144 0846     		mov	r0, r1
 589 0146 1146     		mov	r1, r2
 590 0148 1A46     		mov	r2, r3
 591 014a 2346     		mov	r3, r4
 592 014c FB71     		strb	r3, [r7, #7]
 593 014e 0346     		mov	r3, r0
 594 0150 BB71     		strb	r3, [r7, #6]
 595 0152 0B46     		mov	r3, r1
 596 0154 7B71     		strb	r3, [r7, #5]
 597 0156 1346     		mov	r3, r2	@ movhi
 598 0158 7B80     		strh	r3, [r7, #2]	@ movhi
 121:build/OpenMote-CC2538_armgcc/drivers/common/openserial.c ****    INTERRUPT_DECLARATION();
 122:build/OpenMote-CC2538_armgcc/drivers/common/openserial.c ****    
 123:build/OpenMote-CC2538_armgcc/drivers/common/openserial.c ****    DISABLE_INTERRUPTS();
 599              		.loc 1 123 0
 600 015a FFF7FEFF 		bl	IntMasterDisable
 124:build/OpenMote-CC2538_armgcc/drivers/common/openserial.c ****    openserial_vars.outputBufFilled  = TRUE;
 601              		.loc 1 124 0
 602 015e 214B     		ldr	r3, .L12
 603 0160 0122     		movs	r2, #1
 604 0162 83F8D720 		strb	r2, [r3, #215]
 125:build/OpenMote-CC2538_armgcc/drivers/common/openserial.c ****    outputHdlcOpen();
 605              		.loc 1 125 0
 606 0166 FFF7FEFF 		bl	outputHdlcOpen
 126:build/OpenMote-CC2538_armgcc/drivers/common/openserial.c ****    outputHdlcWrite(severity);
 607              		.loc 1 126 0
 608 016a FB79     		ldrb	r3, [r7, #7]	@ zero_extendqisi2
 609 016c 1846     		mov	r0, r3
 610 016e FFF7FEFF 		bl	outputHdlcWrite
 127:build/OpenMote-CC2538_armgcc/drivers/common/openserial.c ****    outputHdlcWrite(idmanager_getMyID(ADDR_16B)->addr_16b[0]);
 611              		.loc 1 127 0
 612 0172 0120     		movs	r0, #1
 613 0174 FFF7FEFF 		bl	idmanager_getMyID
 614 0178 0346     		mov	r3, r0
 615 017a 5B78     		ldrb	r3, [r3, #1]	@ zero_extendqisi2
 616 017c 1846     		mov	r0, r3
 617 017e FFF7FEFF 		bl	outputHdlcWrite
 128:build/OpenMote-CC2538_armgcc/drivers/common/openserial.c ****    outputHdlcWrite(idmanager_getMyID(ADDR_16B)->addr_16b[1]);
 618              		.loc 1 128 0
 619 0182 0120     		movs	r0, #1
 620 0184 FFF7FEFF 		bl	idmanager_getMyID
 621 0188 0346     		mov	r3, r0
 622 018a 9B78     		ldrb	r3, [r3, #2]	@ zero_extendqisi2
 623 018c 1846     		mov	r0, r3
 624 018e FFF7FEFF 		bl	outputHdlcWrite
 129:build/OpenMote-CC2538_armgcc/drivers/common/openserial.c ****    outputHdlcWrite(calling_component);
 625              		.loc 1 129 0
 626 0192 BB79     		ldrb	r3, [r7, #6]	@ zero_extendqisi2
 627 0194 1846     		mov	r0, r3
 628 0196 FFF7FEFF 		bl	outputHdlcWrite
 130:build/OpenMote-CC2538_armgcc/drivers/common/openserial.c ****    outputHdlcWrite(error_code);
 629              		.loc 1 130 0
 630 019a 7B79     		ldrb	r3, [r7, #5]	@ zero_extendqisi2
 631 019c 1846     		mov	r0, r3
 632 019e FFF7FEFF 		bl	outputHdlcWrite
 131:build/OpenMote-CC2538_armgcc/drivers/common/openserial.c ****    outputHdlcWrite((uint8_t)((arg1 & 0xff00)>>8));
 633              		.loc 1 131 0
 634 01a2 7B88     		ldrh	r3, [r7, #2]
 635 01a4 1B0A     		lsrs	r3, r3, #8
 636 01a6 9BB2     		uxth	r3, r3
 637 01a8 DBB2     		uxtb	r3, r3
 638 01aa 1846     		mov	r0, r3
 639 01ac FFF7FEFF 		bl	outputHdlcWrite
 132:build/OpenMote-CC2538_armgcc/drivers/common/openserial.c ****    outputHdlcWrite((uint8_t) (arg1 & 0x00ff));
 640              		.loc 1 132 0
 641 01b0 7B88     		ldrh	r3, [r7, #2]	@ movhi
 642 01b2 DBB2     		uxtb	r3, r3
 643 01b4 1846     		mov	r0, r3
 644 01b6 FFF7FEFF 		bl	outputHdlcWrite
 133:build/OpenMote-CC2538_armgcc/drivers/common/openserial.c ****    outputHdlcWrite((uint8_t)((arg2 & 0xff00)>>8));
 645              		.loc 1 133 0
 646 01ba 3B8B     		ldrh	r3, [r7, #24]
 647 01bc 1B0A     		lsrs	r3, r3, #8
 648 01be 9BB2     		uxth	r3, r3
 649 01c0 DBB2     		uxtb	r3, r3
 650 01c2 1846     		mov	r0, r3
 651 01c4 FFF7FEFF 		bl	outputHdlcWrite
 134:build/OpenMote-CC2538_armgcc/drivers/common/openserial.c ****    outputHdlcWrite((uint8_t) (arg2 & 0x00ff));
 652              		.loc 1 134 0
 653 01c8 3B8B     		ldrh	r3, [r7, #24]	@ movhi
 654 01ca DBB2     		uxtb	r3, r3
 655 01cc 1846     		mov	r0, r3
 656 01ce FFF7FEFF 		bl	outputHdlcWrite
 135:build/OpenMote-CC2538_armgcc/drivers/common/openserial.c ****    outputHdlcClose();
 657              		.loc 1 135 0
 658 01d2 FFF7FEFF 		bl	outputHdlcClose
 136:build/OpenMote-CC2538_armgcc/drivers/common/openserial.c ****    ENABLE_INTERRUPTS();
 659              		.loc 1 136 0
 660 01d6 FFF7FEFF 		bl	IntMasterEnable
 137:build/OpenMote-CC2538_armgcc/drivers/common/openserial.c ****    
 138:build/OpenMote-CC2538_armgcc/drivers/common/openserial.c ****    return E_SUCCESS;
 661              		.loc 1 138 0
 662 01da 0023     		movs	r3, #0
 139:build/OpenMote-CC2538_armgcc/drivers/common/openserial.c **** }
 663              		.loc 1 139 0
 664 01dc 1846     		mov	r0, r3
 665 01de 0C37     		adds	r7, r7, #12
 666              		.cfi_def_cfa_offset 12
 667 01e0 BD46     		mov	sp, r7
 668              		.cfi_def_cfa_register 13
 669              		@ sp needed
 670 01e2 90BD     		pop	{r4, r7, pc}
 671              	.L13:
 672              		.align	2
 673              	.L12:
 674 01e4 00000000 		.word	openserial_vars
 675              		.cfi_endproc
 676              	.LFE2:
 678              		.align	2
 679              		.global	openserial_printData
 680              		.thumb
 681              		.thumb_func
 683              	openserial_printData:
 684              	.LFB3:
 140:build/OpenMote-CC2538_armgcc/drivers/common/openserial.c **** 
 141:build/OpenMote-CC2538_armgcc/drivers/common/openserial.c **** owerror_t openserial_printData(uint8_t* buffer, uint8_t length) {
 685              		.loc 1 141 0
 686              		.cfi_startproc
 687              		@ args = 0, pretend = 0, frame = 16
 688              		@ frame_needed = 1, uses_anonymous_args = 0
 689 01e8 80B5     		push	{r7, lr}
 690              		.cfi_def_cfa_offset 8
 691              		.cfi_offset 7, -8
 692              		.cfi_offset 14, -4
 693 01ea 84B0     		sub	sp, sp, #16
 694              		.cfi_def_cfa_offset 24
 695 01ec 00AF     		add	r7, sp, #0
 696              		.cfi_def_cfa_register 7
 697 01ee 7860     		str	r0, [r7, #4]
 698 01f0 0B46     		mov	r3, r1
 699 01f2 FB70     		strb	r3, [r7, #3]
 142:build/OpenMote-CC2538_armgcc/drivers/common/openserial.c ****    uint8_t  i;
 143:build/OpenMote-CC2538_armgcc/drivers/common/openserial.c ****    uint8_t  asn[5];
 144:build/OpenMote-CC2538_armgcc/drivers/common/openserial.c ****    INTERRUPT_DECLARATION();
 145:build/OpenMote-CC2538_armgcc/drivers/common/openserial.c ****    
 146:build/OpenMote-CC2538_armgcc/drivers/common/openserial.c ****    // retrieve ASN
 147:build/OpenMote-CC2538_armgcc/drivers/common/openserial.c ****    ieee154e_getAsn(asn);// byte01,byte23,byte4
 700              		.loc 1 147 0
 701 01f4 07F10803 		add	r3, r7, #8
 702 01f8 1846     		mov	r0, r3
 703 01fa FFF7FEFF 		bl	ieee154e_getAsn
 148:build/OpenMote-CC2538_armgcc/drivers/common/openserial.c ****    
 149:build/OpenMote-CC2538_armgcc/drivers/common/openserial.c ****    DISABLE_INTERRUPTS();
 704              		.loc 1 149 0
 705 01fe FFF7FEFF 		bl	IntMasterDisable
 150:build/OpenMote-CC2538_armgcc/drivers/common/openserial.c ****    openserial_vars.outputBufFilled  = TRUE;
 706              		.loc 1 150 0
 707 0202 234B     		ldr	r3, .L18
 708 0204 0122     		movs	r2, #1
 709 0206 83F8D720 		strb	r2, [r3, #215]
 151:build/OpenMote-CC2538_armgcc/drivers/common/openserial.c ****    outputHdlcOpen();
 710              		.loc 1 151 0
 711 020a FFF7FEFF 		bl	outputHdlcOpen
 152:build/OpenMote-CC2538_armgcc/drivers/common/openserial.c ****    outputHdlcWrite(SERFRAME_MOTE2PC_DATA);
 712              		.loc 1 152 0
 713 020e 4420     		movs	r0, #68
 714 0210 FFF7FEFF 		bl	outputHdlcWrite
 153:build/OpenMote-CC2538_armgcc/drivers/common/openserial.c ****    outputHdlcWrite(idmanager_getMyID(ADDR_16B)->addr_16b[1]);
 715              		.loc 1 153 0
 716 0214 0120     		movs	r0, #1
 717 0216 FFF7FEFF 		bl	idmanager_getMyID
 718 021a 0346     		mov	r3, r0
 719 021c 9B78     		ldrb	r3, [r3, #2]	@ zero_extendqisi2
 720 021e 1846     		mov	r0, r3
 721 0220 FFF7FEFF 		bl	outputHdlcWrite
 154:build/OpenMote-CC2538_armgcc/drivers/common/openserial.c ****    outputHdlcWrite(idmanager_getMyID(ADDR_16B)->addr_16b[0]);
 722              		.loc 1 154 0
 723 0224 0120     		movs	r0, #1
 724 0226 FFF7FEFF 		bl	idmanager_getMyID
 725 022a 0346     		mov	r3, r0
 726 022c 5B78     		ldrb	r3, [r3, #1]	@ zero_extendqisi2
 727 022e 1846     		mov	r0, r3
 728 0230 FFF7FEFF 		bl	outputHdlcWrite
 155:build/OpenMote-CC2538_armgcc/drivers/common/openserial.c ****    outputHdlcWrite(asn[0]);
 729              		.loc 1 155 0
 730 0234 3B7A     		ldrb	r3, [r7, #8]	@ zero_extendqisi2
 731 0236 1846     		mov	r0, r3
 732 0238 FFF7FEFF 		bl	outputHdlcWrite
 156:build/OpenMote-CC2538_armgcc/drivers/common/openserial.c ****    outputHdlcWrite(asn[1]);
 733              		.loc 1 156 0
 734 023c 7B7A     		ldrb	r3, [r7, #9]	@ zero_extendqisi2
 735 023e 1846     		mov	r0, r3
 736 0240 FFF7FEFF 		bl	outputHdlcWrite
 157:build/OpenMote-CC2538_armgcc/drivers/common/openserial.c ****    outputHdlcWrite(asn[2]);
 737              		.loc 1 157 0
 738 0244 BB7A     		ldrb	r3, [r7, #10]	@ zero_extendqisi2
 739 0246 1846     		mov	r0, r3
 740 0248 FFF7FEFF 		bl	outputHdlcWrite
 158:build/OpenMote-CC2538_armgcc/drivers/common/openserial.c ****    outputHdlcWrite(asn[3]);
 741              		.loc 1 158 0
 742 024c FB7A     		ldrb	r3, [r7, #11]	@ zero_extendqisi2
 743 024e 1846     		mov	r0, r3
 744 0250 FFF7FEFF 		bl	outputHdlcWrite
 159:build/OpenMote-CC2538_armgcc/drivers/common/openserial.c ****    outputHdlcWrite(asn[4]);
 745              		.loc 1 159 0
 746 0254 3B7B     		ldrb	r3, [r7, #12]	@ zero_extendqisi2
 747 0256 1846     		mov	r0, r3
 748 0258 FFF7FEFF 		bl	outputHdlcWrite
 160:build/OpenMote-CC2538_armgcc/drivers/common/openserial.c ****    for (i=0;i<length;i++){
 749              		.loc 1 160 0
 750 025c 0023     		movs	r3, #0
 751 025e FB73     		strb	r3, [r7, #15]
 752 0260 09E0     		b	.L15
 753              	.L16:
 161:build/OpenMote-CC2538_armgcc/drivers/common/openserial.c ****       outputHdlcWrite(buffer[i]);
 754              		.loc 1 161 0 discriminator 3
 755 0262 FB7B     		ldrb	r3, [r7, #15]	@ zero_extendqisi2
 756 0264 7A68     		ldr	r2, [r7, #4]
 757 0266 1344     		add	r3, r3, r2
 758 0268 1B78     		ldrb	r3, [r3]	@ zero_extendqisi2
 759 026a 1846     		mov	r0, r3
 760 026c FFF7FEFF 		bl	outputHdlcWrite
 160:build/OpenMote-CC2538_armgcc/drivers/common/openserial.c ****    for (i=0;i<length;i++){
 761              		.loc 1 160 0 discriminator 3
 762 0270 FB7B     		ldrb	r3, [r7, #15]	@ zero_extendqisi2
 763 0272 0133     		adds	r3, r3, #1
 764 0274 FB73     		strb	r3, [r7, #15]
 765              	.L15:
 160:build/OpenMote-CC2538_armgcc/drivers/common/openserial.c ****    for (i=0;i<length;i++){
 766              		.loc 1 160 0 is_stmt 0 discriminator 1
 767 0276 FA7B     		ldrb	r2, [r7, #15]	@ zero_extendqisi2
 768 0278 FB78     		ldrb	r3, [r7, #3]	@ zero_extendqisi2
 769 027a 9A42     		cmp	r2, r3
 770 027c F1D3     		bcc	.L16
 162:build/OpenMote-CC2538_armgcc/drivers/common/openserial.c ****    }
 163:build/OpenMote-CC2538_armgcc/drivers/common/openserial.c ****    outputHdlcClose();
 771              		.loc 1 163 0 is_stmt 1
 772 027e FFF7FEFF 		bl	outputHdlcClose
 164:build/OpenMote-CC2538_armgcc/drivers/common/openserial.c ****    ENABLE_INTERRUPTS();
 773              		.loc 1 164 0
 774 0282 FFF7FEFF 		bl	IntMasterEnable
 165:build/OpenMote-CC2538_armgcc/drivers/common/openserial.c ****    
 166:build/OpenMote-CC2538_armgcc/drivers/common/openserial.c ****    return E_SUCCESS;
 775              		.loc 1 166 0
 776 0286 0023     		movs	r3, #0
 167:build/OpenMote-CC2538_armgcc/drivers/common/openserial.c **** }
 777              		.loc 1 167 0
 778 0288 1846     		mov	r0, r3
 779 028a 1037     		adds	r7, r7, #16
 780              		.cfi_def_cfa_offset 8
 781 028c BD46     		mov	sp, r7
 782              		.cfi_def_cfa_register 13
 783              		@ sp needed
 784 028e 80BD     		pop	{r7, pc}
 785              	.L19:
 786              		.align	2
 787              	.L18:
 788 0290 00000000 		.word	openserial_vars
 789              		.cfi_endproc
 790              	.LFE3:
 792              		.align	2
 793              		.global	openserial_printPacket
 794              		.thumb
 795              		.thumb_func
 797              	openserial_printPacket:
 798              	.LFB4:
 168:build/OpenMote-CC2538_armgcc/drivers/common/openserial.c **** 
 169:build/OpenMote-CC2538_armgcc/drivers/common/openserial.c **** owerror_t openserial_printPacket(uint8_t* buffer, uint8_t length, uint8_t channel) {
 799              		.loc 1 169 0
 800              		.cfi_startproc
 801              		@ args = 0, pretend = 0, frame = 16
 802              		@ frame_needed = 1, uses_anonymous_args = 0
 803 0294 80B5     		push	{r7, lr}
 804              		.cfi_def_cfa_offset 8
 805              		.cfi_offset 7, -8
 806              		.cfi_offset 14, -4
 807 0296 84B0     		sub	sp, sp, #16
 808              		.cfi_def_cfa_offset 24
 809 0298 00AF     		add	r7, sp, #0
 810              		.cfi_def_cfa_register 7
 811 029a 7860     		str	r0, [r7, #4]
 812 029c 0B46     		mov	r3, r1
 813 029e FB70     		strb	r3, [r7, #3]
 814 02a0 1346     		mov	r3, r2
 815 02a2 BB70     		strb	r3, [r7, #2]
 170:build/OpenMote-CC2538_armgcc/drivers/common/openserial.c ****    uint8_t  i;
 171:build/OpenMote-CC2538_armgcc/drivers/common/openserial.c ****    INTERRUPT_DECLARATION();
 172:build/OpenMote-CC2538_armgcc/drivers/common/openserial.c ****    
 173:build/OpenMote-CC2538_armgcc/drivers/common/openserial.c ****    DISABLE_INTERRUPTS();
 816              		.loc 1 173 0
 817 02a4 FFF7FEFF 		bl	IntMasterDisable
 174:build/OpenMote-CC2538_armgcc/drivers/common/openserial.c ****    openserial_vars.outputBufFilled  = TRUE;
 818              		.loc 1 174 0
 819 02a8 1B4B     		ldr	r3, .L24
 820 02aa 0122     		movs	r2, #1
 821 02ac 83F8D720 		strb	r2, [r3, #215]
 175:build/OpenMote-CC2538_armgcc/drivers/common/openserial.c ****    outputHdlcOpen();
 822              		.loc 1 175 0
 823 02b0 FFF7FEFF 		bl	outputHdlcOpen
 176:build/OpenMote-CC2538_armgcc/drivers/common/openserial.c ****    outputHdlcWrite(SERFRAME_MOTE2PC_SNIFFED_PACKET);
 824              		.loc 1 176 0
 825 02b4 5020     		movs	r0, #80
 826 02b6 FFF7FEFF 		bl	outputHdlcWrite
 177:build/OpenMote-CC2538_armgcc/drivers/common/openserial.c ****    outputHdlcWrite(idmanager_getMyID(ADDR_16B)->addr_16b[1]);
 827              		.loc 1 177 0
 828 02ba 0120     		movs	r0, #1
 829 02bc FFF7FEFF 		bl	idmanager_getMyID
 830 02c0 0346     		mov	r3, r0
 831 02c2 9B78     		ldrb	r3, [r3, #2]	@ zero_extendqisi2
 832 02c4 1846     		mov	r0, r3
 833 02c6 FFF7FEFF 		bl	outputHdlcWrite
 178:build/OpenMote-CC2538_armgcc/drivers/common/openserial.c ****    outputHdlcWrite(idmanager_getMyID(ADDR_16B)->addr_16b[0]);
 834              		.loc 1 178 0
 835 02ca 0120     		movs	r0, #1
 836 02cc FFF7FEFF 		bl	idmanager_getMyID
 837 02d0 0346     		mov	r3, r0
 838 02d2 5B78     		ldrb	r3, [r3, #1]	@ zero_extendqisi2
 839 02d4 1846     		mov	r0, r3
 840 02d6 FFF7FEFF 		bl	outputHdlcWrite
 179:build/OpenMote-CC2538_armgcc/drivers/common/openserial.c ****    for (i=0;i<length;i++){
 841              		.loc 1 179 0
 842 02da 0023     		movs	r3, #0
 843 02dc FB73     		strb	r3, [r7, #15]
 844 02de 09E0     		b	.L21
 845              	.L22:
 180:build/OpenMote-CC2538_armgcc/drivers/common/openserial.c ****       outputHdlcWrite(buffer[i]);
 846              		.loc 1 180 0 discriminator 3
 847 02e0 FB7B     		ldrb	r3, [r7, #15]	@ zero_extendqisi2
 848 02e2 7A68     		ldr	r2, [r7, #4]
 849 02e4 1344     		add	r3, r3, r2
 850 02e6 1B78     		ldrb	r3, [r3]	@ zero_extendqisi2
 851 02e8 1846     		mov	r0, r3
 852 02ea FFF7FEFF 		bl	outputHdlcWrite
 179:build/OpenMote-CC2538_armgcc/drivers/common/openserial.c ****    for (i=0;i<length;i++){
 853              		.loc 1 179 0 discriminator 3
 854 02ee FB7B     		ldrb	r3, [r7, #15]	@ zero_extendqisi2
 855 02f0 0133     		adds	r3, r3, #1
 856 02f2 FB73     		strb	r3, [r7, #15]
 857              	.L21:
 179:build/OpenMote-CC2538_armgcc/drivers/common/openserial.c ****    for (i=0;i<length;i++){
 858              		.loc 1 179 0 is_stmt 0 discriminator 1
 859 02f4 FA7B     		ldrb	r2, [r7, #15]	@ zero_extendqisi2
 860 02f6 FB78     		ldrb	r3, [r7, #3]	@ zero_extendqisi2
 861 02f8 9A42     		cmp	r2, r3
 862 02fa F1D3     		bcc	.L22
 181:build/OpenMote-CC2538_armgcc/drivers/common/openserial.c ****    }
 182:build/OpenMote-CC2538_armgcc/drivers/common/openserial.c ****    outputHdlcWrite(channel);
 863              		.loc 1 182 0 is_stmt 1
 864 02fc BB78     		ldrb	r3, [r7, #2]	@ zero_extendqisi2
 865 02fe 1846     		mov	r0, r3
 866 0300 FFF7FEFF 		bl	outputHdlcWrite
 183:build/OpenMote-CC2538_armgcc/drivers/common/openserial.c ****    outputHdlcClose();
 867              		.loc 1 183 0
 868 0304 FFF7FEFF 		bl	outputHdlcClose
 184:build/OpenMote-CC2538_armgcc/drivers/common/openserial.c ****    
 185:build/OpenMote-CC2538_armgcc/drivers/common/openserial.c ****    ENABLE_INTERRUPTS();
 869              		.loc 1 185 0
 870 0308 FFF7FEFF 		bl	IntMasterEnable
 186:build/OpenMote-CC2538_armgcc/drivers/common/openserial.c ****    
 187:build/OpenMote-CC2538_armgcc/drivers/common/openserial.c ****    return E_SUCCESS;
 871              		.loc 1 187 0
 872 030c 0023     		movs	r3, #0
 188:build/OpenMote-CC2538_armgcc/drivers/common/openserial.c **** }
 873              		.loc 1 188 0
 874 030e 1846     		mov	r0, r3
 875 0310 1037     		adds	r7, r7, #16
 876              		.cfi_def_cfa_offset 8
 877 0312 BD46     		mov	sp, r7
 878              		.cfi_def_cfa_register 13
 879              		@ sp needed
 880 0314 80BD     		pop	{r7, pc}
 881              	.L25:
 882 0316 00BF     		.align	2
 883              	.L24:
 884 0318 00000000 		.word	openserial_vars
 885              		.cfi_endproc
 886              	.LFE4:
 888              		.align	2
 889              		.global	openserial_printInfo
 890              		.thumb
 891              		.thumb_func
 893              	openserial_printInfo:
 894              	.LFB5:
 189:build/OpenMote-CC2538_armgcc/drivers/common/openserial.c **** 
 190:build/OpenMote-CC2538_armgcc/drivers/common/openserial.c **** owerror_t openserial_printInfo(uint8_t calling_component, uint8_t error_code,
 191:build/OpenMote-CC2538_armgcc/drivers/common/openserial.c ****                               errorparameter_t arg1,
 192:build/OpenMote-CC2538_armgcc/drivers/common/openserial.c ****                               errorparameter_t arg2) {
 895              		.loc 1 192 0
 896              		.cfi_startproc
 897              		@ args = 0, pretend = 0, frame = 8
 898              		@ frame_needed = 1, uses_anonymous_args = 0
 899 031c 90B5     		push	{r4, r7, lr}
 900              		.cfi_def_cfa_offset 12
 901              		.cfi_offset 4, -12
 902              		.cfi_offset 7, -8
 903              		.cfi_offset 14, -4
 904 031e 85B0     		sub	sp, sp, #20
 905              		.cfi_def_cfa_offset 32
 906 0320 02AF     		add	r7, sp, #8
 907              		.cfi_def_cfa 7, 24
 908 0322 0446     		mov	r4, r0
 909 0324 0846     		mov	r0, r1
 910 0326 1146     		mov	r1, r2
 911 0328 1A46     		mov	r2, r3
 912 032a 2346     		mov	r3, r4
 913 032c FB71     		strb	r3, [r7, #7]
 914 032e 0346     		mov	r3, r0
 915 0330 BB71     		strb	r3, [r7, #6]
 916 0332 0B46     		mov	r3, r1	@ movhi
 917 0334 BB80     		strh	r3, [r7, #4]	@ movhi
 918 0336 1346     		mov	r3, r2	@ movhi
 919 0338 7B80     		strh	r3, [r7, #2]	@ movhi
 193:build/OpenMote-CC2538_armgcc/drivers/common/openserial.c ****    return openserial_printInfoErrorCritical(
 920              		.loc 1 193 0
 921 033a F979     		ldrb	r1, [r7, #7]	@ zero_extendqisi2
 922 033c BA79     		ldrb	r2, [r7, #6]	@ zero_extendqisi2
 923 033e BC88     		ldrh	r4, [r7, #4]
 924 0340 7B88     		ldrh	r3, [r7, #2]
 925 0342 0093     		str	r3, [sp]
 926 0344 4920     		movs	r0, #73
 927 0346 2346     		mov	r3, r4
 928 0348 FFF7FEFF 		bl	openserial_printInfoErrorCritical
 929 034c 0346     		mov	r3, r0
 194:build/OpenMote-CC2538_armgcc/drivers/common/openserial.c ****       SERFRAME_MOTE2PC_INFO,
 195:build/OpenMote-CC2538_armgcc/drivers/common/openserial.c ****       calling_component,
 196:build/OpenMote-CC2538_armgcc/drivers/common/openserial.c ****       error_code,
 197:build/OpenMote-CC2538_armgcc/drivers/common/openserial.c ****       arg1,
 198:build/OpenMote-CC2538_armgcc/drivers/common/openserial.c ****       arg2
 199:build/OpenMote-CC2538_armgcc/drivers/common/openserial.c ****    );
 200:build/OpenMote-CC2538_armgcc/drivers/common/openserial.c **** }
 930              		.loc 1 200 0
 931 034e 1846     		mov	r0, r3
 932 0350 0C37     		adds	r7, r7, #12
 933              		.cfi_def_cfa_offset 12
 934 0352 BD46     		mov	sp, r7
 935              		.cfi_def_cfa_register 13
 936              		@ sp needed
 937 0354 90BD     		pop	{r4, r7, pc}
 938              		.cfi_endproc
 939              	.LFE5:
 941 0356 00BF     		.align	2
 942              		.global	openserial_printError
 943              		.thumb
 944              		.thumb_func
 946              	openserial_printError:
 947              	.LFB6:
 201:build/OpenMote-CC2538_armgcc/drivers/common/openserial.c **** 
 202:build/OpenMote-CC2538_armgcc/drivers/common/openserial.c **** owerror_t openserial_printError(uint8_t calling_component, uint8_t error_code,
 203:build/OpenMote-CC2538_armgcc/drivers/common/openserial.c ****                               errorparameter_t arg1,
 204:build/OpenMote-CC2538_armgcc/drivers/common/openserial.c ****                               errorparameter_t arg2) {
 948              		.loc 1 204 0
 949              		.cfi_startproc
 950              		@ args = 0, pretend = 0, frame = 8
 951              		@ frame_needed = 1, uses_anonymous_args = 0
 952 0358 90B5     		push	{r4, r7, lr}
 953              		.cfi_def_cfa_offset 12
 954              		.cfi_offset 4, -12
 955              		.cfi_offset 7, -8
 956              		.cfi_offset 14, -4
 957 035a 85B0     		sub	sp, sp, #20
 958              		.cfi_def_cfa_offset 32
 959 035c 02AF     		add	r7, sp, #8
 960              		.cfi_def_cfa 7, 24
 961 035e 0446     		mov	r4, r0
 962 0360 0846     		mov	r0, r1
 963 0362 1146     		mov	r1, r2
 964 0364 1A46     		mov	r2, r3
 965 0366 2346     		mov	r3, r4
 966 0368 FB71     		strb	r3, [r7, #7]
 967 036a 0346     		mov	r3, r0
 968 036c BB71     		strb	r3, [r7, #6]
 969 036e 0B46     		mov	r3, r1	@ movhi
 970 0370 BB80     		strh	r3, [r7, #4]	@ movhi
 971 0372 1346     		mov	r3, r2	@ movhi
 972 0374 7B80     		strh	r3, [r7, #2]	@ movhi
 205:build/OpenMote-CC2538_armgcc/drivers/common/openserial.c ****    // blink error LED, this is serious
 206:build/OpenMote-CC2538_armgcc/drivers/common/openserial.c ****    leds_error_toggle();
 973              		.loc 1 206 0
 974 0376 FFF7FEFF 		bl	leds_error_toggle
 207:build/OpenMote-CC2538_armgcc/drivers/common/openserial.c ****    
 208:build/OpenMote-CC2538_armgcc/drivers/common/openserial.c ****    return openserial_printInfoErrorCritical(
 975              		.loc 1 208 0
 976 037a F979     		ldrb	r1, [r7, #7]	@ zero_extendqisi2
 977 037c BA79     		ldrb	r2, [r7, #6]	@ zero_extendqisi2
 978 037e BC88     		ldrh	r4, [r7, #4]
 979 0380 7B88     		ldrh	r3, [r7, #2]
 980 0382 0093     		str	r3, [sp]
 981 0384 4520     		movs	r0, #69
 982 0386 2346     		mov	r3, r4
 983 0388 FFF7FEFF 		bl	openserial_printInfoErrorCritical
 984 038c 0346     		mov	r3, r0
 209:build/OpenMote-CC2538_armgcc/drivers/common/openserial.c ****       SERFRAME_MOTE2PC_ERROR,
 210:build/OpenMote-CC2538_armgcc/drivers/common/openserial.c ****       calling_component,
 211:build/OpenMote-CC2538_armgcc/drivers/common/openserial.c ****       error_code,
 212:build/OpenMote-CC2538_armgcc/drivers/common/openserial.c ****       arg1,
 213:build/OpenMote-CC2538_armgcc/drivers/common/openserial.c ****       arg2
 214:build/OpenMote-CC2538_armgcc/drivers/common/openserial.c ****    );
 215:build/OpenMote-CC2538_armgcc/drivers/common/openserial.c **** }
 985              		.loc 1 215 0
 986 038e 1846     		mov	r0, r3
 987 0390 0C37     		adds	r7, r7, #12
 988              		.cfi_def_cfa_offset 12
 989 0392 BD46     		mov	sp, r7
 990              		.cfi_def_cfa_register 13
 991              		@ sp needed
 992 0394 90BD     		pop	{r4, r7, pc}
 993              		.cfi_endproc
 994              	.LFE6:
 996 0396 00BF     		.align	2
 997              		.global	openserial_printCritical
 998              		.thumb
 999              		.thumb_func
 1001              	openserial_printCritical:
 1002              	.LFB7:
 216:build/OpenMote-CC2538_armgcc/drivers/common/openserial.c **** 
 217:build/OpenMote-CC2538_armgcc/drivers/common/openserial.c **** owerror_t openserial_printCritical(uint8_t calling_component, uint8_t error_code,
 218:build/OpenMote-CC2538_armgcc/drivers/common/openserial.c ****                               errorparameter_t arg1,
 219:build/OpenMote-CC2538_armgcc/drivers/common/openserial.c ****                               errorparameter_t arg2) {
 1003              		.loc 1 219 0
 1004              		.cfi_startproc
 1005              		@ args = 0, pretend = 0, frame = 8
 1006              		@ frame_needed = 1, uses_anonymous_args = 0
 1007 0398 90B5     		push	{r4, r7, lr}
 1008              		.cfi_def_cfa_offset 12
 1009              		.cfi_offset 4, -12
 1010              		.cfi_offset 7, -8
 1011              		.cfi_offset 14, -4
 1012 039a 85B0     		sub	sp, sp, #20
 1013              		.cfi_def_cfa_offset 32
 1014 039c 02AF     		add	r7, sp, #8
 1015              		.cfi_def_cfa 7, 24
 1016 039e 0446     		mov	r4, r0
 1017 03a0 0846     		mov	r0, r1
 1018 03a2 1146     		mov	r1, r2
 1019 03a4 1A46     		mov	r2, r3
 1020 03a6 2346     		mov	r3, r4
 1021 03a8 FB71     		strb	r3, [r7, #7]
 1022 03aa 0346     		mov	r3, r0
 1023 03ac BB71     		strb	r3, [r7, #6]
 1024 03ae 0B46     		mov	r3, r1	@ movhi
 1025 03b0 BB80     		strh	r3, [r7, #4]	@ movhi
 1026 03b2 1346     		mov	r3, r2	@ movhi
 1027 03b4 7B80     		strh	r3, [r7, #2]	@ movhi
 220:build/OpenMote-CC2538_armgcc/drivers/common/openserial.c ****    // blink error LED, this is serious
 221:build/OpenMote-CC2538_armgcc/drivers/common/openserial.c ****    leds_error_blink();
 1028              		.loc 1 221 0
 1029 03b6 FFF7FEFF 		bl	leds_error_blink
 222:build/OpenMote-CC2538_armgcc/drivers/common/openserial.c ****    
 223:build/OpenMote-CC2538_armgcc/drivers/common/openserial.c ****    // schedule for the mote to reboot in 10s
 224:build/OpenMote-CC2538_armgcc/drivers/common/openserial.c ****    opentimers_start(10000,
 1030              		.loc 1 224 0
 1031 03ba 42F21070 		movw	r0, #10000
 1032 03be 0121     		movs	r1, #1
 1033 03c0 0022     		movs	r2, #0
 1034 03c2 084B     		ldr	r3, .L32
 1035 03c4 FFF7FEFF 		bl	opentimers_start
 225:build/OpenMote-CC2538_armgcc/drivers/common/openserial.c ****                     TIMER_ONESHOT,TIME_MS,
 226:build/OpenMote-CC2538_armgcc/drivers/common/openserial.c ****                     openserial_board_reset_cb);
 227:build/OpenMote-CC2538_armgcc/drivers/common/openserial.c ****    
 228:build/OpenMote-CC2538_armgcc/drivers/common/openserial.c ****    return openserial_printInfoErrorCritical(
 1036              		.loc 1 228 0
 1037 03c8 F979     		ldrb	r1, [r7, #7]	@ zero_extendqisi2
 1038 03ca BA79     		ldrb	r2, [r7, #6]	@ zero_extendqisi2
 1039 03cc BC88     		ldrh	r4, [r7, #4]
 1040 03ce 7B88     		ldrh	r3, [r7, #2]
 1041 03d0 0093     		str	r3, [sp]
 1042 03d2 4320     		movs	r0, #67
 1043 03d4 2346     		mov	r3, r4
 1044 03d6 FFF7FEFF 		bl	openserial_printInfoErrorCritical
 1045 03da 0346     		mov	r3, r0
 229:build/OpenMote-CC2538_armgcc/drivers/common/openserial.c ****       SERFRAME_MOTE2PC_CRITICAL,
 230:build/OpenMote-CC2538_armgcc/drivers/common/openserial.c ****       calling_component,
 231:build/OpenMote-CC2538_armgcc/drivers/common/openserial.c ****       error_code,
 232:build/OpenMote-CC2538_armgcc/drivers/common/openserial.c ****       arg1,
 233:build/OpenMote-CC2538_armgcc/drivers/common/openserial.c ****       arg2
 234:build/OpenMote-CC2538_armgcc/drivers/common/openserial.c ****    );
 235:build/OpenMote-CC2538_armgcc/drivers/common/openserial.c **** }
 1046              		.loc 1 235 0
 1047 03dc 1846     		mov	r0, r3
 1048 03de 0C37     		adds	r7, r7, #12
 1049              		.cfi_def_cfa_offset 12
 1050 03e0 BD46     		mov	sp, r7
 1051              		.cfi_def_cfa_register 13
 1052              		@ sp needed
 1053 03e2 90BD     		pop	{r4, r7, pc}
 1054              	.L33:
 1055              		.align	2
 1056              	.L32:
 1057 03e4 00000000 		.word	openserial_board_reset_cb
 1058              		.cfi_endproc
 1059              	.LFE7:
 1061              		.align	2
 1062              		.global	openserial_board_reset_cb
 1063              		.thumb
 1064              		.thumb_func
 1066              	openserial_board_reset_cb:
 1067              	.LFB8:
 236:build/OpenMote-CC2538_armgcc/drivers/common/openserial.c **** 
 237:build/OpenMote-CC2538_armgcc/drivers/common/openserial.c **** void openserial_board_reset_cb(opentimer_id_t id) {
 1068              		.loc 1 237 0
 1069              		.cfi_startproc
 1070              		@ args = 0, pretend = 0, frame = 8
 1071              		@ frame_needed = 1, uses_anonymous_args = 0
 1072 03e8 80B5     		push	{r7, lr}
 1073              		.cfi_def_cfa_offset 8
 1074              		.cfi_offset 7, -8
 1075              		.cfi_offset 14, -4
 1076 03ea 82B0     		sub	sp, sp, #8
 1077              		.cfi_def_cfa_offset 16
 1078 03ec 00AF     		add	r7, sp, #0
 1079              		.cfi_def_cfa_register 7
 1080 03ee 0346     		mov	r3, r0
 1081 03f0 FB71     		strb	r3, [r7, #7]
 238:build/OpenMote-CC2538_armgcc/drivers/common/openserial.c ****    board_reset();
 1082              		.loc 1 238 0
 1083 03f2 FFF7FEFF 		bl	board_reset
 239:build/OpenMote-CC2538_armgcc/drivers/common/openserial.c **** }
 1084              		.loc 1 239 0
 1085 03f6 0837     		adds	r7, r7, #8
 1086              		.cfi_def_cfa_offset 8
 1087 03f8 BD46     		mov	sp, r7
 1088              		.cfi_def_cfa_register 13
 1089              		@ sp needed
 1090 03fa 80BD     		pop	{r7, pc}
 1091              		.cfi_endproc
 1092              	.LFE8:
 1094              		.align	2
 1095              		.global	openserial_getNumDataBytes
 1096              		.thumb
 1097              		.thumb_func
 1099              	openserial_getNumDataBytes:
 1100              	.LFB9:
 240:build/OpenMote-CC2538_armgcc/drivers/common/openserial.c **** 
 241:build/OpenMote-CC2538_armgcc/drivers/common/openserial.c **** uint8_t openserial_getNumDataBytes() {
 1101              		.loc 1 241 0
 1102              		.cfi_startproc
 1103              		@ args = 0, pretend = 0, frame = 8
 1104              		@ frame_needed = 1, uses_anonymous_args = 0
 1105 03fc 80B5     		push	{r7, lr}
 1106              		.cfi_def_cfa_offset 8
 1107              		.cfi_offset 7, -8
 1108              		.cfi_offset 14, -4
 1109 03fe 82B0     		sub	sp, sp, #8
 1110              		.cfi_def_cfa_offset 16
 1111 0400 00AF     		add	r7, sp, #0
 1112              		.cfi_def_cfa_register 7
 242:build/OpenMote-CC2538_armgcc/drivers/common/openserial.c ****    uint8_t inputBufFill;
 243:build/OpenMote-CC2538_armgcc/drivers/common/openserial.c ****    INTERRUPT_DECLARATION();
 244:build/OpenMote-CC2538_armgcc/drivers/common/openserial.c ****    
 245:build/OpenMote-CC2538_armgcc/drivers/common/openserial.c ****    DISABLE_INTERRUPTS();
 1113              		.loc 1 245 0
 1114 0402 FFF7FEFF 		bl	IntMasterDisable
 246:build/OpenMote-CC2538_armgcc/drivers/common/openserial.c ****    inputBufFill = openserial_vars.inputBufFill;
 1115              		.loc 1 246 0
 1116 0406 064B     		ldr	r3, .L37
 1117 0408 9B7B     		ldrb	r3, [r3, #14]
 1118 040a FB71     		strb	r3, [r7, #7]
 247:build/OpenMote-CC2538_armgcc/drivers/common/openserial.c ****    ENABLE_INTERRUPTS();
 1119              		.loc 1 247 0
 1120 040c FFF7FEFF 		bl	IntMasterEnable
 248:build/OpenMote-CC2538_armgcc/drivers/common/openserial.c **** 
 249:build/OpenMote-CC2538_armgcc/drivers/common/openserial.c ****    return inputBufFill-1; // removing the command byte
 1121              		.loc 1 249 0
 1122 0410 FB79     		ldrb	r3, [r7, #7]
 1123 0412 013B     		subs	r3, r3, #1
 1124 0414 DBB2     		uxtb	r3, r3
 250:build/OpenMote-CC2538_armgcc/drivers/common/openserial.c **** }
 1125              		.loc 1 250 0
 1126 0416 1846     		mov	r0, r3
 1127 0418 0837     		adds	r7, r7, #8
 1128              		.cfi_def_cfa_offset 8
 1129 041a BD46     		mov	sp, r7
 1130              		.cfi_def_cfa_register 13
 1131              		@ sp needed
 1132 041c 80BD     		pop	{r7, pc}
 1133              	.L38:
 1134 041e 00BF     		.align	2
 1135              	.L37:
 1136 0420 00000000 		.word	openserial_vars
 1137              		.cfi_endproc
 1138              	.LFE9:
 1140              		.align	2
 1141              		.global	openserial_getInputBuffer
 1142              		.thumb
 1143              		.thumb_func
 1145              	openserial_getInputBuffer:
 1146              	.LFB10:
 251:build/OpenMote-CC2538_armgcc/drivers/common/openserial.c **** 
 252:build/OpenMote-CC2538_armgcc/drivers/common/openserial.c **** uint8_t openserial_getInputBuffer(uint8_t* bufferToWrite, uint8_t maxNumBytes) {
 1147              		.loc 1 252 0
 1148              		.cfi_startproc
 1149              		@ args = 0, pretend = 0, frame = 16
 1150              		@ frame_needed = 1, uses_anonymous_args = 0
 1151 0424 80B5     		push	{r7, lr}
 1152              		.cfi_def_cfa_offset 8
 1153              		.cfi_offset 7, -8
 1154              		.cfi_offset 14, -4
 1155 0426 84B0     		sub	sp, sp, #16
 1156              		.cfi_def_cfa_offset 24
 1157 0428 00AF     		add	r7, sp, #0
 1158              		.cfi_def_cfa_register 7
 1159 042a 7860     		str	r0, [r7, #4]
 1160 042c 0B46     		mov	r3, r1
 1161 042e FB70     		strb	r3, [r7, #3]
 253:build/OpenMote-CC2538_armgcc/drivers/common/openserial.c ****    uint8_t numBytesWritten;
 254:build/OpenMote-CC2538_armgcc/drivers/common/openserial.c ****    uint8_t inputBufFill;
 255:build/OpenMote-CC2538_armgcc/drivers/common/openserial.c ****    INTERRUPT_DECLARATION();
 256:build/OpenMote-CC2538_armgcc/drivers/common/openserial.c ****    
 257:build/OpenMote-CC2538_armgcc/drivers/common/openserial.c ****    DISABLE_INTERRUPTS();
 1162              		.loc 1 257 0
 1163 0430 FFF7FEFF 		bl	IntMasterDisable
 258:build/OpenMote-CC2538_armgcc/drivers/common/openserial.c ****    inputBufFill = openserial_vars.inputBufFill;
 1164              		.loc 1 258 0
 1165 0434 124B     		ldr	r3, .L43
 1166 0436 9B7B     		ldrb	r3, [r3, #14]
 1167 0438 BB73     		strb	r3, [r7, #14]
 259:build/OpenMote-CC2538_armgcc/drivers/common/openserial.c ****    ENABLE_INTERRUPTS();
 1168              		.loc 1 259 0
 1169 043a FFF7FEFF 		bl	IntMasterEnable
 260:build/OpenMote-CC2538_armgcc/drivers/common/openserial.c ****    
 261:build/OpenMote-CC2538_armgcc/drivers/common/openserial.c ****    if (maxNumBytes<inputBufFill-1) {
 1170              		.loc 1 261 0
 1171 043e FA78     		ldrb	r2, [r7, #3]	@ zero_extendqisi2
 1172 0440 BB7B     		ldrb	r3, [r7, #14]	@ zero_extendqisi2
 1173 0442 013B     		subs	r3, r3, #1
 1174 0444 9A42     		cmp	r2, r3
 1175 0446 0CDA     		bge	.L40
 262:build/OpenMote-CC2538_armgcc/drivers/common/openserial.c ****       openserial_printError(COMPONENT_OPENSERIAL,ERR_GETDATA_ASKS_TOO_FEW_BYTES,
 1176              		.loc 1 262 0
 1177 0448 FB78     		ldrb	r3, [r7, #3]	@ zero_extendqisi2
 1178 044a 9AB2     		uxth	r2, r3
 1179 044c BB7B     		ldrb	r3, [r7, #14]	@ zero_extendqisi2
 1180 044e 9BB2     		uxth	r3, r3
 1181 0450 013B     		subs	r3, r3, #1
 1182 0452 9BB2     		uxth	r3, r3
 1183 0454 0420     		movs	r0, #4
 1184 0456 0321     		movs	r1, #3
 1185 0458 FFF7FEFF 		bl	openserial_printError
 263:build/OpenMote-CC2538_armgcc/drivers/common/openserial.c ****                             (errorparameter_t)maxNumBytes,
 264:build/OpenMote-CC2538_armgcc/drivers/common/openserial.c ****                             (errorparameter_t)inputBufFill-1);
 265:build/OpenMote-CC2538_armgcc/drivers/common/openserial.c ****       numBytesWritten = 0;
 1186              		.loc 1 265 0
 1187 045c 0023     		movs	r3, #0
 1188 045e FB73     		strb	r3, [r7, #15]
 1189 0460 08E0     		b	.L41
 1190              	.L40:
 266:build/OpenMote-CC2538_armgcc/drivers/common/openserial.c ****    } else {
 267:build/OpenMote-CC2538_armgcc/drivers/common/openserial.c ****       numBytesWritten = inputBufFill-1;
 1191              		.loc 1 267 0
 1192 0462 BB7B     		ldrb	r3, [r7, #14]
 1193 0464 013B     		subs	r3, r3, #1
 1194 0466 FB73     		strb	r3, [r7, #15]
 268:build/OpenMote-CC2538_armgcc/drivers/common/openserial.c ****       memcpy(bufferToWrite,&(openserial_vars.inputBuf[1]),numBytesWritten);
 1195              		.loc 1 268 0
 1196 0468 FB7B     		ldrb	r3, [r7, #15]	@ zero_extendqisi2
 1197 046a 7868     		ldr	r0, [r7, #4]
 1198 046c 0549     		ldr	r1, .L43+4
 1199 046e 1A46     		mov	r2, r3
 1200 0470 FFF7FEFF 		bl	memcpy
 1201              	.L41:
 269:build/OpenMote-CC2538_armgcc/drivers/common/openserial.c ****    }
 270:build/OpenMote-CC2538_armgcc/drivers/common/openserial.c ****    
 271:build/OpenMote-CC2538_armgcc/drivers/common/openserial.c ****    return numBytesWritten;
 1202              		.loc 1 271 0
 1203 0474 FB7B     		ldrb	r3, [r7, #15]	@ zero_extendqisi2
 272:build/OpenMote-CC2538_armgcc/drivers/common/openserial.c **** }
 1204              		.loc 1 272 0
 1205 0476 1846     		mov	r0, r3
 1206 0478 1037     		adds	r7, r7, #16
 1207              		.cfi_def_cfa_offset 8
 1208 047a BD46     		mov	sp, r7
 1209              		.cfi_def_cfa_register 13
 1210              		@ sp needed
 1211 047c 80BD     		pop	{r7, pc}
 1212              	.L44:
 1213 047e 00BF     		.align	2
 1214              	.L43:
 1215 0480 00000000 		.word	openserial_vars
 1216 0484 10000000 		.word	openserial_vars+16
 1217              		.cfi_endproc
 1218              	.LFE10:
 1220              		.align	2
 1221              		.global	openserial_startInput
 1222              		.thumb
 1223              		.thumb_func
 1225              	openserial_startInput:
 1226              	.LFB11:
 273:build/OpenMote-CC2538_armgcc/drivers/common/openserial.c **** 
 274:build/OpenMote-CC2538_armgcc/drivers/common/openserial.c **** void openserial_startInput() {
 1227              		.loc 1 274 0
 1228              		.cfi_startproc
 1229              		@ args = 0, pretend = 0, frame = 0
 1230              		@ frame_needed = 1, uses_anonymous_args = 0
 1231 0488 80B5     		push	{r7, lr}
 1232              		.cfi_def_cfa_offset 8
 1233              		.cfi_offset 7, -8
 1234              		.cfi_offset 14, -4
 1235 048a 00AF     		add	r7, sp, #0
 1236              		.cfi_def_cfa_register 7
 275:build/OpenMote-CC2538_armgcc/drivers/common/openserial.c ****    INTERRUPT_DECLARATION();
 276:build/OpenMote-CC2538_armgcc/drivers/common/openserial.c ****    
 277:build/OpenMote-CC2538_armgcc/drivers/common/openserial.c ****    if (openserial_vars.inputBufFill>0) {
 1237              		.loc 1 277 0
 1238 048c 184B     		ldr	r3, .L47
 1239 048e 9B7B     		ldrb	r3, [r3, #14]	@ zero_extendqisi2
 1240 0490 002B     		cmp	r3, #0
 1241 0492 0FD0     		beq	.L46
 278:build/OpenMote-CC2538_armgcc/drivers/common/openserial.c ****       openserial_printError(COMPONENT_OPENSERIAL,ERR_INPUTBUFFER_LENGTH,
 279:build/OpenMote-CC2538_armgcc/drivers/common/openserial.c ****                             (errorparameter_t)openserial_vars.inputBufFill,
 1242              		.loc 1 279 0
 1243 0494 164B     		ldr	r3, .L47
 1244 0496 9B7B     		ldrb	r3, [r3, #14]	@ zero_extendqisi2
 278:build/OpenMote-CC2538_armgcc/drivers/common/openserial.c ****       openserial_printError(COMPONENT_OPENSERIAL,ERR_INPUTBUFFER_LENGTH,
 1245              		.loc 1 278 0
 1246 0498 9BB2     		uxth	r3, r3
 1247 049a 0420     		movs	r0, #4
 1248 049c 3421     		movs	r1, #52
 1249 049e 1A46     		mov	r2, r3
 1250 04a0 0023     		movs	r3, #0
 1251 04a2 FFF7FEFF 		bl	openserial_printError
 280:build/OpenMote-CC2538_armgcc/drivers/common/openserial.c ****                             (errorparameter_t)0);
 281:build/OpenMote-CC2538_armgcc/drivers/common/openserial.c ****       DISABLE_INTERRUPTS();
 1252              		.loc 1 281 0
 1253 04a6 FFF7FEFF 		bl	IntMasterDisable
 282:build/OpenMote-CC2538_armgcc/drivers/common/openserial.c ****       openserial_vars.inputBufFill=0;
 1254              		.loc 1 282 0
 1255 04aa 114B     		ldr	r3, .L47
 1256 04ac 0022     		movs	r2, #0
 1257 04ae 9A73     		strb	r2, [r3, #14]
 283:build/OpenMote-CC2538_armgcc/drivers/common/openserial.c ****       ENABLE_INTERRUPTS();
 1258              		.loc 1 283 0
 1259 04b0 FFF7FEFF 		bl	IntMasterEnable
 1260              	.L46:
 284:build/OpenMote-CC2538_armgcc/drivers/common/openserial.c ****    }
 285:build/OpenMote-CC2538_armgcc/drivers/common/openserial.c ****    
 286:build/OpenMote-CC2538_armgcc/drivers/common/openserial.c ****    uart_clearTxInterrupts();
 1261              		.loc 1 286 0
 1262 04b4 FFF7FEFF 		bl	uart_clearTxInterrupts
 287:build/OpenMote-CC2538_armgcc/drivers/common/openserial.c ****    uart_clearRxInterrupts();      // clear possible pending interrupts
 1263              		.loc 1 287 0
 1264 04b8 FFF7FEFF 		bl	uart_clearRxInterrupts
 288:build/OpenMote-CC2538_armgcc/drivers/common/openserial.c ****    uart_enableInterrupts();       // Enable USCI_A1 TX & RX interrupt
 1265              		.loc 1 288 0
 1266 04bc FFF7FEFF 		bl	uart_enableInterrupts
 289:build/OpenMote-CC2538_armgcc/drivers/common/openserial.c ****    
 290:build/OpenMote-CC2538_armgcc/drivers/common/openserial.c ****    DISABLE_INTERRUPTS();
 1267              		.loc 1 290 0
 1268 04c0 FFF7FEFF 		bl	IntMasterDisable
 291:build/OpenMote-CC2538_armgcc/drivers/common/openserial.c ****    openserial_vars.busyReceiving  = FALSE;
 1269              		.loc 1 291 0
 1270 04c4 0A4B     		ldr	r3, .L47
 1271 04c6 0022     		movs	r2, #0
 1272 04c8 5A72     		strb	r2, [r3, #9]
 292:build/OpenMote-CC2538_armgcc/drivers/common/openserial.c ****    openserial_vars.mode           = MODE_INPUT;
 1273              		.loc 1 292 0
 1274 04ca 094B     		ldr	r3, .L47
 1275 04cc 0122     		movs	r2, #1
 1276 04ce 1A70     		strb	r2, [r3]
 293:build/OpenMote-CC2538_armgcc/drivers/common/openserial.c ****    openserial_vars.reqFrameIdx    = 0;
 1277              		.loc 1 293 0
 1278 04d0 074B     		ldr	r3, .L47
 1279 04d2 0022     		movs	r2, #0
 1280 04d4 DA71     		strb	r2, [r3, #7]
 294:build/OpenMote-CC2538_armgcc/drivers/common/openserial.c **** #ifdef FASTSIM
 295:build/OpenMote-CC2538_armgcc/drivers/common/openserial.c ****    uart_writeBufferByLen_FASTSIM(
 296:build/OpenMote-CC2538_armgcc/drivers/common/openserial.c ****       openserial_vars.reqFrame,
 297:build/OpenMote-CC2538_armgcc/drivers/common/openserial.c ****       sizeof(openserial_vars.reqFrame)
 298:build/OpenMote-CC2538_armgcc/drivers/common/openserial.c ****    );
 299:build/OpenMote-CC2538_armgcc/drivers/common/openserial.c ****    openserial_vars.reqFrameIdx = sizeof(openserial_vars.reqFrame);
 300:build/OpenMote-CC2538_armgcc/drivers/common/openserial.c **** #else
 301:build/OpenMote-CC2538_armgcc/drivers/common/openserial.c ****    uart_writeByte(openserial_vars.reqFrame[openserial_vars.reqFrameIdx]);
 1281              		.loc 1 301 0
 1282 04d6 064B     		ldr	r3, .L47
 1283 04d8 DB79     		ldrb	r3, [r3, #7]	@ zero_extendqisi2
 1284 04da 1A46     		mov	r2, r3
 1285 04dc 044B     		ldr	r3, .L47
 1286 04de 1344     		add	r3, r3, r2
 1287 04e0 9B78     		ldrb	r3, [r3, #2]	@ zero_extendqisi2
 1288 04e2 1846     		mov	r0, r3
 1289 04e4 FFF7FEFF 		bl	uart_writeByte
 302:build/OpenMote-CC2538_armgcc/drivers/common/openserial.c **** #endif
 303:build/OpenMote-CC2538_armgcc/drivers/common/openserial.c ****    ENABLE_INTERRUPTS();
 1290              		.loc 1 303 0
 1291 04e8 FFF7FEFF 		bl	IntMasterEnable
 304:build/OpenMote-CC2538_armgcc/drivers/common/openserial.c **** }
 1292              		.loc 1 304 0
 1293 04ec 80BD     		pop	{r7, pc}
 1294              	.L48:
 1295 04ee 00BF     		.align	2
 1296              	.L47:
 1297 04f0 00000000 		.word	openserial_vars
 1298              		.cfi_endproc
 1299              	.LFE11:
 1301              		.align	2
 1302              		.global	openserial_startOutput
 1303              		.thumb
 1304              		.thumb_func
 1306              	openserial_startOutput:
 1307              	.LFB12:
 305:build/OpenMote-CC2538_armgcc/drivers/common/openserial.c **** 
 306:build/OpenMote-CC2538_armgcc/drivers/common/openserial.c **** void openserial_startOutput() {
 1308              		.loc 1 306 0
 1309              		.cfi_startproc
 1310              		@ args = 0, pretend = 0, frame = 8
 1311              		@ frame_needed = 1, uses_anonymous_args = 0
 1312 04f4 80B5     		push	{r7, lr}
 1313              		.cfi_def_cfa_offset 8
 1314              		.cfi_offset 7, -8
 1315              		.cfi_offset 14, -4
 1316 04f6 82B0     		sub	sp, sp, #8
 1317              		.cfi_def_cfa_offset 16
 1318 04f8 00AF     		add	r7, sp, #0
 1319              		.cfi_def_cfa_register 7
 307:build/OpenMote-CC2538_armgcc/drivers/common/openserial.c ****    //schedule a task to get new status in the output buffer
 308:build/OpenMote-CC2538_armgcc/drivers/common/openserial.c ****    uint8_t debugPrintCounter;
 309:build/OpenMote-CC2538_armgcc/drivers/common/openserial.c ****    
 310:build/OpenMote-CC2538_armgcc/drivers/common/openserial.c ****    INTERRUPT_DECLARATION();
 311:build/OpenMote-CC2538_armgcc/drivers/common/openserial.c ****    DISABLE_INTERRUPTS();
 1320              		.loc 1 311 0
 1321 04fa FFF7FEFF 		bl	IntMasterDisable
 312:build/OpenMote-CC2538_armgcc/drivers/common/openserial.c ****    openserial_vars.debugPrintCounter = (openserial_vars.debugPrintCounter+1)%STATUS_MAX;
 1322              		.loc 1 312 0
 1323 04fe 524B     		ldr	r3, .L66
 1324 0500 5B78     		ldrb	r3, [r3, #1]	@ zero_extendqisi2
 1325 0502 591C     		adds	r1, r3, #1
 1326 0504 514B     		ldr	r3, .L66+4
 1327 0506 83FB0123 		smull	r2, r3, r3, r1
 1328 050a 5A10     		asrs	r2, r3, #1
 1329 050c CB17     		asrs	r3, r1, #31
 1330 050e D21A     		subs	r2, r2, r3
 1331 0510 1346     		mov	r3, r2
 1332 0512 9B00     		lsls	r3, r3, #2
 1333 0514 1344     		add	r3, r3, r2
 1334 0516 5B00     		lsls	r3, r3, #1
 1335 0518 1344     		add	r3, r3, r2
 1336 051a CA1A     		subs	r2, r1, r3
 1337 051c D2B2     		uxtb	r2, r2
 1338 051e 4A4B     		ldr	r3, .L66
 1339 0520 5A70     		strb	r2, [r3, #1]
 313:build/OpenMote-CC2538_armgcc/drivers/common/openserial.c ****    debugPrintCounter = openserial_vars.debugPrintCounter;
 1340              		.loc 1 313 0
 1341 0522 494B     		ldr	r3, .L66
 1342 0524 5B78     		ldrb	r3, [r3, #1]
 1343 0526 FB71     		strb	r3, [r7, #7]
 314:build/OpenMote-CC2538_armgcc/drivers/common/openserial.c ****    ENABLE_INTERRUPTS();
 1344              		.loc 1 314 0
 1345 0528 FFF7FEFF 		bl	IntMasterEnable
 315:build/OpenMote-CC2538_armgcc/drivers/common/openserial.c ****    
 316:build/OpenMote-CC2538_armgcc/drivers/common/openserial.c ****    // print debug information
 317:build/OpenMote-CC2538_armgcc/drivers/common/openserial.c ****    switch (debugPrintCounter) {
 1346              		.loc 1 317 0
 1347 052c FB79     		ldrb	r3, [r7, #7]	@ zero_extendqisi2
 1348 052e 0A2B     		cmp	r3, #10
 1349 0530 5AD8     		bhi	.L50
 1350 0532 01A2     		adr	r2, .L52
 1351 0534 52F823F0 		ldr	pc, [r2, r3, lsl #2]
 1352              		.p2align 2
 1353              	.L52:
 1354 0538 65050000 		.word	.L51+1
 1355 053c 71050000 		.word	.L53+1
 1356 0540 7D050000 		.word	.L54+1
 1357 0544 89050000 		.word	.L55+1
 1358 0548 95050000 		.word	.L56+1
 1359 054c A1050000 		.word	.L57+1
 1360 0550 AD050000 		.word	.L58+1
 1361 0554 B9050000 		.word	.L59+1
 1362 0558 C5050000 		.word	.L60+1
 1363 055c D1050000 		.word	.L61+1
 1364 0560 DD050000 		.word	.L62+1
 1365              		.p2align 1
 1366              	.L51:
 318:build/OpenMote-CC2538_armgcc/drivers/common/openserial.c ****       case STATUS_ISSYNC:
 319:build/OpenMote-CC2538_armgcc/drivers/common/openserial.c ****          if (debugPrint_isSync()==TRUE) {
 1367              		.loc 1 319 0
 1368 0564 FFF7FEFF 		bl	debugPrint_isSync
 1369 0568 0346     		mov	r3, r0
 1370 056a 002B     		cmp	r3, #0
 1371 056c 00D0     		beq	.L53
 320:build/OpenMote-CC2538_armgcc/drivers/common/openserial.c ****             break;
 1372              		.loc 1 320 0
 1373 056e 42E0     		b	.L63
 1374              	.L53:
 321:build/OpenMote-CC2538_armgcc/drivers/common/openserial.c ****          }
 322:build/OpenMote-CC2538_armgcc/drivers/common/openserial.c ****       case STATUS_ID:
 323:build/OpenMote-CC2538_armgcc/drivers/common/openserial.c ****          if (debugPrint_id()==TRUE) {
 1375              		.loc 1 323 0
 1376 0570 FFF7FEFF 		bl	debugPrint_id
 1377 0574 0346     		mov	r3, r0
 1378 0576 002B     		cmp	r3, #0
 1379 0578 00D0     		beq	.L54
 324:build/OpenMote-CC2538_armgcc/drivers/common/openserial.c ****             break;
 1380              		.loc 1 324 0
 1381 057a 3CE0     		b	.L63
 1382              	.L54:
 325:build/OpenMote-CC2538_armgcc/drivers/common/openserial.c ****          }
 326:build/OpenMote-CC2538_armgcc/drivers/common/openserial.c ****       case STATUS_DAGRANK:
 327:build/OpenMote-CC2538_armgcc/drivers/common/openserial.c ****          if (debugPrint_myDAGrank()==TRUE) {
 1383              		.loc 1 327 0
 1384 057c FFF7FEFF 		bl	debugPrint_myDAGrank
 1385 0580 0346     		mov	r3, r0
 1386 0582 002B     		cmp	r3, #0
 1387 0584 00D0     		beq	.L55
 328:build/OpenMote-CC2538_armgcc/drivers/common/openserial.c ****             break;
 1388              		.loc 1 328 0
 1389 0586 36E0     		b	.L63
 1390              	.L55:
 329:build/OpenMote-CC2538_armgcc/drivers/common/openserial.c ****          }
 330:build/OpenMote-CC2538_armgcc/drivers/common/openserial.c ****       case STATUS_OUTBUFFERINDEXES:
 331:build/OpenMote-CC2538_armgcc/drivers/common/openserial.c ****          if (debugPrint_outBufferIndexes()==TRUE) {
 1391              		.loc 1 331 0
 1392 0588 FFF7FEFF 		bl	debugPrint_outBufferIndexes
 1393 058c 0346     		mov	r3, r0
 1394 058e 002B     		cmp	r3, #0
 1395 0590 00D0     		beq	.L56
 332:build/OpenMote-CC2538_armgcc/drivers/common/openserial.c ****             break;
 1396              		.loc 1 332 0
 1397 0592 30E0     		b	.L63
 1398              	.L56:
 333:build/OpenMote-CC2538_armgcc/drivers/common/openserial.c ****          }
 334:build/OpenMote-CC2538_armgcc/drivers/common/openserial.c ****       case STATUS_ASN:
 335:build/OpenMote-CC2538_armgcc/drivers/common/openserial.c ****          if (debugPrint_asn()==TRUE) {
 1399              		.loc 1 335 0
 1400 0594 FFF7FEFF 		bl	debugPrint_asn
 1401 0598 0346     		mov	r3, r0
 1402 059a 002B     		cmp	r3, #0
 1403 059c 00D0     		beq	.L57
 336:build/OpenMote-CC2538_armgcc/drivers/common/openserial.c ****             break;
 1404              		.loc 1 336 0
 1405 059e 2AE0     		b	.L63
 1406              	.L57:
 337:build/OpenMote-CC2538_armgcc/drivers/common/openserial.c ****          }
 338:build/OpenMote-CC2538_armgcc/drivers/common/openserial.c ****       case STATUS_MACSTATS:
 339:build/OpenMote-CC2538_armgcc/drivers/common/openserial.c ****          if (debugPrint_macStats()==TRUE) {
 1407              		.loc 1 339 0
 1408 05a0 FFF7FEFF 		bl	debugPrint_macStats
 1409 05a4 0346     		mov	r3, r0
 1410 05a6 002B     		cmp	r3, #0
 1411 05a8 00D0     		beq	.L58
 340:build/OpenMote-CC2538_armgcc/drivers/common/openserial.c ****             break;
 1412              		.loc 1 340 0
 1413 05aa 24E0     		b	.L63
 1414              	.L58:
 341:build/OpenMote-CC2538_armgcc/drivers/common/openserial.c ****          }
 342:build/OpenMote-CC2538_armgcc/drivers/common/openserial.c ****       case STATUS_SCHEDULE:
 343:build/OpenMote-CC2538_armgcc/drivers/common/openserial.c ****          if(debugPrint_schedule()==TRUE) {
 1415              		.loc 1 343 0
 1416 05ac FFF7FEFF 		bl	debugPrint_schedule
 1417 05b0 0346     		mov	r3, r0
 1418 05b2 002B     		cmp	r3, #0
 1419 05b4 00D0     		beq	.L59
 344:build/OpenMote-CC2538_armgcc/drivers/common/openserial.c ****             break;
 1420              		.loc 1 344 0
 1421 05b6 1EE0     		b	.L63
 1422              	.L59:
 345:build/OpenMote-CC2538_armgcc/drivers/common/openserial.c ****          }
 346:build/OpenMote-CC2538_armgcc/drivers/common/openserial.c ****       case STATUS_BACKOFF:
 347:build/OpenMote-CC2538_armgcc/drivers/common/openserial.c ****          if(debugPrint_backoff()==TRUE) {
 1423              		.loc 1 347 0
 1424 05b8 FFF7FEFF 		bl	debugPrint_backoff
 1425 05bc 0346     		mov	r3, r0
 1426 05be 002B     		cmp	r3, #0
 1427 05c0 00D0     		beq	.L60
 348:build/OpenMote-CC2538_armgcc/drivers/common/openserial.c ****             break;
 1428              		.loc 1 348 0
 1429 05c2 18E0     		b	.L63
 1430              	.L60:
 349:build/OpenMote-CC2538_armgcc/drivers/common/openserial.c ****          }
 350:build/OpenMote-CC2538_armgcc/drivers/common/openserial.c ****       case STATUS_QUEUE:
 351:build/OpenMote-CC2538_armgcc/drivers/common/openserial.c ****          if(debugPrint_queue()==TRUE) {
 1431              		.loc 1 351 0
 1432 05c4 FFF7FEFF 		bl	debugPrint_queue
 1433 05c8 0346     		mov	r3, r0
 1434 05ca 002B     		cmp	r3, #0
 1435 05cc 00D0     		beq	.L61
 352:build/OpenMote-CC2538_armgcc/drivers/common/openserial.c ****             break;
 1436              		.loc 1 352 0
 1437 05ce 12E0     		b	.L63
 1438              	.L61:
 353:build/OpenMote-CC2538_armgcc/drivers/common/openserial.c ****          }
 354:build/OpenMote-CC2538_armgcc/drivers/common/openserial.c ****       case STATUS_NEIGHBORS:
 355:build/OpenMote-CC2538_armgcc/drivers/common/openserial.c ****          if (debugPrint_neighbors()==TRUE) {
 1439              		.loc 1 355 0
 1440 05d0 FFF7FEFF 		bl	debugPrint_neighbors
 1441 05d4 0346     		mov	r3, r0
 1442 05d6 002B     		cmp	r3, #0
 1443 05d8 00D0     		beq	.L62
 356:build/OpenMote-CC2538_armgcc/drivers/common/openserial.c ****             break;
 1444              		.loc 1 356 0
 1445 05da 0CE0     		b	.L63
 1446              	.L62:
 357:build/OpenMote-CC2538_armgcc/drivers/common/openserial.c ****          }
 358:build/OpenMote-CC2538_armgcc/drivers/common/openserial.c ****       case STATUS_KAPERIOD:
 359:build/OpenMote-CC2538_armgcc/drivers/common/openserial.c ****          if (debugPrint_kaPeriod()==TRUE) {
 1447              		.loc 1 359 0
 1448 05dc FFF7FEFF 		bl	debugPrint_kaPeriod
 1449 05e0 0346     		mov	r3, r0
 1450 05e2 002B     		cmp	r3, #0
 1451 05e4 00D0     		beq	.L50
 360:build/OpenMote-CC2538_armgcc/drivers/common/openserial.c ****             break;
 1452              		.loc 1 360 0
 1453 05e6 06E0     		b	.L63
 1454              	.L50:
 361:build/OpenMote-CC2538_armgcc/drivers/common/openserial.c ****          }
 362:build/OpenMote-CC2538_armgcc/drivers/common/openserial.c ****       default:
 363:build/OpenMote-CC2538_armgcc/drivers/common/openserial.c ****          DISABLE_INTERRUPTS();
 1455              		.loc 1 363 0
 1456 05e8 FFF7FEFF 		bl	IntMasterDisable
 364:build/OpenMote-CC2538_armgcc/drivers/common/openserial.c ****          openserial_vars.debugPrintCounter=0;
 1457              		.loc 1 364 0
 1458 05ec 164B     		ldr	r3, .L66
 1459 05ee 0022     		movs	r2, #0
 1460 05f0 5A70     		strb	r2, [r3, #1]
 365:build/OpenMote-CC2538_armgcc/drivers/common/openserial.c ****          ENABLE_INTERRUPTS();
 1461              		.loc 1 365 0
 1462 05f2 FFF7FEFF 		bl	IntMasterEnable
 1463              	.L63:
 366:build/OpenMote-CC2538_armgcc/drivers/common/openserial.c ****    }
 367:build/OpenMote-CC2538_armgcc/drivers/common/openserial.c ****    
 368:build/OpenMote-CC2538_armgcc/drivers/common/openserial.c ****    // flush buffer
 369:build/OpenMote-CC2538_armgcc/drivers/common/openserial.c ****    uart_clearTxInterrupts();
 1464              		.loc 1 369 0
 1465 05f6 FFF7FEFF 		bl	uart_clearTxInterrupts
 370:build/OpenMote-CC2538_armgcc/drivers/common/openserial.c ****    uart_clearRxInterrupts();          // clear possible pending interrupts
 1466              		.loc 1 370 0
 1467 05fa FFF7FEFF 		bl	uart_clearRxInterrupts
 371:build/OpenMote-CC2538_armgcc/drivers/common/openserial.c ****    uart_enableInterrupts();           // Enable USCI_A1 TX & RX interrupt
 1468              		.loc 1 371 0
 1469 05fe FFF7FEFF 		bl	uart_enableInterrupts
 372:build/OpenMote-CC2538_armgcc/drivers/common/openserial.c ****    DISABLE_INTERRUPTS();
 1470              		.loc 1 372 0
 1471 0602 FFF7FEFF 		bl	IntMasterDisable
 373:build/OpenMote-CC2538_armgcc/drivers/common/openserial.c ****    openserial_vars.mode=MODE_OUTPUT;
 1472              		.loc 1 373 0
 1473 0606 104B     		ldr	r3, .L66
 1474 0608 0222     		movs	r2, #2
 1475 060a 1A70     		strb	r2, [r3]
 374:build/OpenMote-CC2538_armgcc/drivers/common/openserial.c ****    if (openserial_vars.outputBufFilled) {
 1476              		.loc 1 374 0
 1477 060c 0E4B     		ldr	r3, .L66
 1478 060e 93F8D730 		ldrb	r3, [r3, #215]	@ zero_extendqisi2
 1479 0612 002B     		cmp	r3, #0
 1480 0614 10D0     		beq	.L64
 375:build/OpenMote-CC2538_armgcc/drivers/common/openserial.c **** #ifdef FASTSIM
 376:build/OpenMote-CC2538_armgcc/drivers/common/openserial.c ****       uart_writeCircularBuffer_FASTSIM(
 377:build/OpenMote-CC2538_armgcc/drivers/common/openserial.c ****          openserial_vars.outputBuf,
 378:build/OpenMote-CC2538_armgcc/drivers/common/openserial.c ****          &openserial_vars.outputBufIdxR,
 379:build/OpenMote-CC2538_armgcc/drivers/common/openserial.c ****          &openserial_vars.outputBufIdxW
 380:build/OpenMote-CC2538_armgcc/drivers/common/openserial.c ****       );
 381:build/OpenMote-CC2538_armgcc/drivers/common/openserial.c **** #else
 382:build/OpenMote-CC2538_armgcc/drivers/common/openserial.c ****       uart_writeByte(openserial_vars.outputBuf[openserial_vars.outputBufIdxR++]);
 1481              		.loc 1 382 0
 1482 0616 0C4B     		ldr	r3, .L66
 1483 0618 93F8DB30 		ldrb	r3, [r3, #219]	@ zero_extendqisi2
 1484 061c 5A1C     		adds	r2, r3, #1
 1485 061e D1B2     		uxtb	r1, r2
 1486 0620 094A     		ldr	r2, .L66
 1487 0622 82F8DB10 		strb	r1, [r2, #219]
 1488 0626 1A46     		mov	r2, r3
 1489 0628 074B     		ldr	r3, .L66
 1490 062a 1344     		add	r3, r3, r2
 1491 062c 93F8DC30 		ldrb	r3, [r3, #220]	@ zero_extendqisi2
 1492 0630 1846     		mov	r0, r3
 1493 0632 FFF7FEFF 		bl	uart_writeByte
 1494 0636 01E0     		b	.L65
 1495              	.L64:
 383:build/OpenMote-CC2538_armgcc/drivers/common/openserial.c **** #endif
 384:build/OpenMote-CC2538_armgcc/drivers/common/openserial.c ****    } else {
 385:build/OpenMote-CC2538_armgcc/drivers/common/openserial.c ****       openserial_stop();
 1496              		.loc 1 385 0
 1497 0638 FFF7FEFF 		bl	openserial_stop
 1498              	.L65:
 386:build/OpenMote-CC2538_armgcc/drivers/common/openserial.c ****    }
 387:build/OpenMote-CC2538_armgcc/drivers/common/openserial.c ****    ENABLE_INTERRUPTS();
 1499              		.loc 1 387 0
 1500 063c FFF7FEFF 		bl	IntMasterEnable
 388:build/OpenMote-CC2538_armgcc/drivers/common/openserial.c **** }
 1501              		.loc 1 388 0
 1502 0640 0837     		adds	r7, r7, #8
 1503              		.cfi_def_cfa_offset 8
 1504 0642 BD46     		mov	sp, r7
 1505              		.cfi_def_cfa_register 13
 1506              		@ sp needed
 1507 0644 80BD     		pop	{r7, pc}
 1508              	.L67:
 1509 0646 00BF     		.align	2
 1510              	.L66:
 1511 0648 00000000 		.word	openserial_vars
 1512 064c E9A28B2E 		.word	780903145
 1513              		.cfi_endproc
 1514              	.LFE12:
 1516              		.align	2
 1517              		.global	openserial_stop
 1518              		.thumb
 1519              		.thumb_func
 1521              	openserial_stop:
 1522              	.LFB13:
 389:build/OpenMote-CC2538_armgcc/drivers/common/openserial.c **** 
 390:build/OpenMote-CC2538_armgcc/drivers/common/openserial.c **** void openserial_stop() {
 1523              		.loc 1 390 0
 1524              		.cfi_startproc
 1525              		@ args = 0, pretend = 0, frame = 8
 1526              		@ frame_needed = 1, uses_anonymous_args = 0
 1527 0650 80B5     		push	{r7, lr}
 1528              		.cfi_def_cfa_offset 8
 1529              		.cfi_offset 7, -8
 1530              		.cfi_offset 14, -4
 1531 0652 82B0     		sub	sp, sp, #8
 1532              		.cfi_def_cfa_offset 16
 1533 0654 00AF     		add	r7, sp, #0
 1534              		.cfi_def_cfa_register 7
 391:build/OpenMote-CC2538_armgcc/drivers/common/openserial.c ****    uint8_t inputBufFill;
 392:build/OpenMote-CC2538_armgcc/drivers/common/openserial.c ****    uint8_t cmdByte;
 393:build/OpenMote-CC2538_armgcc/drivers/common/openserial.c ****    bool busyReceiving;
 394:build/OpenMote-CC2538_armgcc/drivers/common/openserial.c ****    INTERRUPT_DECLARATION();
 395:build/OpenMote-CC2538_armgcc/drivers/common/openserial.c ****    
 396:build/OpenMote-CC2538_armgcc/drivers/common/openserial.c ****    DISABLE_INTERRUPTS();
 1535              		.loc 1 396 0
 1536 0656 FFF7FEFF 		bl	IntMasterDisable
 397:build/OpenMote-CC2538_armgcc/drivers/common/openserial.c ****    busyReceiving = openserial_vars.busyReceiving;
 1537              		.loc 1 397 0
 1538 065a 404B     		ldr	r3, .L77
 1539 065c 5B7A     		ldrb	r3, [r3, #9]
 1540 065e FB71     		strb	r3, [r7, #7]
 398:build/OpenMote-CC2538_armgcc/drivers/common/openserial.c ****    inputBufFill = openserial_vars.inputBufFill;
 1541              		.loc 1 398 0
 1542 0660 3E4B     		ldr	r3, .L77
 1543 0662 9B7B     		ldrb	r3, [r3, #14]
 1544 0664 BB71     		strb	r3, [r7, #6]
 399:build/OpenMote-CC2538_armgcc/drivers/common/openserial.c ****    ENABLE_INTERRUPTS();
 1545              		.loc 1 399 0
 1546 0666 FFF7FEFF 		bl	IntMasterEnable
 400:build/OpenMote-CC2538_armgcc/drivers/common/openserial.c ****    
 401:build/OpenMote-CC2538_armgcc/drivers/common/openserial.c ****    // disable USCI_A1 TX & RX interrupt
 402:build/OpenMote-CC2538_armgcc/drivers/common/openserial.c ****    uart_disableInterrupts();
 1547              		.loc 1 402 0
 1548 066a FFF7FEFF 		bl	uart_disableInterrupts
 403:build/OpenMote-CC2538_armgcc/drivers/common/openserial.c ****    
 404:build/OpenMote-CC2538_armgcc/drivers/common/openserial.c ****    DISABLE_INTERRUPTS();
 1549              		.loc 1 404 0
 1550 066e FFF7FEFF 		bl	IntMasterDisable
 405:build/OpenMote-CC2538_armgcc/drivers/common/openserial.c ****    openserial_vars.mode=MODE_OFF;
 1551              		.loc 1 405 0
 1552 0672 3A4B     		ldr	r3, .L77
 1553 0674 0022     		movs	r2, #0
 1554 0676 1A70     		strb	r2, [r3]
 406:build/OpenMote-CC2538_armgcc/drivers/common/openserial.c ****    ENABLE_INTERRUPTS();
 1555              		.loc 1 406 0
 1556 0678 FFF7FEFF 		bl	IntMasterEnable
 407:build/OpenMote-CC2538_armgcc/drivers/common/openserial.c ****    //the inputBuffer has to be reset if it is not reset where the data is read.
 408:build/OpenMote-CC2538_armgcc/drivers/common/openserial.c ****    //or the function openserial_getInputBuffer is called (which resets the buffer)
 409:build/OpenMote-CC2538_armgcc/drivers/common/openserial.c ****    if (busyReceiving==TRUE){
 1557              		.loc 1 409 0
 1558 067c FB79     		ldrb	r3, [r7, #7]	@ zero_extendqisi2
 1559 067e 002B     		cmp	r3, #0
 1560 0680 06D0     		beq	.L69
 410:build/OpenMote-CC2538_armgcc/drivers/common/openserial.c ****       openserial_printError(COMPONENT_OPENSERIAL,ERR_BUSY_RECEIVING,
 1561              		.loc 1 410 0
 1562 0682 BB79     		ldrb	r3, [r7, #6]	@ zero_extendqisi2
 1563 0684 9BB2     		uxth	r3, r3
 1564 0686 0420     		movs	r0, #4
 1565 0688 3821     		movs	r1, #56
 1566 068a 0022     		movs	r2, #0
 1567 068c FFF7FEFF 		bl	openserial_printError
 1568              	.L69:
 411:build/OpenMote-CC2538_armgcc/drivers/common/openserial.c ****                                   (errorparameter_t)0,
 412:build/OpenMote-CC2538_armgcc/drivers/common/openserial.c ****                                   (errorparameter_t)inputBufFill);
 413:build/OpenMote-CC2538_armgcc/drivers/common/openserial.c ****    }
 414:build/OpenMote-CC2538_armgcc/drivers/common/openserial.c ****    
 415:build/OpenMote-CC2538_armgcc/drivers/common/openserial.c ****    if (busyReceiving == FALSE && inputBufFill>0) {
 1569              		.loc 1 415 0
 1570 0690 FB79     		ldrb	r3, [r7, #7]
 1571 0692 83F00103 		eor	r3, r3, #1
 1572 0696 DBB2     		uxtb	r3, r3
 1573 0698 002B     		cmp	r3, #0
 1574 069a 52D0     		beq	.L70
 1575              		.loc 1 415 0 is_stmt 0 discriminator 1
 1576 069c BB79     		ldrb	r3, [r7, #6]	@ zero_extendqisi2
 1577 069e 002B     		cmp	r3, #0
 1578 06a0 4FD0     		beq	.L70
 416:build/OpenMote-CC2538_armgcc/drivers/common/openserial.c ****       DISABLE_INTERRUPTS();
 1579              		.loc 1 416 0 is_stmt 1
 1580 06a2 FFF7FEFF 		bl	IntMasterDisable
 417:build/OpenMote-CC2538_armgcc/drivers/common/openserial.c ****       cmdByte = openserial_vars.inputBuf[0];
 1581              		.loc 1 417 0
 1582 06a6 2D4B     		ldr	r3, .L77
 1583 06a8 DB7B     		ldrb	r3, [r3, #15]
 1584 06aa 7B71     		strb	r3, [r7, #5]
 418:build/OpenMote-CC2538_armgcc/drivers/common/openserial.c ****       ENABLE_INTERRUPTS();
 1585              		.loc 1 418 0
 1586 06ac FFF7FEFF 		bl	IntMasterEnable
 419:build/OpenMote-CC2538_armgcc/drivers/common/openserial.c ****       switch (cmdByte) {
 1587              		.loc 1 419 0
 1588 06b0 7B79     		ldrb	r3, [r7, #5]	@ zero_extendqisi2
 1589 06b2 443B     		subs	r3, r3, #68
 1590 06b4 0F2B     		cmp	r3, #15
 1591 06b6 34D8     		bhi	.L71
 1592 06b8 01A2     		adr	r2, .L73
 1593 06ba 52F823F0 		ldr	pc, [r2, r3, lsl #2]
 1594 06be 00BF     		.p2align 2
 1595              	.L73:
 1596 06c0 07070000 		.word	.L72+1
 1597 06c4 23070000 		.word	.L71+1
 1598 06c8 23070000 		.word	.L71+1
 1599 06cc 1D070000 		.word	.L74+1
 1600 06d0 23070000 		.word	.L71+1
 1601 06d4 23070000 		.word	.L71+1
 1602 06d8 23070000 		.word	.L71+1
 1603 06dc 23070000 		.word	.L71+1
 1604 06e0 23070000 		.word	.L71+1
 1605 06e4 23070000 		.word	.L71+1
 1606 06e8 23070000 		.word	.L71+1
 1607 06ec 23070000 		.word	.L71+1
 1608 06f0 23070000 		.word	.L71+1
 1609 06f4 23070000 		.word	.L71+1
 1610 06f8 01070000 		.word	.L75+1
 1611 06fc 0D070000 		.word	.L76+1
 1612              		.p2align 1
 1613              	.L75:
 420:build/OpenMote-CC2538_armgcc/drivers/common/openserial.c ****          case SERFRAME_PC2MOTE_SETROOT:
 421:build/OpenMote-CC2538_armgcc/drivers/common/openserial.c ****             idmanager_triggerAboutRoot();
 1614              		.loc 1 421 0
 1615 0700 FFF7FEFF 		bl	idmanager_triggerAboutRoot
 422:build/OpenMote-CC2538_armgcc/drivers/common/openserial.c ****             break;
 1616              		.loc 1 422 0
 1617 0704 1DE0     		b	.L70
 1618              	.L72:
 423:build/OpenMote-CC2538_armgcc/drivers/common/openserial.c ****          case SERFRAME_PC2MOTE_DATA:
 424:build/OpenMote-CC2538_armgcc/drivers/common/openserial.c ****             openbridge_triggerData();
 1619              		.loc 1 424 0
 1620 0706 FFF7FEFF 		bl	openbridge_triggerData
 425:build/OpenMote-CC2538_armgcc/drivers/common/openserial.c ****             break;
 1621              		.loc 1 425 0
 1622 070a 1AE0     		b	.L70
 1623              	.L76:
 426:build/OpenMote-CC2538_armgcc/drivers/common/openserial.c ****          case SERFRAME_PC2MOTE_TRIGGERSERIALECHO:
 427:build/OpenMote-CC2538_armgcc/drivers/common/openserial.c ****             //echo function must reset input buffer after reading the data.
 428:build/OpenMote-CC2538_armgcc/drivers/common/openserial.c ****             openserial_echo(&openserial_vars.inputBuf[1],inputBufFill-1);
 1624              		.loc 1 428 0
 1625 070c BB79     		ldrb	r3, [r7, #6]
 1626 070e 013B     		subs	r3, r3, #1
 1627 0710 DBB2     		uxtb	r3, r3
 1628 0712 1348     		ldr	r0, .L77+4
 1629 0714 1946     		mov	r1, r3
 1630 0716 FFF7FEFF 		bl	openserial_echo
 429:build/OpenMote-CC2538_armgcc/drivers/common/openserial.c ****             break;   
 1631              		.loc 1 429 0
 1632 071a 12E0     		b	.L70
 1633              	.L74:
 430:build/OpenMote-CC2538_armgcc/drivers/common/openserial.c ****          case SERFRAME_PC2MOTE_COMMAND_GD: 
 431:build/OpenMote-CC2538_armgcc/drivers/common/openserial.c ****              // golden image command
 432:build/OpenMote-CC2538_armgcc/drivers/common/openserial.c ****             openserial_goldenImageCommands();
 1634              		.loc 1 432 0
 1635 071c FFF7FEFF 		bl	openserial_goldenImageCommands
 433:build/OpenMote-CC2538_armgcc/drivers/common/openserial.c ****             break;
 1636              		.loc 1 433 0
 1637 0720 0FE0     		b	.L70
 1638              	.L71:
 434:build/OpenMote-CC2538_armgcc/drivers/common/openserial.c ****          default:
 435:build/OpenMote-CC2538_armgcc/drivers/common/openserial.c ****             openserial_printError(COMPONENT_OPENSERIAL,ERR_UNSUPPORTED_COMMAND,
 1639              		.loc 1 435 0
 1640 0722 7B79     		ldrb	r3, [r7, #5]	@ zero_extendqisi2
 1641 0724 9BB2     		uxth	r3, r3
 1642 0726 0420     		movs	r0, #4
 1643 0728 2F21     		movs	r1, #47
 1644 072a 1A46     		mov	r2, r3
 1645 072c 0023     		movs	r3, #0
 1646 072e FFF7FEFF 		bl	openserial_printError
 436:build/OpenMote-CC2538_armgcc/drivers/common/openserial.c ****                                   (errorparameter_t)cmdByte,
 437:build/OpenMote-CC2538_armgcc/drivers/common/openserial.c ****                                   (errorparameter_t)0);
 438:build/OpenMote-CC2538_armgcc/drivers/common/openserial.c ****             //reset here as it is not being reset in any other callback
 439:build/OpenMote-CC2538_armgcc/drivers/common/openserial.c ****             DISABLE_INTERRUPTS();
 1647              		.loc 1 439 0
 1648 0732 FFF7FEFF 		bl	IntMasterDisable
 440:build/OpenMote-CC2538_armgcc/drivers/common/openserial.c ****             openserial_vars.inputBufFill = 0;
 1649              		.loc 1 440 0
 1650 0736 094B     		ldr	r3, .L77
 1651 0738 0022     		movs	r2, #0
 1652 073a 9A73     		strb	r2, [r3, #14]
 441:build/OpenMote-CC2538_armgcc/drivers/common/openserial.c ****             ENABLE_INTERRUPTS();
 1653              		.loc 1 441 0
 1654 073c FFF7FEFF 		bl	IntMasterEnable
 442:build/OpenMote-CC2538_armgcc/drivers/common/openserial.c ****             break;
 1655              		.loc 1 442 0
 1656 0740 00BF     		nop
 1657              	.L70:
 443:build/OpenMote-CC2538_armgcc/drivers/common/openserial.c ****       }
 444:build/OpenMote-CC2538_armgcc/drivers/common/openserial.c ****    }
 445:build/OpenMote-CC2538_armgcc/drivers/common/openserial.c ****    
 446:build/OpenMote-CC2538_armgcc/drivers/common/openserial.c ****    DISABLE_INTERRUPTS();
 1658              		.loc 1 446 0
 1659 0742 FFF7FEFF 		bl	IntMasterDisable
 447:build/OpenMote-CC2538_armgcc/drivers/common/openserial.c ****    openserial_vars.inputBufFill  = 0;
 1660              		.loc 1 447 0
 1661 0746 054B     		ldr	r3, .L77
 1662 0748 0022     		movs	r2, #0
 1663 074a 9A73     		strb	r2, [r3, #14]
 448:build/OpenMote-CC2538_armgcc/drivers/common/openserial.c ****    openserial_vars.busyReceiving = FALSE;
 1664              		.loc 1 448 0
 1665 074c 034B     		ldr	r3, .L77
 1666 074e 0022     		movs	r2, #0
 1667 0750 5A72     		strb	r2, [r3, #9]
 449:build/OpenMote-CC2538_armgcc/drivers/common/openserial.c ****    ENABLE_INTERRUPTS();
 1668              		.loc 1 449 0
 1669 0752 FFF7FEFF 		bl	IntMasterEnable
 450:build/OpenMote-CC2538_armgcc/drivers/common/openserial.c **** }
 1670              		.loc 1 450 0
 1671 0756 0837     		adds	r7, r7, #8
 1672              		.cfi_def_cfa_offset 8
 1673 0758 BD46     		mov	sp, r7
 1674              		.cfi_def_cfa_register 13
 1675              		@ sp needed
 1676 075a 80BD     		pop	{r7, pc}
 1677              	.L78:
 1678              		.align	2
 1679              	.L77:
 1680 075c 00000000 		.word	openserial_vars
 1681 0760 10000000 		.word	openserial_vars+16
 1682              		.cfi_endproc
 1683              	.LFE13:
 1685              		.align	2
 1686              		.global	openserial_goldenImageCommands
 1687              		.thumb
 1688              		.thumb_func
 1690              	openserial_goldenImageCommands:
 1691              	.LFB14:
 451:build/OpenMote-CC2538_armgcc/drivers/common/openserial.c **** 
 452:build/OpenMote-CC2538_armgcc/drivers/common/openserial.c **** void openserial_goldenImageCommands(void){
 1692              		.loc 1 452 0
 1693              		.cfi_startproc
 1694              		@ args = 0, pretend = 0, frame = 56
 1695              		@ frame_needed = 1, uses_anonymous_args = 0
 1696 0764 80B5     		push	{r7, lr}
 1697              		.cfi_def_cfa_offset 8
 1698              		.cfi_offset 7, -8
 1699              		.cfi_offset 14, -4
 1700 0766 8EB0     		sub	sp, sp, #56
 1701              		.cfi_def_cfa_offset 64
 1702 0768 00AF     		add	r7, sp, #0
 1703              		.cfi_def_cfa_register 7
 453:build/OpenMote-CC2538_armgcc/drivers/common/openserial.c ****    uint8_t  input_buffer[10];
 454:build/OpenMote-CC2538_armgcc/drivers/common/openserial.c ****    uint8_t  numDataBytes;
 455:build/OpenMote-CC2538_armgcc/drivers/common/openserial.c ****    uint8_t  version;
 456:build/OpenMote-CC2538_armgcc/drivers/common/openserial.c **** #ifndef GOLDEN_IMAGE_NONE
 457:build/OpenMote-CC2538_armgcc/drivers/common/openserial.c ****    uint8_t  type;
 458:build/OpenMote-CC2538_armgcc/drivers/common/openserial.c **** #endif
 459:build/OpenMote-CC2538_armgcc/drivers/common/openserial.c ****    uint8_t  commandId;
 460:build/OpenMote-CC2538_armgcc/drivers/common/openserial.c ****    uint8_t  commandLen;
 461:build/OpenMote-CC2538_armgcc/drivers/common/openserial.c ****    uint8_t  comandParam_8;
 462:build/OpenMote-CC2538_armgcc/drivers/common/openserial.c ****    uint16_t comandParam_16;
 463:build/OpenMote-CC2538_armgcc/drivers/common/openserial.c ****    cellInfo_ht cellList[SCHEDULEIEMAXNUMCELLS];
 464:build/OpenMote-CC2538_armgcc/drivers/common/openserial.c ****    uint8_t  i;
 465:build/OpenMote-CC2538_armgcc/drivers/common/openserial.c ****    
 466:build/OpenMote-CC2538_armgcc/drivers/common/openserial.c ****    open_addr_t neighbor;
 467:build/OpenMote-CC2538_armgcc/drivers/common/openserial.c ****    bool        foundNeighbor;
 468:build/OpenMote-CC2538_armgcc/drivers/common/openserial.c ****    
 469:build/OpenMote-CC2538_armgcc/drivers/common/openserial.c ****    memset(cellList,0,sizeof(cellList));
 1704              		.loc 1 469 0
 1705 076a 07F11403 		add	r3, r7, #20
 1706 076e 1846     		mov	r0, r3
 1707 0770 0021     		movs	r1, #0
 1708 0772 0F22     		movs	r2, #15
 1709 0774 FFF7FEFF 		bl	memset
 470:build/OpenMote-CC2538_armgcc/drivers/common/openserial.c ****    
 471:build/OpenMote-CC2538_armgcc/drivers/common/openserial.c ****    numDataBytes = openserial_getNumDataBytes();
 1710              		.loc 1 471 0
 1711 0778 FFF7FEFF 		bl	openserial_getNumDataBytes
 1712 077c 0346     		mov	r3, r0
 1713 077e 87F83230 		strb	r3, [r7, #50]
 472:build/OpenMote-CC2538_armgcc/drivers/common/openserial.c ****    //copying the buffer
 473:build/OpenMote-CC2538_armgcc/drivers/common/openserial.c ****    openserial_getInputBuffer(&(input_buffer[0]),numDataBytes);
 1714              		.loc 1 473 0
 1715 0782 07F12402 		add	r2, r7, #36
 1716 0786 97F83230 		ldrb	r3, [r7, #50]	@ zero_extendqisi2
 1717 078a 1046     		mov	r0, r2
 1718 078c 1946     		mov	r1, r3
 1719 078e FFF7FEFF 		bl	openserial_getInputBuffer
 474:build/OpenMote-CC2538_armgcc/drivers/common/openserial.c ****    version = openserial_vars.inputBuf[1];
 1720              		.loc 1 474 0
 1721 0792 934B     		ldr	r3, .L119
 1722 0794 1B7C     		ldrb	r3, [r3, #16]
 1723 0796 87F83130 		strb	r3, [r7, #49]
 475:build/OpenMote-CC2538_armgcc/drivers/common/openserial.c **** #ifndef GOLDEN_IMAGE_NONE
 476:build/OpenMote-CC2538_armgcc/drivers/common/openserial.c ****    type    = openserial_vars.inputBuf[2];
 477:build/OpenMote-CC2538_armgcc/drivers/common/openserial.c **** #endif
 478:build/OpenMote-CC2538_armgcc/drivers/common/openserial.c ****    if (version != GOLDEN_IMAGE_VERSION) {
 1724              		.loc 1 478 0
 1725 079a 97F83130 		ldrb	r3, [r7, #49]	@ zero_extendqisi2
 1726 079e 022B     		cmp	r3, #2
 1727 07a0 00D0     		beq	.L80
 479:build/OpenMote-CC2538_armgcc/drivers/common/openserial.c ****       // the version of command is wrong
 480:build/OpenMote-CC2538_armgcc/drivers/common/openserial.c ****       // log this info and return
 481:build/OpenMote-CC2538_armgcc/drivers/common/openserial.c ****       return;
 1728              		.loc 1 481 0
 1729 07a2 19E1     		b	.L79
 1730              	.L80:
 482:build/OpenMote-CC2538_armgcc/drivers/common/openserial.c ****    }
 483:build/OpenMote-CC2538_armgcc/drivers/common/openserial.c ****    
 484:build/OpenMote-CC2538_armgcc/drivers/common/openserial.c **** #ifdef GOLDEN_IMAGE_ROOT 
 485:build/OpenMote-CC2538_armgcc/drivers/common/openserial.c ****    if ( type != GD_TYPE_ROOT ){
 486:build/OpenMote-CC2538_armgcc/drivers/common/openserial.c ****        // image type is wrong
 487:build/OpenMote-CC2538_armgcc/drivers/common/openserial.c ****        return;
 488:build/OpenMote-CC2538_armgcc/drivers/common/openserial.c ****    }
 489:build/OpenMote-CC2538_armgcc/drivers/common/openserial.c **** #endif
 490:build/OpenMote-CC2538_armgcc/drivers/common/openserial.c **** #ifdef GOLDEN_IMAGE_SNIFFER
 491:build/OpenMote-CC2538_armgcc/drivers/common/openserial.c ****    if (type != GD_TYPE_SNIFFER) {
 492:build/OpenMote-CC2538_armgcc/drivers/common/openserial.c ****        // image type is wrong
 493:build/OpenMote-CC2538_armgcc/drivers/common/openserial.c ****        return;
 494:build/OpenMote-CC2538_armgcc/drivers/common/openserial.c ****    }
 495:build/OpenMote-CC2538_armgcc/drivers/common/openserial.c **** #endif
 496:build/OpenMote-CC2538_armgcc/drivers/common/openserial.c ****    commandId  = openserial_vars.inputBuf[3];
 1731              		.loc 1 496 0
 1732 07a4 8E4B     		ldr	r3, .L119
 1733 07a6 9B7C     		ldrb	r3, [r3, #18]
 1734 07a8 87F83030 		strb	r3, [r7, #48]
 497:build/OpenMote-CC2538_armgcc/drivers/common/openserial.c ****    commandLen = openserial_vars.inputBuf[4];
 1735              		.loc 1 497 0
 1736 07ac 8C4B     		ldr	r3, .L119
 1737 07ae DB7C     		ldrb	r3, [r3, #19]
 1738 07b0 87F82F30 		strb	r3, [r7, #47]
 498:build/OpenMote-CC2538_armgcc/drivers/common/openserial.c ****    
 499:build/OpenMote-CC2538_armgcc/drivers/common/openserial.c ****    if (commandLen>3) {
 1739              		.loc 1 499 0
 1740 07b4 97F82F30 		ldrb	r3, [r7, #47]	@ zero_extendqisi2
 1741 07b8 032B     		cmp	r3, #3
 1742 07ba 00D9     		bls	.L82
 500:build/OpenMote-CC2538_armgcc/drivers/common/openserial.c ****        // the max command Len is 2, except ping commands
 501:build/OpenMote-CC2538_armgcc/drivers/common/openserial.c ****        return;
 1743              		.loc 1 501 0
 1744 07bc 0CE1     		b	.L79
 1745              	.L82:
 502:build/OpenMote-CC2538_armgcc/drivers/common/openserial.c ****    } else {
 503:build/OpenMote-CC2538_armgcc/drivers/common/openserial.c ****        if (commandLen == 1) {
 1746              		.loc 1 503 0
 1747 07be 97F82F30 		ldrb	r3, [r7, #47]	@ zero_extendqisi2
 1748 07c2 012B     		cmp	r3, #1
 1749 07c4 04D1     		bne	.L83
 504:build/OpenMote-CC2538_armgcc/drivers/common/openserial.c ****            comandParam_8 = openserial_vars.inputBuf[5];
 1750              		.loc 1 504 0
 1751 07c6 864B     		ldr	r3, .L119
 1752 07c8 1B7D     		ldrb	r3, [r3, #20]
 1753 07ca 87F83730 		strb	r3, [r7, #55]
 1754 07ce 09E0     		b	.L84
 1755              	.L83:
 505:build/OpenMote-CC2538_armgcc/drivers/common/openserial.c ****        } else {
 506:build/OpenMote-CC2538_armgcc/drivers/common/openserial.c ****            // commandLen == 2
 507:build/OpenMote-CC2538_armgcc/drivers/common/openserial.c ****            comandParam_16 = (openserial_vars.inputBuf[5]      & 0x00ff) | \
 1756              		.loc 1 507 0
 1757 07d0 834B     		ldr	r3, .L119
 1758 07d2 1B7D     		ldrb	r3, [r3, #20]	@ zero_extendqisi2
 1759 07d4 9AB2     		uxth	r2, r3
 508:build/OpenMote-CC2538_armgcc/drivers/common/openserial.c ****                             ((openserial_vars.inputBuf[6]<<8) & 0xff00); 
 1760              		.loc 1 508 0
 1761 07d6 824B     		ldr	r3, .L119
 1762 07d8 5B7D     		ldrb	r3, [r3, #21]	@ zero_extendqisi2
 1763 07da 1B02     		lsls	r3, r3, #8
 507:build/OpenMote-CC2538_armgcc/drivers/common/openserial.c ****                             ((openserial_vars.inputBuf[6]<<8) & 0xff00); 
 1764              		.loc 1 507 0
 1765 07dc 9BB2     		uxth	r3, r3
 1766 07de 1343     		orrs	r3, r3, r2
 1767 07e0 9BB2     		uxth	r3, r3
 1768 07e2 BB86     		strh	r3, [r7, #52]	@ movhi
 1769              	.L84:
 509:build/OpenMote-CC2538_armgcc/drivers/common/openserial.c ****        }
 510:build/OpenMote-CC2538_armgcc/drivers/common/openserial.c ****    }
 511:build/OpenMote-CC2538_armgcc/drivers/common/openserial.c ****    
 512:build/OpenMote-CC2538_armgcc/drivers/common/openserial.c ****    switch(commandId) {
 1770              		.loc 1 512 0
 1771 07e4 97F83030 		ldrb	r3, [r7, #48]	@ zero_extendqisi2
 1772 07e8 0F2B     		cmp	r3, #15
 1773 07ea 00F2F480 		bhi	.L118
 1774 07ee 01A2     		adr	r2, .L87
 1775 07f0 52F823F0 		ldr	pc, [r2, r3, lsl #2]
 1776              		.p2align 2
 1777              	.L87:
 1778 07f4 35080000 		.word	.L86+1
 1779 07f8 D7090000 		.word	.L118+1
 1780 07fc 41080000 		.word	.L89+1
 1781 0800 4B080000 		.word	.L90+1
 1782 0804 55080000 		.word	.L91+1
 1783 0808 5F080000 		.word	.L92+1
 1784 080c 69080000 		.word	.L93+1
 1785 0810 8D080000 		.word	.L94+1
 1786 0814 97080000 		.word	.L95+1
 1787 0818 BB080000 		.word	.L96+1
 1788 081c BB080000 		.word	.L96+1
 1789 0820 BB080000 		.word	.L96+1
 1790 0824 BB080000 		.word	.L96+1
 1791 0828 BB080000 		.word	.L96+1
 1792 082c A9090000 		.word	.L97+1
 1793 0830 B3090000 		.word	.L98+1
 1794              		.p2align 1
 1795              	.L86:
 513:build/OpenMote-CC2538_armgcc/drivers/common/openserial.c ****        case COMMAND_SET_EBPERIOD:
 514:build/OpenMote-CC2538_armgcc/drivers/common/openserial.c ****            sixtop_setEBPeriod(comandParam_8); // one byte, in seconds
 1796              		.loc 1 514 0
 1797 0834 97F83730 		ldrb	r3, [r7, #55]	@ zero_extendqisi2
 1798 0838 1846     		mov	r0, r3
 1799 083a FFF7FEFF 		bl	sixtop_setEBPeriod
 515:build/OpenMote-CC2538_armgcc/drivers/common/openserial.c ****            break;
 1800              		.loc 1 515 0
 1801 083e CBE0     		b	.L99
 1802              	.L89:
 516:build/OpenMote-CC2538_armgcc/drivers/common/openserial.c ****        case COMMAND_SET_CHANNEL:
 517:build/OpenMote-CC2538_armgcc/drivers/common/openserial.c **** #ifdef GOLDEN_IMAGE_ROOT
 518:build/OpenMote-CC2538_armgcc/drivers/common/openserial.c ****                //  this is dagroot image
 519:build/OpenMote-CC2538_armgcc/drivers/common/openserial.c ****                ieee154e_setSingleChannel(comandParam_8); // one byte
 520:build/OpenMote-CC2538_armgcc/drivers/common/openserial.c **** #endif
 521:build/OpenMote-CC2538_armgcc/drivers/common/openserial.c **** #ifdef GOLDEN_IMAGE_SNIFFER
 522:build/OpenMote-CC2538_armgcc/drivers/common/openserial.c ****                // this is sniffer image
 523:build/OpenMote-CC2538_armgcc/drivers/common/openserial.c ****                sniffer_setListeningChannel(comandParam_8); // one byte
 524:build/OpenMote-CC2538_armgcc/drivers/common/openserial.c **** #endif
 525:build/OpenMote-CC2538_armgcc/drivers/common/openserial.c ****            break;
 526:build/OpenMote-CC2538_armgcc/drivers/common/openserial.c ****        case COMMAND_SET_KAPERIOD: // two bytes, in slots
 527:build/OpenMote-CC2538_armgcc/drivers/common/openserial.c ****            sixtop_setKaPeriod(comandParam_16);
 1803              		.loc 1 527 0
 1804 0840 BB8E     		ldrh	r3, [r7, #52]
 1805 0842 1846     		mov	r0, r3
 1806 0844 FFF7FEFF 		bl	sixtop_setKaPeriod
 528:build/OpenMote-CC2538_armgcc/drivers/common/openserial.c ****            break;
 1807              		.loc 1 528 0
 1808 0848 C6E0     		b	.L99
 1809              	.L90:
 529:build/OpenMote-CC2538_armgcc/drivers/common/openserial.c ****        case COMMAND_SET_DIOPERIOD: // two bytes, in mili-seconds
 530:build/OpenMote-CC2538_armgcc/drivers/common/openserial.c ****            icmpv6rpl_setDIOPeriod(comandParam_16);
 1810              		.loc 1 530 0
 1811 084a BB8E     		ldrh	r3, [r7, #52]
 1812 084c 1846     		mov	r0, r3
 1813 084e FFF7FEFF 		bl	icmpv6rpl_setDIOPeriod
 531:build/OpenMote-CC2538_armgcc/drivers/common/openserial.c ****            break;
 1814              		.loc 1 531 0
 1815 0852 C1E0     		b	.L99
 1816              	.L91:
 532:build/OpenMote-CC2538_armgcc/drivers/common/openserial.c ****        case COMMAND_SET_DAOPERIOD: // two bytes, in mili-seconds
 533:build/OpenMote-CC2538_armgcc/drivers/common/openserial.c ****            icmpv6rpl_setDAOPeriod(comandParam_16);
 1817              		.loc 1 533 0
 1818 0854 BB8E     		ldrh	r3, [r7, #52]
 1819 0856 1846     		mov	r0, r3
 1820 0858 FFF7FEFF 		bl	icmpv6rpl_setDAOPeriod
 534:build/OpenMote-CC2538_armgcc/drivers/common/openserial.c ****            break;
 1821              		.loc 1 534 0
 1822 085c BCE0     		b	.L99
 1823              	.L92:
 535:build/OpenMote-CC2538_armgcc/drivers/common/openserial.c ****        case COMMAND_SET_DAGRANK: // two bytes
 536:build/OpenMote-CC2538_armgcc/drivers/common/openserial.c ****            neighbors_setMyDAGrank(comandParam_16);
 1824              		.loc 1 536 0
 1825 085e BB8E     		ldrh	r3, [r7, #52]
 1826 0860 1846     		mov	r0, r3
 1827 0862 FFF7FEFF 		bl	neighbors_setMyDAGrank
 537:build/OpenMote-CC2538_armgcc/drivers/common/openserial.c ****            break;
 1828              		.loc 1 537 0
 1829 0866 B7E0     		b	.L99
 1830              	.L93:
 538:build/OpenMote-CC2538_armgcc/drivers/common/openserial.c ****        case COMMAND_SET_SECURITY_STATUS: // one byte
 539:build/OpenMote-CC2538_armgcc/drivers/common/openserial.c ****            if (comandParam_8 ==1) {
 1831              		.loc 1 539 0
 1832 0868 97F83730 		ldrb	r3, [r7, #55]	@ zero_extendqisi2
 1833 086c 012B     		cmp	r3, #1
 1834 086e 03D1     		bne	.L100
 540:build/OpenMote-CC2538_armgcc/drivers/common/openserial.c ****                ieee154e_setIsSecurityEnabled(TRUE);
 1835              		.loc 1 540 0
 1836 0870 0120     		movs	r0, #1
 1837 0872 FFF7FEFF 		bl	ieee154e_setIsSecurityEnabled
 1838 0876 08E0     		b	.L101
 1839              	.L100:
 541:build/OpenMote-CC2538_armgcc/drivers/common/openserial.c ****            } else {
 542:build/OpenMote-CC2538_armgcc/drivers/common/openserial.c ****                if (comandParam_8 == 0) {
 1840              		.loc 1 542 0
 1841 0878 97F83730 		ldrb	r3, [r7, #55]	@ zero_extendqisi2
 1842 087c 002B     		cmp	r3, #0
 1843 087e 03D1     		bne	.L102
 543:build/OpenMote-CC2538_armgcc/drivers/common/openserial.c ****                   ieee154e_setIsSecurityEnabled(FALSE);
 1844              		.loc 1 543 0
 1845 0880 0020     		movs	r0, #0
 1846 0882 FFF7FEFF 		bl	ieee154e_setIsSecurityEnabled
 1847 0886 00E0     		b	.L101
 1848              	.L102:
 544:build/OpenMote-CC2538_armgcc/drivers/common/openserial.c ****                } else {
 545:build/OpenMote-CC2538_armgcc/drivers/common/openserial.c ****                    // security only can be 1 or 0 
 546:build/OpenMote-CC2538_armgcc/drivers/common/openserial.c ****                    break;
 1849              		.loc 1 546 0 discriminator 2
 1850 0888 A6E0     		b	.L99
 1851              	.L101:
 547:build/OpenMote-CC2538_armgcc/drivers/common/openserial.c ****                }
 548:build/OpenMote-CC2538_armgcc/drivers/common/openserial.c ****            }
 549:build/OpenMote-CC2538_armgcc/drivers/common/openserial.c ****            break;
 1852              		.loc 1 549 0 discriminator 3
 1853 088a A5E0     		b	.L99
 1854              	.L94:
 550:build/OpenMote-CC2538_armgcc/drivers/common/openserial.c ****        case COMMAND_SET_FRAMELENGTH: // two bytes
 551:build/OpenMote-CC2538_armgcc/drivers/common/openserial.c ****            schedule_setFrameLength(comandParam_16);
 1855              		.loc 1 551 0
 1856 088c BB8E     		ldrh	r3, [r7, #52]
 1857 088e 1846     		mov	r0, r3
 1858 0890 FFF7FEFF 		bl	schedule_setFrameLength
 552:build/OpenMote-CC2538_armgcc/drivers/common/openserial.c ****            break;
 1859              		.loc 1 552 0
 1860 0894 A0E0     		b	.L99
 1861              	.L95:
 553:build/OpenMote-CC2538_armgcc/drivers/common/openserial.c ****        case COMMAND_SET_ACK_STATUS:
 554:build/OpenMote-CC2538_armgcc/drivers/common/openserial.c ****            if (comandParam_8 == 1) {
 1862              		.loc 1 554 0
 1863 0896 97F83730 		ldrb	r3, [r7, #55]	@ zero_extendqisi2
 1864 089a 012B     		cmp	r3, #1
 1865 089c 03D1     		bne	.L103
 555:build/OpenMote-CC2538_armgcc/drivers/common/openserial.c ****                ieee154e_setIsAckEnabled(TRUE);
 1866              		.loc 1 555 0
 1867 089e 0120     		movs	r0, #1
 1868 08a0 FFF7FEFF 		bl	ieee154e_setIsAckEnabled
 1869 08a4 08E0     		b	.L104
 1870              	.L103:
 556:build/OpenMote-CC2538_armgcc/drivers/common/openserial.c ****            } else {
 557:build/OpenMote-CC2538_armgcc/drivers/common/openserial.c ****                if (comandParam_8 == 0) {
 1871              		.loc 1 557 0
 1872 08a6 97F83730 		ldrb	r3, [r7, #55]	@ zero_extendqisi2
 1873 08aa 002B     		cmp	r3, #0
 1874 08ac 03D1     		bne	.L105
 558:build/OpenMote-CC2538_armgcc/drivers/common/openserial.c ****                    ieee154e_setIsAckEnabled(FALSE);
 1875              		.loc 1 558 0
 1876 08ae 0020     		movs	r0, #0
 1877 08b0 FFF7FEFF 		bl	ieee154e_setIsAckEnabled
 1878 08b4 00E0     		b	.L104
 1879              	.L105:
 559:build/OpenMote-CC2538_armgcc/drivers/common/openserial.c ****                } else {
 560:build/OpenMote-CC2538_armgcc/drivers/common/openserial.c ****                    // ack reply
 561:build/OpenMote-CC2538_armgcc/drivers/common/openserial.c ****                    break;
 1880              		.loc 1 561 0 discriminator 4
 1881 08b6 8FE0     		b	.L99
 1882              	.L104:
 562:build/OpenMote-CC2538_armgcc/drivers/common/openserial.c ****                }
 563:build/OpenMote-CC2538_armgcc/drivers/common/openserial.c ****            }
 564:build/OpenMote-CC2538_armgcc/drivers/common/openserial.c ****            break;
 1883              		.loc 1 564 0 discriminator 5
 1884 08b8 8EE0     		b	.L99
 1885              	.L96:
 565:build/OpenMote-CC2538_armgcc/drivers/common/openserial.c ****         case COMMAND_SET_6P_ADD:
 566:build/OpenMote-CC2538_armgcc/drivers/common/openserial.c ****         case COMMAND_SET_6P_DELETE:
 567:build/OpenMote-CC2538_armgcc/drivers/common/openserial.c ****         case COMMAND_SET_6P_COUNT:
 568:build/OpenMote-CC2538_armgcc/drivers/common/openserial.c ****         case COMMAND_SET_6P_LIST:
 569:build/OpenMote-CC2538_armgcc/drivers/common/openserial.c ****         case COMMAND_SET_6P_CLEAR:
 570:build/OpenMote-CC2538_armgcc/drivers/common/openserial.c ****             // get preferred parent
 571:build/OpenMote-CC2538_armgcc/drivers/common/openserial.c ****             foundNeighbor = neighbors_getPreferredParentEui64(&neighbor);
 1886              		.loc 1 571 0
 1887 08ba 3B46     		mov	r3, r7
 1888 08bc 1846     		mov	r0, r3
 1889 08be FFF7FEFF 		bl	neighbors_getPreferredParentEui64
 1890 08c2 0346     		mov	r3, r0
 1891 08c4 87F82E30 		strb	r3, [r7, #46]
 572:build/OpenMote-CC2538_armgcc/drivers/common/openserial.c ****             if (foundNeighbor==FALSE) {
 1892              		.loc 1 572 0
 1893 08c8 97F82E30 		ldrb	r3, [r7, #46]
 1894 08cc 83F00103 		eor	r3, r3, #1
 1895 08d0 DBB2     		uxtb	r3, r3
 1896 08d2 002B     		cmp	r3, #0
 1897 08d4 00D0     		beq	.L106
 573:build/OpenMote-CC2538_armgcc/drivers/common/openserial.c ****                 break;
 1898              		.loc 1 573 0 discriminator 6
 1899 08d6 7FE0     		b	.L99
 1900              	.L106:
 574:build/OpenMote-CC2538_armgcc/drivers/common/openserial.c ****             }
 575:build/OpenMote-CC2538_armgcc/drivers/common/openserial.c ****              
 576:build/OpenMote-CC2538_armgcc/drivers/common/openserial.c ****             sixtop_setHandler(SIX_HANDLER_OTF);
 1901              		.loc 1 576 0
 1902 08d8 0220     		movs	r0, #2
 1903 08da FFF7FEFF 		bl	sixtop_setHandler
 577:build/OpenMote-CC2538_armgcc/drivers/common/openserial.c ****             if ( 
 1904              		.loc 1 577 0
 1905 08de 97F83030 		ldrb	r3, [r7, #48]	@ zero_extendqisi2
 1906 08e2 092B     		cmp	r3, #9
 1907 08e4 03D0     		beq	.L107
 578:build/OpenMote-CC2538_armgcc/drivers/common/openserial.c ****                 (
 579:build/OpenMote-CC2538_armgcc/drivers/common/openserial.c ****                   commandId != COMMAND_SET_6P_ADD &&
 1908              		.loc 1 579 0
 1909 08e6 97F83030 		ldrb	r3, [r7, #48]	@ zero_extendqisi2
 1910 08ea 0A2B     		cmp	r3, #10
 1911 08ec 0BD1     		bne	.L108
 1912              	.L107:
 580:build/OpenMote-CC2538_armgcc/drivers/common/openserial.c ****                   commandId != COMMAND_SET_6P_DELETE
 581:build/OpenMote-CC2538_armgcc/drivers/common/openserial.c ****                 ) ||
 1913              		.loc 1 581 0
 1914 08ee 97F83030 		ldrb	r3, [r7, #48]	@ zero_extendqisi2
 1915 08f2 092B     		cmp	r3, #9
 1916 08f4 03D0     		beq	.L109
 582:build/OpenMote-CC2538_armgcc/drivers/common/openserial.c ****                 (
 583:build/OpenMote-CC2538_armgcc/drivers/common/openserial.c ****                     ( 
 584:build/OpenMote-CC2538_armgcc/drivers/common/openserial.c ****                       commandId == COMMAND_SET_6P_ADD ||
 1917              		.loc 1 584 0
 1918 08f6 97F83030 		ldrb	r3, [r7, #48]	@ zero_extendqisi2
 1919 08fa 0A2B     		cmp	r3, #10
 1920 08fc 0ED1     		bne	.L110
 1921              	.L109:
 585:build/OpenMote-CC2538_armgcc/drivers/common/openserial.c ****                       commandId == COMMAND_SET_6P_DELETE
 586:build/OpenMote-CC2538_armgcc/drivers/common/openserial.c ****                     ) && 
 1922              		.loc 1 586 0
 1923 08fe 97F82F30 		ldrb	r3, [r7, #47]	@ zero_extendqisi2
 1924 0902 002B     		cmp	r3, #0
 1925 0904 0AD1     		bne	.L110
 1926              	.L108:
 587:build/OpenMote-CC2538_armgcc/drivers/common/openserial.c ****                     commandLen == 0
 588:build/OpenMote-CC2538_armgcc/drivers/common/openserial.c ****                 ) 
 589:build/OpenMote-CC2538_armgcc/drivers/common/openserial.c ****             ){
 590:build/OpenMote-CC2538_armgcc/drivers/common/openserial.c ****                 // randommly select cell
 591:build/OpenMote-CC2538_armgcc/drivers/common/openserial.c ****                 sixtop_request(commandId-8,&neighbor,1);
 1927              		.loc 1 591 0
 1928 0906 97F83030 		ldrb	r3, [r7, #48]
 1929 090a 083B     		subs	r3, r3, #8
 1930 090c DAB2     		uxtb	r2, r3
 1931 090e 3B46     		mov	r3, r7
 1932 0910 1046     		mov	r0, r2
 1933 0912 1946     		mov	r1, r3
 1934 0914 0122     		movs	r2, #1
 1935 0916 FFF7FEFF 		bl	sixtop_request
 592:build/OpenMote-CC2538_armgcc/drivers/common/openserial.c ****             } else {
 593:build/OpenMote-CC2538_armgcc/drivers/common/openserial.c ****                 for (i=0;i<commandLen;i++){
 594:build/OpenMote-CC2538_armgcc/drivers/common/openserial.c ****                     cellList[i].tsNum           = openserial_vars.inputBuf[5+i];
 595:build/OpenMote-CC2538_armgcc/drivers/common/openserial.c ****                     cellList[i].choffset        = 0;
 596:build/OpenMote-CC2538_armgcc/drivers/common/openserial.c ****                     cellList[i].linkoptions     = CELLTYPE_TX;
 597:build/OpenMote-CC2538_armgcc/drivers/common/openserial.c ****                 }
 598:build/OpenMote-CC2538_armgcc/drivers/common/openserial.c ****                 sixtop_addORremoveCellByInfo(commandId-8,&neighbor,cellList);
 599:build/OpenMote-CC2538_armgcc/drivers/common/openserial.c ****             }
 600:build/OpenMote-CC2538_armgcc/drivers/common/openserial.c ****             break;
 1936              		.loc 1 600 0
 1937 091a 5DE0     		b	.L99
 1938              	.L110:
 593:build/OpenMote-CC2538_armgcc/drivers/common/openserial.c ****                     cellList[i].tsNum           = openserial_vars.inputBuf[5+i];
 1939              		.loc 1 593 0
 1940 091c 0023     		movs	r3, #0
 1941 091e 87F83330 		strb	r3, [r7, #51]
 1942 0922 2EE0     		b	.L112
 1943              	.L113:
 594:build/OpenMote-CC2538_armgcc/drivers/common/openserial.c ****                     cellList[i].choffset        = 0;
 1944              		.loc 1 594 0 discriminator 3
 1945 0924 97F83320 		ldrb	r2, [r7, #51]	@ zero_extendqisi2
 1946 0928 97F83330 		ldrb	r3, [r7, #51]	@ zero_extendqisi2
 1947 092c 0533     		adds	r3, r3, #5
 1948 092e 2C49     		ldr	r1, .L119
 1949 0930 0B44     		add	r3, r3, r1
 1950 0932 DB7B     		ldrb	r3, [r3, #15]	@ zero_extendqisi2
 1951 0934 99B2     		uxth	r1, r3
 1952 0936 1346     		mov	r3, r2
 1953 0938 9B00     		lsls	r3, r3, #2
 1954 093a 1344     		add	r3, r3, r2
 1955 093c 07F13802 		add	r2, r7, #56
 1956 0940 1344     		add	r3, r3, r2
 1957 0942 243B     		subs	r3, r3, #36
 1958 0944 0A46     		mov	r2, r1	@ movhi
 1959 0946 1A80     		strh	r2, [r3]	@ unaligned
 595:build/OpenMote-CC2538_armgcc/drivers/common/openserial.c ****                     cellList[i].linkoptions     = CELLTYPE_TX;
 1960              		.loc 1 595 0 discriminator 3
 1961 0948 97F83320 		ldrb	r2, [r7, #51]	@ zero_extendqisi2
 1962 094c 1346     		mov	r3, r2
 1963 094e 9B00     		lsls	r3, r3, #2
 1964 0950 1344     		add	r3, r3, r2
 1965 0952 07F13802 		add	r2, r7, #56
 1966 0956 1344     		add	r3, r3, r2
 1967 0958 243B     		subs	r3, r3, #36
 1968 095a 0022     		movs	r2, #0
 1969 095c 9A70     		strb	r2, [r3, #2]
 1970 095e 0022     		movs	r2, #0
 1971 0960 DA70     		strb	r2, [r3, #3]
 596:build/OpenMote-CC2538_armgcc/drivers/common/openserial.c ****                 }
 1972              		.loc 1 596 0 discriminator 3
 1973 0962 97F83320 		ldrb	r2, [r7, #51]	@ zero_extendqisi2
 1974 0966 1346     		mov	r3, r2
 1975 0968 9B00     		lsls	r3, r3, #2
 1976 096a 1344     		add	r3, r3, r2
 1977 096c 07F13802 		add	r2, r7, #56
 1978 0970 1344     		add	r3, r3, r2
 1979 0972 243B     		subs	r3, r3, #36
 1980 0974 0122     		movs	r2, #1
 1981 0976 1A71     		strb	r2, [r3, #4]
 593:build/OpenMote-CC2538_armgcc/drivers/common/openserial.c ****                     cellList[i].tsNum           = openserial_vars.inputBuf[5+i];
 1982              		.loc 1 593 0 discriminator 3
 1983 0978 97F83330 		ldrb	r3, [r7, #51]	@ zero_extendqisi2
 1984 097c 0133     		adds	r3, r3, #1
 1985 097e 87F83330 		strb	r3, [r7, #51]
 1986              	.L112:
 593:build/OpenMote-CC2538_armgcc/drivers/common/openserial.c ****                     cellList[i].tsNum           = openserial_vars.inputBuf[5+i];
 1987              		.loc 1 593 0 is_stmt 0 discriminator 1
 1988 0982 97F83320 		ldrb	r2, [r7, #51]	@ zero_extendqisi2
 1989 0986 97F82F30 		ldrb	r3, [r7, #47]	@ zero_extendqisi2
 1990 098a 9A42     		cmp	r2, r3
 1991 098c CAD3     		bcc	.L113
 598:build/OpenMote-CC2538_armgcc/drivers/common/openserial.c ****             }
 1992              		.loc 1 598 0 is_stmt 1
 1993 098e 97F83030 		ldrb	r3, [r7, #48]
 1994 0992 083B     		subs	r3, r3, #8
 1995 0994 D9B2     		uxtb	r1, r3
 1996 0996 3A46     		mov	r2, r7
 1997 0998 07F11403 		add	r3, r7, #20
 1998 099c 0846     		mov	r0, r1
 1999 099e 1146     		mov	r1, r2
 2000 09a0 1A46     		mov	r2, r3
 2001 09a2 FFF7FEFF 		bl	sixtop_addORremoveCellByInfo
 2002              		.loc 1 600 0
 2003 09a6 17E0     		b	.L99
 2004              	.L97:
 601:build/OpenMote-CC2538_armgcc/drivers/common/openserial.c ****        case COMMAND_SET_SLOTDURATION:
 602:build/OpenMote-CC2538_armgcc/drivers/common/openserial.c ****             ieee154e_setSlotDuration(comandParam_16);
 2005              		.loc 1 602 0
 2006 09a8 BB8E     		ldrh	r3, [r7, #52]
 2007 09aa 1846     		mov	r0, r3
 2008 09ac FFF7FEFF 		bl	ieee154e_setSlotDuration
 603:build/OpenMote-CC2538_armgcc/drivers/common/openserial.c ****             break;
 2009              		.loc 1 603 0
 2010 09b0 12E0     		b	.L99
 2011              	.L98:
 604:build/OpenMote-CC2538_armgcc/drivers/common/openserial.c ****        case COMMAND_SET_6PRESPONSE_STATUS:
 605:build/OpenMote-CC2538_armgcc/drivers/common/openserial.c ****             if (comandParam_8 ==1) {
 2012              		.loc 1 605 0
 2013 09b2 97F83730 		ldrb	r3, [r7, #55]	@ zero_extendqisi2
 2014 09b6 012B     		cmp	r3, #1
 2015 09b8 03D1     		bne	.L114
 606:build/OpenMote-CC2538_armgcc/drivers/common/openserial.c ****                sixtop_setIsResponseEnabled(TRUE);
 2016              		.loc 1 606 0
 2017 09ba 0120     		movs	r0, #1
 2018 09bc FFF7FEFF 		bl	sixtop_setIsResponseEnabled
 2019 09c0 08E0     		b	.L115
 2020              	.L114:
 607:build/OpenMote-CC2538_armgcc/drivers/common/openserial.c ****             } else {
 608:build/OpenMote-CC2538_armgcc/drivers/common/openserial.c ****                 if (comandParam_8 == 0) {
 2021              		.loc 1 608 0
 2022 09c2 97F83730 		ldrb	r3, [r7, #55]	@ zero_extendqisi2
 2023 09c6 002B     		cmp	r3, #0
 2024 09c8 03D1     		bne	.L116
 609:build/OpenMote-CC2538_armgcc/drivers/common/openserial.c ****                     sixtop_setIsResponseEnabled(FALSE);
 2025              		.loc 1 609 0
 2026 09ca 0020     		movs	r0, #0
 2027 09cc FFF7FEFF 		bl	sixtop_setIsResponseEnabled
 2028 09d0 00E0     		b	.L115
 2029              	.L116:
 610:build/OpenMote-CC2538_armgcc/drivers/common/openserial.c ****                 } else {
 611:build/OpenMote-CC2538_armgcc/drivers/common/openserial.c ****                     // security only can be 1 or 0 
 612:build/OpenMote-CC2538_armgcc/drivers/common/openserial.c ****                     break;
 2030              		.loc 1 612 0 discriminator 8
 2031 09d2 01E0     		b	.L99
 2032              	.L115:
 613:build/OpenMote-CC2538_armgcc/drivers/common/openserial.c ****                 }
 614:build/OpenMote-CC2538_armgcc/drivers/common/openserial.c ****             }
 615:build/OpenMote-CC2538_armgcc/drivers/common/openserial.c ****             break;
 2033              		.loc 1 615 0 discriminator 9
 2034 09d4 00E0     		b	.L99
 2035              	.L118:
 616:build/OpenMote-CC2538_armgcc/drivers/common/openserial.c ****        default:
 617:build/OpenMote-CC2538_armgcc/drivers/common/openserial.c ****            // wrong command ID
 618:build/OpenMote-CC2538_armgcc/drivers/common/openserial.c ****            break;
 2036              		.loc 1 618 0
 2037 09d6 00BF     		nop
 2038              	.L99:
 2039              	.L79:
 619:build/OpenMote-CC2538_armgcc/drivers/common/openserial.c ****    }
 620:build/OpenMote-CC2538_armgcc/drivers/common/openserial.c **** }
 2040              		.loc 1 620 0
 2041 09d8 3837     		adds	r7, r7, #56
 2042              		.cfi_def_cfa_offset 8
 2043 09da BD46     		mov	sp, r7
 2044              		.cfi_def_cfa_register 13
 2045              		@ sp needed
 2046 09dc 80BD     		pop	{r7, pc}
 2047              	.L120:
 2048 09de 00BF     		.align	2
 2049              	.L119:
 2050 09e0 00000000 		.word	openserial_vars
 2051              		.cfi_endproc
 2052              	.LFE14:
 2054              		.align	2
 2055              		.global	debugPrint_outBufferIndexes
 2056              		.thumb
 2057              		.thumb_func
 2059              	debugPrint_outBufferIndexes:
 2060              	.LFB15:
 621:build/OpenMote-CC2538_armgcc/drivers/common/openserial.c **** 
 622:build/OpenMote-CC2538_armgcc/drivers/common/openserial.c **** /**
 623:build/OpenMote-CC2538_armgcc/drivers/common/openserial.c **** \brief Trigger this module to print status information, over serial.
 624:build/OpenMote-CC2538_armgcc/drivers/common/openserial.c **** 
 625:build/OpenMote-CC2538_armgcc/drivers/common/openserial.c **** debugPrint_* functions are used by the openserial module to continuously print
 626:build/OpenMote-CC2538_armgcc/drivers/common/openserial.c **** status information about several modules in the OpenWSN stack.
 627:build/OpenMote-CC2538_armgcc/drivers/common/openserial.c **** 
 628:build/OpenMote-CC2538_armgcc/drivers/common/openserial.c **** \returns TRUE if this function printed something, FALSE otherwise.
 629:build/OpenMote-CC2538_armgcc/drivers/common/openserial.c **** */
 630:build/OpenMote-CC2538_armgcc/drivers/common/openserial.c **** bool debugPrint_outBufferIndexes() {
 2061              		.loc 1 630 0
 2062              		.cfi_startproc
 2063              		@ args = 0, pretend = 0, frame = 8
 2064              		@ frame_needed = 1, uses_anonymous_args = 0
 2065 09e4 80B5     		push	{r7, lr}
 2066              		.cfi_def_cfa_offset 8
 2067              		.cfi_offset 7, -8
 2068              		.cfi_offset 14, -4
 2069 09e6 82B0     		sub	sp, sp, #8
 2070              		.cfi_def_cfa_offset 16
 2071 09e8 00AF     		add	r7, sp, #0
 2072              		.cfi_def_cfa_register 7
 631:build/OpenMote-CC2538_armgcc/drivers/common/openserial.c ****    uint16_t temp_buffer[2];
 632:build/OpenMote-CC2538_armgcc/drivers/common/openserial.c ****    INTERRUPT_DECLARATION();
 633:build/OpenMote-CC2538_armgcc/drivers/common/openserial.c ****    DISABLE_INTERRUPTS();
 2073              		.loc 1 633 0
 2074 09ea FFF7FEFF 		bl	IntMasterDisable
 634:build/OpenMote-CC2538_armgcc/drivers/common/openserial.c ****    temp_buffer[0] = openserial_vars.outputBufIdxW;
 2075              		.loc 1 634 0
 2076 09ee 0B4B     		ldr	r3, .L123
 2077 09f0 93F8DA30 		ldrb	r3, [r3, #218]	@ zero_extendqisi2
 2078 09f4 9BB2     		uxth	r3, r3
 2079 09f6 BB80     		strh	r3, [r7, #4]	@ movhi
 635:build/OpenMote-CC2538_armgcc/drivers/common/openserial.c ****    temp_buffer[1] = openserial_vars.outputBufIdxR;
 2080              		.loc 1 635 0
 2081 09f8 084B     		ldr	r3, .L123
 2082 09fa 93F8DB30 		ldrb	r3, [r3, #219]	@ zero_extendqisi2
 2083 09fe 9BB2     		uxth	r3, r3
 2084 0a00 FB80     		strh	r3, [r7, #6]	@ movhi
 636:build/OpenMote-CC2538_armgcc/drivers/common/openserial.c ****    ENABLE_INTERRUPTS();
 2085              		.loc 1 636 0
 2086 0a02 FFF7FEFF 		bl	IntMasterEnable
 637:build/OpenMote-CC2538_armgcc/drivers/common/openserial.c ****    openserial_printStatus(STATUS_OUTBUFFERINDEXES,(uint8_t*)temp_buffer,sizeof(temp_buffer));
 2087              		.loc 1 637 0
 2088 0a06 3B1D     		adds	r3, r7, #4
 2089 0a08 0320     		movs	r0, #3
 2090 0a0a 1946     		mov	r1, r3
 2091 0a0c 0422     		movs	r2, #4
 2092 0a0e FFF7FEFF 		bl	openserial_printStatus
 638:build/OpenMote-CC2538_armgcc/drivers/common/openserial.c ****    return TRUE;
 2093              		.loc 1 638 0
 2094 0a12 0123     		movs	r3, #1
 639:build/OpenMote-CC2538_armgcc/drivers/common/openserial.c **** }
 2095              		.loc 1 639 0
 2096 0a14 1846     		mov	r0, r3
 2097 0a16 0837     		adds	r7, r7, #8
 2098              		.cfi_def_cfa_offset 8
 2099 0a18 BD46     		mov	sp, r7
 2100              		.cfi_def_cfa_register 13
 2101              		@ sp needed
 2102 0a1a 80BD     		pop	{r7, pc}
 2103              	.L124:
 2104              		.align	2
 2105              	.L123:
 2106 0a1c 00000000 		.word	openserial_vars
 2107              		.cfi_endproc
 2108              	.LFE15:
 2110              		.align	2
 2111              		.global	outputHdlcOpen
 2112              		.thumb
 2113              		.thumb_func
 2115              	outputHdlcOpen:
 2116              	.LFB16:
 640:build/OpenMote-CC2538_armgcc/drivers/common/openserial.c **** 
 641:build/OpenMote-CC2538_armgcc/drivers/common/openserial.c **** //=========================== private =========================================
 642:build/OpenMote-CC2538_armgcc/drivers/common/openserial.c **** 
 643:build/OpenMote-CC2538_armgcc/drivers/common/openserial.c **** //===== hdlc (output)
 644:build/OpenMote-CC2538_armgcc/drivers/common/openserial.c **** 
 645:build/OpenMote-CC2538_armgcc/drivers/common/openserial.c **** /**
 646:build/OpenMote-CC2538_armgcc/drivers/common/openserial.c **** \brief Start an HDLC frame in the output buffer.
 647:build/OpenMote-CC2538_armgcc/drivers/common/openserial.c **** */
 648:build/OpenMote-CC2538_armgcc/drivers/common/openserial.c **** port_INLINE void outputHdlcOpen() {
 2117              		.loc 1 648 0
 2118              		.cfi_startproc
 2119              		@ args = 0, pretend = 0, frame = 0
 2120              		@ frame_needed = 1, uses_anonymous_args = 0
 2121              		@ link register save eliminated.
 2122 0a20 80B4     		push	{r7}
 2123              		.cfi_def_cfa_offset 4
 2124              		.cfi_offset 7, -4
 2125 0a22 00AF     		add	r7, sp, #0
 2126              		.cfi_def_cfa_register 7
 649:build/OpenMote-CC2538_armgcc/drivers/common/openserial.c ****    // initialize the value of the CRC
 650:build/OpenMote-CC2538_armgcc/drivers/common/openserial.c ****    openserial_vars.outputCrc                          = HDLC_CRCINIT;
 2127              		.loc 1 650 0
 2128 0a24 0B4B     		ldr	r3, .L126
 2129 0a26 4FF6FF72 		movw	r2, #65535
 2130 0a2a A3F8D820 		strh	r2, [r3, #216]	@ movhi
 651:build/OpenMote-CC2538_armgcc/drivers/common/openserial.c ****    
 652:build/OpenMote-CC2538_armgcc/drivers/common/openserial.c ****    // write the opening HDLC flag
 653:build/OpenMote-CC2538_armgcc/drivers/common/openserial.c ****    openserial_vars.outputBuf[openserial_vars.outputBufIdxW++]     = HDLC_FLAG;
 2131              		.loc 1 653 0
 2132 0a2e 094B     		ldr	r3, .L126
 2133 0a30 93F8DA30 		ldrb	r3, [r3, #218]	@ zero_extendqisi2
 2134 0a34 5A1C     		adds	r2, r3, #1
 2135 0a36 D1B2     		uxtb	r1, r2
 2136 0a38 064A     		ldr	r2, .L126
 2137 0a3a 82F8DA10 		strb	r1, [r2, #218]
 2138 0a3e 1A46     		mov	r2, r3
 2139 0a40 044B     		ldr	r3, .L126
 2140 0a42 1344     		add	r3, r3, r2
 2141 0a44 7E22     		movs	r2, #126
 2142 0a46 83F8DC20 		strb	r2, [r3, #220]
 654:build/OpenMote-CC2538_armgcc/drivers/common/openserial.c **** }
 2143              		.loc 1 654 0
 2144 0a4a BD46     		mov	sp, r7
 2145              		.cfi_def_cfa_register 13
 2146              		@ sp needed
 2147 0a4c 5DF8047B 		ldr	r7, [sp], #4
 2148              		.cfi_restore 7
 2149              		.cfi_def_cfa_offset 0
 2150 0a50 7047     		bx	lr
 2151              	.L127:
 2152 0a52 00BF     		.align	2
 2153              	.L126:
 2154 0a54 00000000 		.word	openserial_vars
 2155              		.cfi_endproc
 2156              	.LFE16:
 2158              		.align	2
 2159              		.global	outputHdlcWrite
 2160              		.thumb
 2161              		.thumb_func
 2163              	outputHdlcWrite:
 2164              	.LFB17:
 655:build/OpenMote-CC2538_armgcc/drivers/common/openserial.c **** /**
 656:build/OpenMote-CC2538_armgcc/drivers/common/openserial.c **** \brief Add a byte to the outgoing HDLC frame being built.
 657:build/OpenMote-CC2538_armgcc/drivers/common/openserial.c **** */
 658:build/OpenMote-CC2538_armgcc/drivers/common/openserial.c **** port_INLINE void outputHdlcWrite(uint8_t b) {
 2165              		.loc 1 658 0
 2166              		.cfi_startproc
 2167              		@ args = 0, pretend = 0, frame = 8
 2168              		@ frame_needed = 1, uses_anonymous_args = 0
 2169 0a58 80B5     		push	{r7, lr}
 2170              		.cfi_def_cfa_offset 8
 2171              		.cfi_offset 7, -8
 2172              		.cfi_offset 14, -4
 2173 0a5a 82B0     		sub	sp, sp, #8
 2174              		.cfi_def_cfa_offset 16
 2175 0a5c 00AF     		add	r7, sp, #0
 2176              		.cfi_def_cfa_register 7
 2177 0a5e 0346     		mov	r3, r0
 2178 0a60 FB71     		strb	r3, [r7, #7]
 659:build/OpenMote-CC2538_armgcc/drivers/common/openserial.c ****    
 660:build/OpenMote-CC2538_armgcc/drivers/common/openserial.c ****    // iterate through CRC calculator
 661:build/OpenMote-CC2538_armgcc/drivers/common/openserial.c ****    openserial_vars.outputCrc = crcIteration(openserial_vars.outputCrc,b);
 2179              		.loc 1 661 0
 2180 0a62 1B4B     		ldr	r3, .L131
 2181 0a64 B3F8D820 		ldrh	r2, [r3, #216]
 2182 0a68 FB79     		ldrb	r3, [r7, #7]	@ zero_extendqisi2
 2183 0a6a 1046     		mov	r0, r2
 2184 0a6c 1946     		mov	r1, r3
 2185 0a6e FFF7FEFF 		bl	crcIteration
 2186 0a72 0346     		mov	r3, r0
 2187 0a74 1A46     		mov	r2, r3
 2188 0a76 164B     		ldr	r3, .L131
 2189 0a78 A3F8D820 		strh	r2, [r3, #216]	@ movhi
 662:build/OpenMote-CC2538_armgcc/drivers/common/openserial.c ****    
 663:build/OpenMote-CC2538_armgcc/drivers/common/openserial.c ****    // add byte to buffer
 664:build/OpenMote-CC2538_armgcc/drivers/common/openserial.c ****    if (b==HDLC_FLAG || b==HDLC_ESCAPE) {
 2190              		.loc 1 664 0
 2191 0a7c FB79     		ldrb	r3, [r7, #7]	@ zero_extendqisi2
 2192 0a7e 7E2B     		cmp	r3, #126
 2193 0a80 02D0     		beq	.L129
 2194              		.loc 1 664 0 is_stmt 0 discriminator 1
 2195 0a82 FB79     		ldrb	r3, [r7, #7]	@ zero_extendqisi2
 2196 0a84 7D2B     		cmp	r3, #125
 2197 0a86 11D1     		bne	.L130
 2198              	.L129:
 665:build/OpenMote-CC2538_armgcc/drivers/common/openserial.c ****       openserial_vars.outputBuf[openserial_vars.outputBufIdxW++]  = HDLC_ESCAPE;
 2199              		.loc 1 665 0 is_stmt 1
 2200 0a88 114B     		ldr	r3, .L131
 2201 0a8a 93F8DA30 		ldrb	r3, [r3, #218]	@ zero_extendqisi2
 2202 0a8e 5A1C     		adds	r2, r3, #1
 2203 0a90 D1B2     		uxtb	r1, r2
 2204 0a92 0F4A     		ldr	r2, .L131
 2205 0a94 82F8DA10 		strb	r1, [r2, #218]
 2206 0a98 1A46     		mov	r2, r3
 2207 0a9a 0D4B     		ldr	r3, .L131
 2208 0a9c 1344     		add	r3, r3, r2
 2209 0a9e 7D22     		movs	r2, #125
 2210 0aa0 83F8DC20 		strb	r2, [r3, #220]
 666:build/OpenMote-CC2538_armgcc/drivers/common/openserial.c ****       b                                               = b^HDLC_ESCAPE_MASK;
 2211              		.loc 1 666 0
 2212 0aa4 FB79     		ldrb	r3, [r7, #7]
 2213 0aa6 83F02003 		eor	r3, r3, #32
 2214 0aaa FB71     		strb	r3, [r7, #7]
 2215              	.L130:
 667:build/OpenMote-CC2538_armgcc/drivers/common/openserial.c ****    }
 668:build/OpenMote-CC2538_armgcc/drivers/common/openserial.c ****    openserial_vars.outputBuf[openserial_vars.outputBufIdxW++]     = b;
 2216              		.loc 1 668 0
 2217 0aac 084B     		ldr	r3, .L131
 2218 0aae 93F8DA30 		ldrb	r3, [r3, #218]	@ zero_extendqisi2
 2219 0ab2 5A1C     		adds	r2, r3, #1
 2220 0ab4 D1B2     		uxtb	r1, r2
 2221 0ab6 064A     		ldr	r2, .L131
 2222 0ab8 82F8DA10 		strb	r1, [r2, #218]
 2223 0abc 1A46     		mov	r2, r3
 2224 0abe 044B     		ldr	r3, .L131
 2225 0ac0 1344     		add	r3, r3, r2
 2226 0ac2 FA79     		ldrb	r2, [r7, #7]
 2227 0ac4 83F8DC20 		strb	r2, [r3, #220]
 669:build/OpenMote-CC2538_armgcc/drivers/common/openserial.c ****    
 670:build/OpenMote-CC2538_armgcc/drivers/common/openserial.c **** }
 2228              		.loc 1 670 0
 2229 0ac8 0837     		adds	r7, r7, #8
 2230              		.cfi_def_cfa_offset 8
 2231 0aca BD46     		mov	sp, r7
 2232              		.cfi_def_cfa_register 13
 2233              		@ sp needed
 2234 0acc 80BD     		pop	{r7, pc}
 2235              	.L132:
 2236 0ace 00BF     		.align	2
 2237              	.L131:
 2238 0ad0 00000000 		.word	openserial_vars
 2239              		.cfi_endproc
 2240              	.LFE17:
 2242              		.align	2
 2243              		.global	outputHdlcClose
 2244              		.thumb
 2245              		.thumb_func
 2247              	outputHdlcClose:
 2248              	.LFB18:
 671:build/OpenMote-CC2538_armgcc/drivers/common/openserial.c **** /**
 672:build/OpenMote-CC2538_armgcc/drivers/common/openserial.c **** \brief Finalize the outgoing HDLC frame.
 673:build/OpenMote-CC2538_armgcc/drivers/common/openserial.c **** */
 674:build/OpenMote-CC2538_armgcc/drivers/common/openserial.c **** port_INLINE void outputHdlcClose() {
 2249              		.loc 1 674 0
 2250              		.cfi_startproc
 2251              		@ args = 0, pretend = 0, frame = 8
 2252              		@ frame_needed = 1, uses_anonymous_args = 0
 2253 0ad4 80B5     		push	{r7, lr}
 2254              		.cfi_def_cfa_offset 8
 2255              		.cfi_offset 7, -8
 2256              		.cfi_offset 14, -4
 2257 0ad6 82B0     		sub	sp, sp, #8
 2258              		.cfi_def_cfa_offset 16
 2259 0ad8 00AF     		add	r7, sp, #0
 2260              		.cfi_def_cfa_register 7
 675:build/OpenMote-CC2538_armgcc/drivers/common/openserial.c ****    uint16_t   finalCrc;
 676:build/OpenMote-CC2538_armgcc/drivers/common/openserial.c ****     
 677:build/OpenMote-CC2538_armgcc/drivers/common/openserial.c ****    // finalize the calculation of the CRC
 678:build/OpenMote-CC2538_armgcc/drivers/common/openserial.c ****    finalCrc   = ~openserial_vars.outputCrc;
 2261              		.loc 1 678 0
 2262 0ada 114B     		ldr	r3, .L134
 2263 0adc B3F8D830 		ldrh	r3, [r3, #216]
 2264 0ae0 DB43     		mvns	r3, r3
 2265 0ae2 FB80     		strh	r3, [r7, #6]	@ movhi
 679:build/OpenMote-CC2538_armgcc/drivers/common/openserial.c ****    
 680:build/OpenMote-CC2538_armgcc/drivers/common/openserial.c ****    // write the CRC value
 681:build/OpenMote-CC2538_armgcc/drivers/common/openserial.c ****    outputHdlcWrite((finalCrc>>0)&0xff);
 2266              		.loc 1 681 0
 2267 0ae4 FB88     		ldrh	r3, [r7, #6]	@ movhi
 2268 0ae6 DBB2     		uxtb	r3, r3
 2269 0ae8 1846     		mov	r0, r3
 2270 0aea FFF7FEFF 		bl	outputHdlcWrite
 682:build/OpenMote-CC2538_armgcc/drivers/common/openserial.c ****    outputHdlcWrite((finalCrc>>8)&0xff);
 2271              		.loc 1 682 0
 2272 0aee FB88     		ldrh	r3, [r7, #6]
 2273 0af0 1B0A     		lsrs	r3, r3, #8
 2274 0af2 9BB2     		uxth	r3, r3
 2275 0af4 DBB2     		uxtb	r3, r3
 2276 0af6 1846     		mov	r0, r3
 2277 0af8 FFF7FEFF 		bl	outputHdlcWrite
 683:build/OpenMote-CC2538_armgcc/drivers/common/openserial.c ****    
 684:build/OpenMote-CC2538_armgcc/drivers/common/openserial.c ****    // write the closing HDLC flag
 685:build/OpenMote-CC2538_armgcc/drivers/common/openserial.c ****    openserial_vars.outputBuf[openserial_vars.outputBufIdxW++]   = HDLC_FLAG;
 2278              		.loc 1 685 0
 2279 0afc 084B     		ldr	r3, .L134
 2280 0afe 93F8DA30 		ldrb	r3, [r3, #218]	@ zero_extendqisi2
 2281 0b02 5A1C     		adds	r2, r3, #1
 2282 0b04 D1B2     		uxtb	r1, r2
 2283 0b06 064A     		ldr	r2, .L134
 2284 0b08 82F8DA10 		strb	r1, [r2, #218]
 2285 0b0c 1A46     		mov	r2, r3
 2286 0b0e 044B     		ldr	r3, .L134
 2287 0b10 1344     		add	r3, r3, r2
 2288 0b12 7E22     		movs	r2, #126
 2289 0b14 83F8DC20 		strb	r2, [r3, #220]
 686:build/OpenMote-CC2538_armgcc/drivers/common/openserial.c **** }
 2290              		.loc 1 686 0
 2291 0b18 0837     		adds	r7, r7, #8
 2292              		.cfi_def_cfa_offset 8
 2293 0b1a BD46     		mov	sp, r7
 2294              		.cfi_def_cfa_register 13
 2295              		@ sp needed
 2296 0b1c 80BD     		pop	{r7, pc}
 2297              	.L135:
 2298 0b1e 00BF     		.align	2
 2299              	.L134:
 2300 0b20 00000000 		.word	openserial_vars
 2301              		.cfi_endproc
 2302              	.LFE18:
 2304              		.align	2
 2305              		.global	inputHdlcOpen
 2306              		.thumb
 2307              		.thumb_func
 2309              	inputHdlcOpen:
 2310              	.LFB19:
 687:build/OpenMote-CC2538_armgcc/drivers/common/openserial.c **** 
 688:build/OpenMote-CC2538_armgcc/drivers/common/openserial.c **** //===== hdlc (input)
 689:build/OpenMote-CC2538_armgcc/drivers/common/openserial.c **** 
 690:build/OpenMote-CC2538_armgcc/drivers/common/openserial.c **** /**
 691:build/OpenMote-CC2538_armgcc/drivers/common/openserial.c **** \brief Start an HDLC frame in the input buffer.
 692:build/OpenMote-CC2538_armgcc/drivers/common/openserial.c **** */
 693:build/OpenMote-CC2538_armgcc/drivers/common/openserial.c **** port_INLINE void inputHdlcOpen() {
 2311              		.loc 1 693 0
 2312              		.cfi_startproc
 2313              		@ args = 0, pretend = 0, frame = 0
 2314              		@ frame_needed = 1, uses_anonymous_args = 0
 2315              		@ link register save eliminated.
 2316 0b24 80B4     		push	{r7}
 2317              		.cfi_def_cfa_offset 4
 2318              		.cfi_offset 7, -4
 2319 0b26 00AF     		add	r7, sp, #0
 2320              		.cfi_def_cfa_register 7
 694:build/OpenMote-CC2538_armgcc/drivers/common/openserial.c ****    // reset the input buffer index
 695:build/OpenMote-CC2538_armgcc/drivers/common/openserial.c ****    openserial_vars.inputBufFill                       = 0;
 2321              		.loc 1 695 0
 2322 0b28 054B     		ldr	r3, .L137
 2323 0b2a 0022     		movs	r2, #0
 2324 0b2c 9A73     		strb	r2, [r3, #14]
 696:build/OpenMote-CC2538_armgcc/drivers/common/openserial.c ****    
 697:build/OpenMote-CC2538_armgcc/drivers/common/openserial.c ****    // initialize the value of the CRC
 698:build/OpenMote-CC2538_armgcc/drivers/common/openserial.c ****    openserial_vars.inputCrc                           = HDLC_CRCINIT;
 2325              		.loc 1 698 0
 2326 0b2e 044B     		ldr	r3, .L137
 2327 0b30 4FF6FF72 		movw	r2, #65535
 2328 0b34 9A81     		strh	r2, [r3, #12]	@ movhi
 699:build/OpenMote-CC2538_armgcc/drivers/common/openserial.c **** }
 2329              		.loc 1 699 0
 2330 0b36 BD46     		mov	sp, r7
 2331              		.cfi_def_cfa_register 13
 2332              		@ sp needed
 2333 0b38 5DF8047B 		ldr	r7, [sp], #4
 2334              		.cfi_restore 7
 2335              		.cfi_def_cfa_offset 0
 2336 0b3c 7047     		bx	lr
 2337              	.L138:
 2338 0b3e 00BF     		.align	2
 2339              	.L137:
 2340 0b40 00000000 		.word	openserial_vars
 2341              		.cfi_endproc
 2342              	.LFE19:
 2344              		.align	2
 2345              		.global	inputHdlcWrite
 2346              		.thumb
 2347              		.thumb_func
 2349              	inputHdlcWrite:
 2350              	.LFB20:
 700:build/OpenMote-CC2538_armgcc/drivers/common/openserial.c **** /**
 701:build/OpenMote-CC2538_armgcc/drivers/common/openserial.c **** \brief Add a byte to the incoming HDLC frame.
 702:build/OpenMote-CC2538_armgcc/drivers/common/openserial.c **** */
 703:build/OpenMote-CC2538_armgcc/drivers/common/openserial.c **** port_INLINE void inputHdlcWrite(uint8_t b) {
 2351              		.loc 1 703 0
 2352              		.cfi_startproc
 2353              		@ args = 0, pretend = 0, frame = 8
 2354              		@ frame_needed = 1, uses_anonymous_args = 0
 2355 0b44 80B5     		push	{r7, lr}
 2356              		.cfi_def_cfa_offset 8
 2357              		.cfi_offset 7, -8
 2358              		.cfi_offset 14, -4
 2359 0b46 82B0     		sub	sp, sp, #8
 2360              		.cfi_def_cfa_offset 16
 2361 0b48 00AF     		add	r7, sp, #0
 2362              		.cfi_def_cfa_register 7
 2363 0b4a 0346     		mov	r3, r0
 2364 0b4c FB71     		strb	r3, [r7, #7]
 704:build/OpenMote-CC2538_armgcc/drivers/common/openserial.c ****    if (b==HDLC_ESCAPE) {
 2365              		.loc 1 704 0
 2366 0b4e FB79     		ldrb	r3, [r7, #7]	@ zero_extendqisi2
 2367 0b50 7D2B     		cmp	r3, #125
 2368 0b52 03D1     		bne	.L140
 705:build/OpenMote-CC2538_armgcc/drivers/common/openserial.c ****       openserial_vars.inputEscaping = TRUE;
 2369              		.loc 1 705 0
 2370 0b54 144B     		ldr	r3, .L143
 2371 0b56 0122     		movs	r2, #1
 2372 0b58 9A72     		strb	r2, [r3, #10]
 2373 0b5a 22E0     		b	.L139
 2374              	.L140:
 706:build/OpenMote-CC2538_armgcc/drivers/common/openserial.c ****    } else {
 707:build/OpenMote-CC2538_armgcc/drivers/common/openserial.c ****       if (openserial_vars.inputEscaping==TRUE) {
 2375              		.loc 1 707 0
 2376 0b5c 124B     		ldr	r3, .L143
 2377 0b5e 9B7A     		ldrb	r3, [r3, #10]	@ zero_extendqisi2
 2378 0b60 002B     		cmp	r3, #0
 2379 0b62 06D0     		beq	.L142
 708:build/OpenMote-CC2538_armgcc/drivers/common/openserial.c ****          b                             = b^HDLC_ESCAPE_MASK;
 2380              		.loc 1 708 0
 2381 0b64 FB79     		ldrb	r3, [r7, #7]
 2382 0b66 83F02003 		eor	r3, r3, #32
 2383 0b6a FB71     		strb	r3, [r7, #7]
 709:build/OpenMote-CC2538_armgcc/drivers/common/openserial.c ****          openserial_vars.inputEscaping = FALSE;
 2384              		.loc 1 709 0
 2385 0b6c 0E4B     		ldr	r3, .L143
 2386 0b6e 0022     		movs	r2, #0
 2387 0b70 9A72     		strb	r2, [r3, #10]
 2388              	.L142:
 710:build/OpenMote-CC2538_armgcc/drivers/common/openserial.c ****       }
 711:build/OpenMote-CC2538_armgcc/drivers/common/openserial.c ****       
 712:build/OpenMote-CC2538_armgcc/drivers/common/openserial.c ****       // add byte to input buffer
 713:build/OpenMote-CC2538_armgcc/drivers/common/openserial.c ****       openserial_vars.inputBuf[openserial_vars.inputBufFill] = b;
 2389              		.loc 1 713 0
 2390 0b72 0D4B     		ldr	r3, .L143
 2391 0b74 9B7B     		ldrb	r3, [r3, #14]	@ zero_extendqisi2
 2392 0b76 1A46     		mov	r2, r3
 2393 0b78 0B4B     		ldr	r3, .L143
 2394 0b7a 1344     		add	r3, r3, r2
 2395 0b7c FA79     		ldrb	r2, [r7, #7]
 2396 0b7e DA73     		strb	r2, [r3, #15]
 714:build/OpenMote-CC2538_armgcc/drivers/common/openserial.c ****       openserial_vars.inputBufFill++;
 2397              		.loc 1 714 0
 2398 0b80 094B     		ldr	r3, .L143
 2399 0b82 9B7B     		ldrb	r3, [r3, #14]	@ zero_extendqisi2
 2400 0b84 0133     		adds	r3, r3, #1
 2401 0b86 DAB2     		uxtb	r2, r3
 2402 0b88 074B     		ldr	r3, .L143
 2403 0b8a 9A73     		strb	r2, [r3, #14]
 715:build/OpenMote-CC2538_armgcc/drivers/common/openserial.c ****       
 716:build/OpenMote-CC2538_armgcc/drivers/common/openserial.c ****       // iterate through CRC calculator
 717:build/OpenMote-CC2538_armgcc/drivers/common/openserial.c ****       openserial_vars.inputCrc = crcIteration(openserial_vars.inputCrc,b);
 2404              		.loc 1 717 0
 2405 0b8c 064B     		ldr	r3, .L143
 2406 0b8e 9A89     		ldrh	r2, [r3, #12]
 2407 0b90 FB79     		ldrb	r3, [r7, #7]	@ zero_extendqisi2
 2408 0b92 1046     		mov	r0, r2
 2409 0b94 1946     		mov	r1, r3
 2410 0b96 FFF7FEFF 		bl	crcIteration
 2411 0b9a 0346     		mov	r3, r0
 2412 0b9c 1A46     		mov	r2, r3
 2413 0b9e 024B     		ldr	r3, .L143
 2414 0ba0 9A81     		strh	r2, [r3, #12]	@ movhi
 2415              	.L139:
 718:build/OpenMote-CC2538_armgcc/drivers/common/openserial.c ****    }
 719:build/OpenMote-CC2538_armgcc/drivers/common/openserial.c **** }
 2416              		.loc 1 719 0
 2417 0ba2 0837     		adds	r7, r7, #8
 2418              		.cfi_def_cfa_offset 8
 2419 0ba4 BD46     		mov	sp, r7
 2420              		.cfi_def_cfa_register 13
 2421              		@ sp needed
 2422 0ba6 80BD     		pop	{r7, pc}
 2423              	.L144:
 2424              		.align	2
 2425              	.L143:
 2426 0ba8 00000000 		.word	openserial_vars
 2427              		.cfi_endproc
 2428              	.LFE20:
 2430              		.align	2
 2431              		.global	inputHdlcClose
 2432              		.thumb
 2433              		.thumb_func
 2435              	inputHdlcClose:
 2436              	.LFB21:
 720:build/OpenMote-CC2538_armgcc/drivers/common/openserial.c **** /**
 721:build/OpenMote-CC2538_armgcc/drivers/common/openserial.c **** \brief Finalize the incoming HDLC frame.
 722:build/OpenMote-CC2538_armgcc/drivers/common/openserial.c **** */
 723:build/OpenMote-CC2538_armgcc/drivers/common/openserial.c **** port_INLINE void inputHdlcClose() {
 2437              		.loc 1 723 0
 2438              		.cfi_startproc
 2439              		@ args = 0, pretend = 0, frame = 0
 2440              		@ frame_needed = 1, uses_anonymous_args = 0
 2441              		@ link register save eliminated.
 2442 0bac 80B4     		push	{r7}
 2443              		.cfi_def_cfa_offset 4
 2444              		.cfi_offset 7, -4
 2445 0bae 00AF     		add	r7, sp, #0
 2446              		.cfi_def_cfa_register 7
 724:build/OpenMote-CC2538_armgcc/drivers/common/openserial.c ****    
 725:build/OpenMote-CC2538_armgcc/drivers/common/openserial.c ****    // verify the validity of the frame
 726:build/OpenMote-CC2538_armgcc/drivers/common/openserial.c ****    if (openserial_vars.inputCrc==HDLC_CRCGOOD) {
 2447              		.loc 1 726 0
 2448 0bb0 094B     		ldr	r3, .L148
 2449 0bb2 9B89     		ldrh	r3, [r3, #12]
 2450 0bb4 4FF2B802 		movw	r2, #61624
 2451 0bb8 9342     		cmp	r3, r2
 2452 0bba 06D1     		bne	.L146
 727:build/OpenMote-CC2538_armgcc/drivers/common/openserial.c ****       // the CRC is correct
 728:build/OpenMote-CC2538_armgcc/drivers/common/openserial.c ****       
 729:build/OpenMote-CC2538_armgcc/drivers/common/openserial.c ****       // remove the CRC from the input buffer
 730:build/OpenMote-CC2538_armgcc/drivers/common/openserial.c ****       openserial_vars.inputBufFill    -= 2;
 2453              		.loc 1 730 0
 2454 0bbc 064B     		ldr	r3, .L148
 2455 0bbe 9B7B     		ldrb	r3, [r3, #14]	@ zero_extendqisi2
 2456 0bc0 023B     		subs	r3, r3, #2
 2457 0bc2 DAB2     		uxtb	r2, r3
 2458 0bc4 044B     		ldr	r3, .L148
 2459 0bc6 9A73     		strb	r2, [r3, #14]
 2460 0bc8 02E0     		b	.L145
 2461              	.L146:
 731:build/OpenMote-CC2538_armgcc/drivers/common/openserial.c ****    } else {
 732:build/OpenMote-CC2538_armgcc/drivers/common/openserial.c ****       // the CRC is incorrect
 733:build/OpenMote-CC2538_armgcc/drivers/common/openserial.c ****       
 734:build/OpenMote-CC2538_armgcc/drivers/common/openserial.c ****       // drop the incoming fram
 735:build/OpenMote-CC2538_armgcc/drivers/common/openserial.c ****       openserial_vars.inputBufFill     = 0;
 2462              		.loc 1 735 0
 2463 0bca 034B     		ldr	r3, .L148
 2464 0bcc 0022     		movs	r2, #0
 2465 0bce 9A73     		strb	r2, [r3, #14]
 2466              	.L145:
 736:build/OpenMote-CC2538_armgcc/drivers/common/openserial.c ****    }
 737:build/OpenMote-CC2538_armgcc/drivers/common/openserial.c **** }
 2467              		.loc 1 737 0
 2468 0bd0 BD46     		mov	sp, r7
 2469              		.cfi_def_cfa_register 13
 2470              		@ sp needed
 2471 0bd2 5DF8047B 		ldr	r7, [sp], #4
 2472              		.cfi_restore 7
 2473              		.cfi_def_cfa_offset 0
 2474 0bd6 7047     		bx	lr
 2475              	.L149:
 2476              		.align	2
 2477              	.L148:
 2478 0bd8 00000000 		.word	openserial_vars
 2479              		.cfi_endproc
 2480              	.LFE21:
 2482              		.align	2
 2483              		.global	isr_openserial_tx
 2484              		.thumb
 2485              		.thumb_func
 2487              	isr_openserial_tx:
 2488              	.LFB22:
 738:build/OpenMote-CC2538_armgcc/drivers/common/openserial.c **** 
 739:build/OpenMote-CC2538_armgcc/drivers/common/openserial.c **** //=========================== interrupt handlers ==============================
 740:build/OpenMote-CC2538_armgcc/drivers/common/openserial.c **** 
 741:build/OpenMote-CC2538_armgcc/drivers/common/openserial.c **** //executed in ISR, called from scheduler.c
 742:build/OpenMote-CC2538_armgcc/drivers/common/openserial.c **** void isr_openserial_tx() {
 2489              		.loc 1 742 0
 2490              		.cfi_startproc
 2491              		@ args = 0, pretend = 0, frame = 0
 2492              		@ frame_needed = 1, uses_anonymous_args = 0
 2493 0bdc 80B5     		push	{r7, lr}
 2494              		.cfi_def_cfa_offset 8
 2495              		.cfi_offset 7, -8
 2496              		.cfi_offset 14, -4
 2497 0bde 00AF     		add	r7, sp, #0
 2498              		.cfi_def_cfa_register 7
 743:build/OpenMote-CC2538_armgcc/drivers/common/openserial.c ****    switch (openserial_vars.mode) {
 2499              		.loc 1 743 0
 2500 0be0 1F4B     		ldr	r3, .L159
 2501 0be2 1B78     		ldrb	r3, [r3]	@ zero_extendqisi2
 2502 0be4 012B     		cmp	r3, #1
 2503 0be6 02D0     		beq	.L152
 2504 0be8 022B     		cmp	r3, #2
 2505 0bea 15D0     		beq	.L153
 744:build/OpenMote-CC2538_armgcc/drivers/common/openserial.c ****       case MODE_INPUT:
 745:build/OpenMote-CC2538_armgcc/drivers/common/openserial.c ****          openserial_vars.reqFrameIdx++;
 746:build/OpenMote-CC2538_armgcc/drivers/common/openserial.c ****          if (openserial_vars.reqFrameIdx<sizeof(openserial_vars.reqFrame)) {
 747:build/OpenMote-CC2538_armgcc/drivers/common/openserial.c ****             uart_writeByte(openserial_vars.reqFrame[openserial_vars.reqFrameIdx]);
 748:build/OpenMote-CC2538_armgcc/drivers/common/openserial.c ****          }
 749:build/OpenMote-CC2538_armgcc/drivers/common/openserial.c ****          break;
 750:build/OpenMote-CC2538_armgcc/drivers/common/openserial.c ****       case MODE_OUTPUT:
 751:build/OpenMote-CC2538_armgcc/drivers/common/openserial.c ****          if (openserial_vars.outputBufIdxW==openserial_vars.outputBufIdxR) {
 752:build/OpenMote-CC2538_armgcc/drivers/common/openserial.c ****             openserial_vars.outputBufFilled = FALSE;
 753:build/OpenMote-CC2538_armgcc/drivers/common/openserial.c ****          }
 754:build/OpenMote-CC2538_armgcc/drivers/common/openserial.c ****          if (openserial_vars.outputBufFilled) {
 755:build/OpenMote-CC2538_armgcc/drivers/common/openserial.c ****             uart_writeByte(openserial_vars.outputBuf[openserial_vars.outputBufIdxR++]);
 756:build/OpenMote-CC2538_armgcc/drivers/common/openserial.c ****          }
 757:build/OpenMote-CC2538_armgcc/drivers/common/openserial.c ****          break;
 758:build/OpenMote-CC2538_armgcc/drivers/common/openserial.c ****       case MODE_OFF:
 759:build/OpenMote-CC2538_armgcc/drivers/common/openserial.c ****       default:
 760:build/OpenMote-CC2538_armgcc/drivers/common/openserial.c ****          break;
 2506              		.loc 1 760 0
 2507 0bec 37E0     		b	.L150
 2508              	.L152:
 745:build/OpenMote-CC2538_armgcc/drivers/common/openserial.c ****          if (openserial_vars.reqFrameIdx<sizeof(openserial_vars.reqFrame)) {
 2509              		.loc 1 745 0
 2510 0bee 1C4B     		ldr	r3, .L159
 2511 0bf0 DB79     		ldrb	r3, [r3, #7]	@ zero_extendqisi2
 2512 0bf2 0133     		adds	r3, r3, #1
 2513 0bf4 DAB2     		uxtb	r2, r3
 2514 0bf6 1A4B     		ldr	r3, .L159
 2515 0bf8 DA71     		strb	r2, [r3, #7]
 746:build/OpenMote-CC2538_armgcc/drivers/common/openserial.c ****             uart_writeByte(openserial_vars.reqFrame[openserial_vars.reqFrameIdx]);
 2516              		.loc 1 746 0
 2517 0bfa 194B     		ldr	r3, .L159
 2518 0bfc DB79     		ldrb	r3, [r3, #7]	@ zero_extendqisi2
 2519 0bfe 042B     		cmp	r3, #4
 2520 0c00 09D8     		bhi	.L154
 747:build/OpenMote-CC2538_armgcc/drivers/common/openserial.c ****          }
 2521              		.loc 1 747 0
 2522 0c02 174B     		ldr	r3, .L159
 2523 0c04 DB79     		ldrb	r3, [r3, #7]	@ zero_extendqisi2
 2524 0c06 1A46     		mov	r2, r3
 2525 0c08 154B     		ldr	r3, .L159
 2526 0c0a 1344     		add	r3, r3, r2
 2527 0c0c 9B78     		ldrb	r3, [r3, #2]	@ zero_extendqisi2
 2528 0c0e 1846     		mov	r0, r3
 2529 0c10 FFF7FEFF 		bl	uart_writeByte
 749:build/OpenMote-CC2538_armgcc/drivers/common/openserial.c ****       case MODE_OUTPUT:
 2530              		.loc 1 749 0
 2531 0c14 23E0     		b	.L150
 2532              	.L154:
 2533 0c16 22E0     		b	.L150
 2534              	.L153:
 751:build/OpenMote-CC2538_armgcc/drivers/common/openserial.c ****             openserial_vars.outputBufFilled = FALSE;
 2535              		.loc 1 751 0
 2536 0c18 114B     		ldr	r3, .L159
 2537 0c1a 93F8DA20 		ldrb	r2, [r3, #218]	@ zero_extendqisi2
 2538 0c1e 104B     		ldr	r3, .L159
 2539 0c20 93F8DB30 		ldrb	r3, [r3, #219]	@ zero_extendqisi2
 2540 0c24 9A42     		cmp	r2, r3
 2541 0c26 03D1     		bne	.L156
 752:build/OpenMote-CC2538_armgcc/drivers/common/openserial.c ****          }
 2542              		.loc 1 752 0
 2543 0c28 0D4B     		ldr	r3, .L159
 2544 0c2a 0022     		movs	r2, #0
 2545 0c2c 83F8D720 		strb	r2, [r3, #215]
 2546              	.L156:
 754:build/OpenMote-CC2538_armgcc/drivers/common/openserial.c ****             uart_writeByte(openserial_vars.outputBuf[openserial_vars.outputBufIdxR++]);
 2547              		.loc 1 754 0
 2548 0c30 0B4B     		ldr	r3, .L159
 2549 0c32 93F8D730 		ldrb	r3, [r3, #215]	@ zero_extendqisi2
 2550 0c36 002B     		cmp	r3, #0
 2551 0c38 10D0     		beq	.L157
 755:build/OpenMote-CC2538_armgcc/drivers/common/openserial.c ****          }
 2552              		.loc 1 755 0
 2553 0c3a 094B     		ldr	r3, .L159
 2554 0c3c 93F8DB30 		ldrb	r3, [r3, #219]	@ zero_extendqisi2
 2555 0c40 5A1C     		adds	r2, r3, #1
 2556 0c42 D1B2     		uxtb	r1, r2
 2557 0c44 064A     		ldr	r2, .L159
 2558 0c46 82F8DB10 		strb	r1, [r2, #219]
 2559 0c4a 1A46     		mov	r2, r3
 2560 0c4c 044B     		ldr	r3, .L159
 2561 0c4e 1344     		add	r3, r3, r2
 2562 0c50 93F8DC30 		ldrb	r3, [r3, #220]	@ zero_extendqisi2
 2563 0c54 1846     		mov	r0, r3
 2564 0c56 FFF7FEFF 		bl	uart_writeByte
 757:build/OpenMote-CC2538_armgcc/drivers/common/openserial.c ****       case MODE_OFF:
 2565              		.loc 1 757 0
 2566 0c5a FFE7     		b	.L158
 2567              	.L157:
 2568              	.L158:
 2569 0c5c 00BF     		nop
 2570              	.L150:
 761:build/OpenMote-CC2538_armgcc/drivers/common/openserial.c ****    }
 762:build/OpenMote-CC2538_armgcc/drivers/common/openserial.c **** }
 2571              		.loc 1 762 0
 2572 0c5e 80BD     		pop	{r7, pc}
 2573              	.L160:
 2574              		.align	2
 2575              	.L159:
 2576 0c60 00000000 		.word	openserial_vars
 2577              		.cfi_endproc
 2578              	.LFE22:
 2580              		.align	2
 2581              		.global	isr_openserial_rx
 2582              		.thumb
 2583              		.thumb_func
 2585              	isr_openserial_rx:
 2586              	.LFB23:
 763:build/OpenMote-CC2538_armgcc/drivers/common/openserial.c **** 
 764:build/OpenMote-CC2538_armgcc/drivers/common/openserial.c **** // executed in ISR, called from scheduler.c
 765:build/OpenMote-CC2538_armgcc/drivers/common/openserial.c **** void isr_openserial_rx() {
 2587              		.loc 1 765 0
 2588              		.cfi_startproc
 2589              		@ args = 0, pretend = 0, frame = 8
 2590              		@ frame_needed = 1, uses_anonymous_args = 0
 2591 0c64 80B5     		push	{r7, lr}
 2592              		.cfi_def_cfa_offset 8
 2593              		.cfi_offset 7, -8
 2594              		.cfi_offset 14, -4
 2595 0c66 82B0     		sub	sp, sp, #8
 2596              		.cfi_def_cfa_offset 16
 2597 0c68 00AF     		add	r7, sp, #0
 2598              		.cfi_def_cfa_register 7
 766:build/OpenMote-CC2538_armgcc/drivers/common/openserial.c ****    uint8_t rxbyte;
 767:build/OpenMote-CC2538_armgcc/drivers/common/openserial.c ****    uint8_t inputBufFill;
 768:build/OpenMote-CC2538_armgcc/drivers/common/openserial.c ****    
 769:build/OpenMote-CC2538_armgcc/drivers/common/openserial.c ****    // stop if I'm not in input mode
 770:build/OpenMote-CC2538_armgcc/drivers/common/openserial.c ****    if (openserial_vars.mode!=MODE_INPUT) {
 2599              		.loc 1 770 0
 2600 0c6a 324B     		ldr	r3, .L169
 2601 0c6c 1B78     		ldrb	r3, [r3]	@ zero_extendqisi2
 2602 0c6e 012B     		cmp	r3, #1
 2603 0c70 00D0     		beq	.L162
 771:build/OpenMote-CC2538_armgcc/drivers/common/openserial.c ****       return;
 2604              		.loc 1 771 0
 2605 0c72 5BE0     		b	.L161
 2606              	.L162:
 772:build/OpenMote-CC2538_armgcc/drivers/common/openserial.c ****    }
 773:build/OpenMote-CC2538_armgcc/drivers/common/openserial.c ****    
 774:build/OpenMote-CC2538_armgcc/drivers/common/openserial.c ****    // read byte just received
 775:build/OpenMote-CC2538_armgcc/drivers/common/openserial.c ****    rxbyte = uart_readByte();
 2607              		.loc 1 775 0
 2608 0c74 FFF7FEFF 		bl	uart_readByte
 2609 0c78 0346     		mov	r3, r0
 2610 0c7a FB71     		strb	r3, [r7, #7]
 776:build/OpenMote-CC2538_armgcc/drivers/common/openserial.c ****    //keep lenght
 777:build/OpenMote-CC2538_armgcc/drivers/common/openserial.c ****    inputBufFill=openserial_vars.inputBufFill;
 2611              		.loc 1 777 0
 2612 0c7c 2D4B     		ldr	r3, .L169
 2613 0c7e 9B7B     		ldrb	r3, [r3, #14]
 2614 0c80 BB71     		strb	r3, [r7, #6]
 778:build/OpenMote-CC2538_armgcc/drivers/common/openserial.c ****    
 779:build/OpenMote-CC2538_armgcc/drivers/common/openserial.c ****    if        (
 780:build/OpenMote-CC2538_armgcc/drivers/common/openserial.c ****                 openserial_vars.busyReceiving==FALSE  &&
 2615              		.loc 1 780 0
 2616 0c82 2C4B     		ldr	r3, .L169
 2617 0c84 5B7A     		ldrb	r3, [r3, #9]	@ zero_extendqisi2
 2618 0c86 83F00103 		eor	r3, r3, #1
 2619 0c8a DBB2     		uxtb	r3, r3
 779:build/OpenMote-CC2538_armgcc/drivers/common/openserial.c ****                 openserial_vars.busyReceiving==FALSE  &&
 2620              		.loc 1 779 0
 2621 0c8c 002B     		cmp	r3, #0
 2622 0c8e 10D0     		beq	.L164
 781:build/OpenMote-CC2538_armgcc/drivers/common/openserial.c ****                 openserial_vars.lastRxByte==HDLC_FLAG &&
 2623              		.loc 1 781 0
 2624 0c90 284B     		ldr	r3, .L169
 2625 0c92 1B7A     		ldrb	r3, [r3, #8]	@ zero_extendqisi2
 780:build/OpenMote-CC2538_armgcc/drivers/common/openserial.c ****                 openserial_vars.lastRxByte==HDLC_FLAG &&
 2626              		.loc 1 780 0
 2627 0c94 7E2B     		cmp	r3, #126
 2628 0c96 0CD1     		bne	.L164
 2629              		.loc 1 781 0
 2630 0c98 FB79     		ldrb	r3, [r7, #7]	@ zero_extendqisi2
 2631 0c9a 7E2B     		cmp	r3, #126
 2632 0c9c 09D0     		beq	.L164
 782:build/OpenMote-CC2538_armgcc/drivers/common/openserial.c ****                 rxbyte!=HDLC_FLAG
 783:build/OpenMote-CC2538_armgcc/drivers/common/openserial.c ****               ) {
 784:build/OpenMote-CC2538_armgcc/drivers/common/openserial.c ****       // start of frame
 785:build/OpenMote-CC2538_armgcc/drivers/common/openserial.c ****       
 786:build/OpenMote-CC2538_armgcc/drivers/common/openserial.c ****       // I'm now receiving
 787:build/OpenMote-CC2538_armgcc/drivers/common/openserial.c ****       openserial_vars.busyReceiving         = TRUE;
 2633              		.loc 1 787 0
 2634 0c9e 254B     		ldr	r3, .L169
 2635 0ca0 0122     		movs	r2, #1
 2636 0ca2 5A72     		strb	r2, [r3, #9]
 788:build/OpenMote-CC2538_armgcc/drivers/common/openserial.c ****       
 789:build/OpenMote-CC2538_armgcc/drivers/common/openserial.c ****       // create the HDLC frame
 790:build/OpenMote-CC2538_armgcc/drivers/common/openserial.c ****       inputHdlcOpen();
 2637              		.loc 1 790 0
 2638 0ca4 FFF7FEFF 		bl	inputHdlcOpen
 791:build/OpenMote-CC2538_armgcc/drivers/common/openserial.c ****       
 792:build/OpenMote-CC2538_armgcc/drivers/common/openserial.c ****       // add the byte just received
 793:build/OpenMote-CC2538_armgcc/drivers/common/openserial.c ****       inputHdlcWrite(rxbyte);
 2639              		.loc 1 793 0
 2640 0ca8 FB79     		ldrb	r3, [r7, #7]	@ zero_extendqisi2
 2641 0caa 1846     		mov	r0, r3
 2642 0cac FFF7FEFF 		bl	inputHdlcWrite
 2643 0cb0 39E0     		b	.L165
 2644              	.L164:
 794:build/OpenMote-CC2538_armgcc/drivers/common/openserial.c ****    } else if (
 795:build/OpenMote-CC2538_armgcc/drivers/common/openserial.c ****                 openserial_vars.busyReceiving==TRUE   &&
 2645              		.loc 1 795 0
 2646 0cb2 204B     		ldr	r3, .L169
 2647 0cb4 5B7A     		ldrb	r3, [r3, #9]	@ zero_extendqisi2
 794:build/OpenMote-CC2538_armgcc/drivers/common/openserial.c ****    } else if (
 2648              		.loc 1 794 0
 2649 0cb6 002B     		cmp	r3, #0
 2650 0cb8 1BD0     		beq	.L166
 2651              		.loc 1 795 0
 2652 0cba FB79     		ldrb	r3, [r7, #7]	@ zero_extendqisi2
 2653 0cbc 7E2B     		cmp	r3, #126
 2654 0cbe 18D0     		beq	.L166
 796:build/OpenMote-CC2538_armgcc/drivers/common/openserial.c ****                 rxbyte!=HDLC_FLAG
 797:build/OpenMote-CC2538_armgcc/drivers/common/openserial.c ****              ) {
 798:build/OpenMote-CC2538_armgcc/drivers/common/openserial.c ****       // middle of frame
 799:build/OpenMote-CC2538_armgcc/drivers/common/openserial.c ****       
 800:build/OpenMote-CC2538_armgcc/drivers/common/openserial.c ****       // add the byte just received
 801:build/OpenMote-CC2538_armgcc/drivers/common/openserial.c ****       inputHdlcWrite(rxbyte);
 2655              		.loc 1 801 0
 2656 0cc0 FB79     		ldrb	r3, [r7, #7]	@ zero_extendqisi2
 2657 0cc2 1846     		mov	r0, r3
 2658 0cc4 FFF7FEFF 		bl	inputHdlcWrite
 802:build/OpenMote-CC2538_armgcc/drivers/common/openserial.c ****       if (openserial_vars.inputBufFill+1>SERIAL_INPUT_BUFFER_SIZE){
 2659              		.loc 1 802 0
 2660 0cc8 1A4B     		ldr	r3, .L169
 2661 0cca 9B7B     		ldrb	r3, [r3, #14]	@ zero_extendqisi2
 2662 0ccc 0133     		adds	r3, r3, #1
 2663 0cce C82B     		cmp	r3, #200
 2664 0cd0 0EDD     		ble	.L167
 803:build/OpenMote-CC2538_armgcc/drivers/common/openserial.c ****          // input buffer overflow
 804:build/OpenMote-CC2538_armgcc/drivers/common/openserial.c ****          openserial_printError(COMPONENT_OPENSERIAL,ERR_INPUT_BUFFER_OVERFLOW,
 2665              		.loc 1 804 0
 2666 0cd2 0420     		movs	r0, #4
 2667 0cd4 0421     		movs	r1, #4
 2668 0cd6 0022     		movs	r2, #0
 2669 0cd8 0023     		movs	r3, #0
 2670 0cda FFF7FEFF 		bl	openserial_printError
 805:build/OpenMote-CC2538_armgcc/drivers/common/openserial.c ****                                (errorparameter_t)0,
 806:build/OpenMote-CC2538_armgcc/drivers/common/openserial.c ****                                (errorparameter_t)0);
 807:build/OpenMote-CC2538_armgcc/drivers/common/openserial.c ****          openserial_vars.inputBufFill       = 0;
 2671              		.loc 1 807 0
 2672 0cde 154B     		ldr	r3, .L169
 2673 0ce0 0022     		movs	r2, #0
 2674 0ce2 9A73     		strb	r2, [r3, #14]
 808:build/OpenMote-CC2538_armgcc/drivers/common/openserial.c ****          openserial_vars.busyReceiving      = FALSE;
 2675              		.loc 1 808 0
 2676 0ce4 134B     		ldr	r3, .L169
 2677 0ce6 0022     		movs	r2, #0
 2678 0ce8 5A72     		strb	r2, [r3, #9]
 809:build/OpenMote-CC2538_armgcc/drivers/common/openserial.c ****          openserial_stop();
 2679              		.loc 1 809 0
 2680 0cea FFF7FEFF 		bl	openserial_stop
 802:build/OpenMote-CC2538_armgcc/drivers/common/openserial.c ****          // input buffer overflow
 2681              		.loc 1 802 0
 2682 0cee 1AE0     		b	.L165
 2683              	.L167:
 2684 0cf0 19E0     		b	.L165
 2685              	.L166:
 810:build/OpenMote-CC2538_armgcc/drivers/common/openserial.c ****       }
 811:build/OpenMote-CC2538_armgcc/drivers/common/openserial.c ****    } else if (
 812:build/OpenMote-CC2538_armgcc/drivers/common/openserial.c ****                 openserial_vars.busyReceiving==TRUE   &&
 2686              		.loc 1 812 0
 2687 0cf2 104B     		ldr	r3, .L169
 2688 0cf4 5B7A     		ldrb	r3, [r3, #9]	@ zero_extendqisi2
 811:build/OpenMote-CC2538_armgcc/drivers/common/openserial.c ****                 openserial_vars.busyReceiving==TRUE   &&
 2689              		.loc 1 811 0
 2690 0cf6 002B     		cmp	r3, #0
 2691 0cf8 15D0     		beq	.L165
 2692              		.loc 1 812 0
 2693 0cfa FB79     		ldrb	r3, [r7, #7]	@ zero_extendqisi2
 2694 0cfc 7E2B     		cmp	r3, #126
 2695 0cfe 12D1     		bne	.L165
 813:build/OpenMote-CC2538_armgcc/drivers/common/openserial.c ****                 rxbyte==HDLC_FLAG
 814:build/OpenMote-CC2538_armgcc/drivers/common/openserial.c ****               ) {
 815:build/OpenMote-CC2538_armgcc/drivers/common/openserial.c ****          // end of frame
 816:build/OpenMote-CC2538_armgcc/drivers/common/openserial.c ****          
 817:build/OpenMote-CC2538_armgcc/drivers/common/openserial.c ****          // finalize the HDLC frame
 818:build/OpenMote-CC2538_armgcc/drivers/common/openserial.c ****          inputHdlcClose();
 2696              		.loc 1 818 0
 2697 0d00 FFF7FEFF 		bl	inputHdlcClose
 819:build/OpenMote-CC2538_armgcc/drivers/common/openserial.c ****          
 820:build/OpenMote-CC2538_armgcc/drivers/common/openserial.c ****          if (openserial_vars.inputBufFill==0){
 2698              		.loc 1 820 0
 2699 0d04 0B4B     		ldr	r3, .L169
 2700 0d06 9B7B     		ldrb	r3, [r3, #14]	@ zero_extendqisi2
 2701 0d08 002B     		cmp	r3, #0
 2702 0d0a 07D1     		bne	.L168
 821:build/OpenMote-CC2538_armgcc/drivers/common/openserial.c ****             // invalid HDLC frame
 822:build/OpenMote-CC2538_armgcc/drivers/common/openserial.c ****             openserial_printError(COMPONENT_OPENSERIAL,ERR_WRONG_CRC_INPUT,
 2703              		.loc 1 822 0
 2704 0d0c BB79     		ldrb	r3, [r7, #6]	@ zero_extendqisi2
 2705 0d0e 9BB2     		uxth	r3, r3
 2706 0d10 0420     		movs	r0, #4
 2707 0d12 3921     		movs	r1, #57
 2708 0d14 1A46     		mov	r2, r3
 2709 0d16 0023     		movs	r3, #0
 2710 0d18 FFF7FEFF 		bl	openserial_printError
 2711              	.L168:
 823:build/OpenMote-CC2538_armgcc/drivers/common/openserial.c ****                                   (errorparameter_t)inputBufFill,
 824:build/OpenMote-CC2538_armgcc/drivers/common/openserial.c ****                                   (errorparameter_t)0);
 825:build/OpenMote-CC2538_armgcc/drivers/common/openserial.c ****          
 826:build/OpenMote-CC2538_armgcc/drivers/common/openserial.c ****          }
 827:build/OpenMote-CC2538_armgcc/drivers/common/openserial.c ****          
 828:build/OpenMote-CC2538_armgcc/drivers/common/openserial.c ****          openserial_vars.busyReceiving      = FALSE;
 2712              		.loc 1 828 0
 2713 0d1c 054B     		ldr	r3, .L169
 2714 0d1e 0022     		movs	r2, #0
 2715 0d20 5A72     		strb	r2, [r3, #9]
 829:build/OpenMote-CC2538_armgcc/drivers/common/openserial.c ****          openserial_stop();
 2716              		.loc 1 829 0
 2717 0d22 FFF7FEFF 		bl	openserial_stop
 2718              	.L165:
 830:build/OpenMote-CC2538_armgcc/drivers/common/openserial.c ****    }
 831:build/OpenMote-CC2538_armgcc/drivers/common/openserial.c ****    
 832:build/OpenMote-CC2538_armgcc/drivers/common/openserial.c ****    openserial_vars.lastRxByte = rxbyte;
 2719              		.loc 1 832 0
 2720 0d26 034A     		ldr	r2, .L169
 2721 0d28 FB79     		ldrb	r3, [r7, #7]
 2722 0d2a 1372     		strb	r3, [r2, #8]
 2723              	.L161:
 833:build/OpenMote-CC2538_armgcc/drivers/common/openserial.c **** }
 2724              		.loc 1 833 0
 2725 0d2c 0837     		adds	r7, r7, #8
 2726              		.cfi_def_cfa_offset 8
 2727 0d2e BD46     		mov	sp, r7
 2728              		.cfi_def_cfa_register 13
 2729              		@ sp needed
 2730 0d30 80BD     		pop	{r7, pc}
 2731              	.L170:
 2732 0d32 00BF     		.align	2
 2733              	.L169:
 2734 0d34 00000000 		.word	openserial_vars
 2735              		.cfi_endproc
 2736              	.LFE23:
 2738              		.align	2
 2739              		.global	openserial_echo
 2740              		.thumb
 2741              		.thumb_func
 2743              	openserial_echo:
 2744              	.LFB24:
 834:build/OpenMote-CC2538_armgcc/drivers/common/openserial.c **** 
 835:build/OpenMote-CC2538_armgcc/drivers/common/openserial.c **** //======== SERIAL ECHO =============
 836:build/OpenMote-CC2538_armgcc/drivers/common/openserial.c **** 
 837:build/OpenMote-CC2538_armgcc/drivers/common/openserial.c **** void openserial_echo(uint8_t* buf, uint8_t bufLen){
 2745              		.loc 1 837 0
 2746              		.cfi_startproc
 2747              		@ args = 0, pretend = 0, frame = 8
 2748              		@ frame_needed = 1, uses_anonymous_args = 0
 2749 0d38 80B5     		push	{r7, lr}
 2750              		.cfi_def_cfa_offset 8
 2751              		.cfi_offset 7, -8
 2752              		.cfi_offset 14, -4
 2753 0d3a 82B0     		sub	sp, sp, #8
 2754              		.cfi_def_cfa_offset 16
 2755 0d3c 00AF     		add	r7, sp, #0
 2756              		.cfi_def_cfa_register 7
 2757 0d3e 7860     		str	r0, [r7, #4]
 2758 0d40 0B46     		mov	r3, r1
 2759 0d42 FB70     		strb	r3, [r7, #3]
 838:build/OpenMote-CC2538_armgcc/drivers/common/openserial.c ****    INTERRUPT_DECLARATION();
 839:build/OpenMote-CC2538_armgcc/drivers/common/openserial.c ****    // echo back what you received
 840:build/OpenMote-CC2538_armgcc/drivers/common/openserial.c ****    openserial_printData(
 2760              		.loc 1 840 0
 2761 0d44 FB78     		ldrb	r3, [r7, #3]	@ zero_extendqisi2
 2762 0d46 7868     		ldr	r0, [r7, #4]
 2763 0d48 1946     		mov	r1, r3
 2764 0d4a FFF7FEFF 		bl	openserial_printData
 841:build/OpenMote-CC2538_armgcc/drivers/common/openserial.c ****       buf,
 842:build/OpenMote-CC2538_armgcc/drivers/common/openserial.c ****       bufLen
 843:build/OpenMote-CC2538_armgcc/drivers/common/openserial.c ****    );
 844:build/OpenMote-CC2538_armgcc/drivers/common/openserial.c ****    
 845:build/OpenMote-CC2538_armgcc/drivers/common/openserial.c ****     DISABLE_INTERRUPTS();
 2765              		.loc 1 845 0
 2766 0d4e FFF7FEFF 		bl	IntMasterDisable
 846:build/OpenMote-CC2538_armgcc/drivers/common/openserial.c ****     openserial_vars.inputBufFill = 0;
 2767              		.loc 1 846 0
 2768 0d52 044B     		ldr	r3, .L172
 2769 0d54 0022     		movs	r2, #0
 2770 0d56 9A73     		strb	r2, [r3, #14]
 847:build/OpenMote-CC2538_armgcc/drivers/common/openserial.c ****     ENABLE_INTERRUPTS();
 2771              		.loc 1 847 0
 2772 0d58 FFF7FEFF 		bl	IntMasterEnable
 848:build/OpenMote-CC2538_armgcc/drivers/common/openserial.c **** }
 2773              		.loc 1 848 0
 2774 0d5c 0837     		adds	r7, r7, #8
 2775              		.cfi_def_cfa_offset 8
 2776 0d5e BD46     		mov	sp, r7
 2777              		.cfi_def_cfa_register 13
 2778              		@ sp needed
 2779 0d60 80BD     		pop	{r7, pc}
 2780              	.L173:
 2781 0d62 00BF     		.align	2
 2782              	.L172:
 2783 0d64 00000000 		.word	openserial_vars
 2784              		.cfi_endproc
 2785              	.LFE24:
 2787              	.Letext0:
 2788              		.file 2 "/usr/arm-none-eabi/include/machine/_default_types.h"
 2789              		.file 3 "/usr/arm-none-eabi/include/sys/_stdint.h"
 2790              		.file 4 "inc/opendefs.h"
 2791              		.file 5 "build/OpenMote-CC2538_armgcc/drivers/common/openserial.h"
 2792              		.file 6 "openstack/02b-MAChigh/schedule.h"
 2793              		.file 7 "openstack/02b-MAChigh/processIE.h"
 2794              		.file 8 "drivers/common/opentimers.h"
 2795              		.file 9 "openstack/02b-MAChigh/sixtop.h"
 2796              		.file 10 "bsp/boards/OpenMote-CC2538/board_info.h"
 2797              		.file 11 "openstack/02a-MAClow/IEEE802154E.h"
 2798              		.file 12 "openstack/03b-IPv6/icmpv6rpl.h"
 2799              		.file 13 "build/OpenMote-CC2538_armgcc/drivers/common/openhdlc.h"